 Defcon

 Timestamp is 686a765b (Sun Jul  6 14:12:59 2025)

 Preferred load address is 00400000

 Start         Length     Name                   Class
 0001:00000000 00000320H .text$di                CODE
 0001:00000320 001cf7d0H .text$mn                CODE
 0001:001cfaf0 0000a840H .text$x                 CODE
 0001:001da330 0000042cH .text$yd                CODE
 0002:00000000 00000428H .idata$5                DATA
 0002:00000428 0000000cH .00cfg                  DATA
 0002:00000434 00000004H .CRT$XCA                DATA
 0002:00000438 00000004H .CRT$XCAA               DATA
 0002:0000043c 0000000cH .CRT$XCC                DATA
 0002:00000448 00000008H .CRT$XCL                DATA
 0002:00000450 00000060H .CRT$XCU                DATA
 0002:000004b0 00000004H .CRT$XCZ                DATA
 0002:000004b4 00000004H .CRT$XIA                DATA
 0002:000004b8 00000004H .CRT$XIAA               DATA
 0002:000004bc 00000004H .CRT$XIAC               DATA
 0002:000004c0 00000018H .CRT$XIC                DATA
 0002:000004d8 00000004H .CRT$XIZ                DATA
 0002:000004dc 00000004H .CRT$XLA                DATA
 0002:000004e0 00000004H .CRT$XLZ                DATA
 0002:000004e4 00000004H .CRT$XPA                DATA
 0002:000004e8 00000008H .CRT$XPX                DATA
 0002:000004f0 00000004H .CRT$XPXA               DATA
 0002:000004f4 00000004H .CRT$XPZ                DATA
 0002:000004f8 00000004H .CRT$XTA                DATA
 0002:000004fc 00000004H .CRT$XTZ                DATA
 0002:00000500 00000000H .gfids$y                DATA
 0002:00000500 00059840H .rdata                  DATA
 0002:00059d40 00000040H .rdata$CastGuardVftablesA DATA
 0002:00059d80 00000040H .rdata$CastGuardVftablesC DATA
 0002:00059dc0 00000018H .rdata$T                DATA
 0002:00059dd8 00008500H .rdata$r                DATA
 0002:000622d8 00000ad0H .rdata$sxdata           DATA
 0002:00062da8 000001a4H .rdata$voltmd           DATA
 0002:00062f4c 00000468H .rdata$zzzdbg           DATA
 0002:000633b4 00000004H .rtc$IAA                DATA
 0002:000633b8 00000004H .rtc$IZZ                DATA
 0002:000633bc 00000004H .rtc$TAA                DATA
 0002:000633c0 00000004H .rtc$TZZ                DATA
 0002:000633c4 00000004H .tls                    DATA
 0002:000633c8 00000004H .tls$                   DATA
 0002:000633cc 00000004H .tls$ZZZ                DATA
 0002:000633d0 00009ae8H .xdata$x                DATA
 0002:0006ceb8 00000000H .edata                  DATA
 0002:0006ceb8 000000b4H .idata$2                DATA
 0002:0006cf6c 00000014H .idata$3                DATA
 0002:0006cf80 00000428H .idata$4                DATA
 0002:0006d3a8 000010c8H .idata$6                DATA
 0003:00000000 00007d20H .data                   DATA
 0003:00007d20 00000290H .data$r                 DATA
 0003:00007fb0 000038b8H .data$rs                DATA
 0003:0000b868 00010f7cH .bss                    DATA
 0004:00000000 00000080H .fptable                DATA
 0005:00000000 00000400H .rsrc$01                DATA
 0005:00000400 000168d0H .rsrc$02                DATA

  Address         Publics by Value              Rva+Base       Lib:Object

 0000:00000000       ___AbsoluteZero            00000000     <absolute>
 0000:00000000       ___arm64x_extra_rfe_table  00000000     <absolute>
 0000:00000000       ___arm64x_extra_rfe_table_size 00000000     <absolute>
 0000:00000000       ___arm64x_native_entrypoint 00000000     <absolute>
 0000:00000000       ___arm64x_redirection_metadata 00000000     <absolute>
 0000:00000000       ___arm64x_redirection_metadata_count 00000000     <absolute>
 0000:00000000       ___dynamic_value_reloc_table 00000000     <absolute>
 0000:00000000       ___enclave_config          00000000     <absolute>
 0000:00000000       ___guard_check_icall_a64n_fptr 00000000     <absolute>
 0000:00000000       ___guard_eh_cont_count     00000000     <absolute>
 0000:00000000       ___guard_eh_cont_table     00000000     <absolute>
 0000:00000000       ___guard_fids_count        00000000     <absolute>
 0000:00000000       ___guard_fids_table        00000000     <absolute>
 0000:00000000       ___guard_iat_count         00000000     <absolute>
 0000:00000000       ___guard_iat_table         00000000     <absolute>
 0000:00000000       ___guard_longjmp_count     00000000     <absolute>
 0000:00000000       ___guard_longjmp_table     00000000     <absolute>
 0000:00000000       ___hybrid_auxiliary_delayload_iat 00000000     <absolute>
 0000:00000000       ___hybrid_auxiliary_delayload_iat_copy 00000000     <absolute>
 0000:00000000       ___hybrid_auxiliary_iat    00000000     <absolute>
 0000:00000000       ___hybrid_auxiliary_iat_copy 00000000     <absolute>
 0000:00000000       ___hybrid_code_map         00000000     <absolute>
 0000:00000000       ___hybrid_code_map_count   00000000     <absolute>
 0000:00000000       ___hybrid_image_info_bitfield 00000000     <absolute>
 0000:00000000       ___x64_code_ranges_to_entry_points 00000000     <absolute>
 0000:00000000       ___x64_code_ranges_to_entry_points_count 00000000     <absolute>
 0000:00000000       __except_list              00000000     <absolute>
 0000:0000002c       __tls_array                0000002c     <absolute>
 0000:00000100       ___guard_flags             00000100     <absolute>
 0000:000002b4       ___safe_se_handler_count   000002b4     <absolute>
 0000:00000000       ___ImageBase               00400000     <linker-defined>
 0001:00000320       ?memchr@@YAPAXPAXHI@Z      00401320 f i archive.obj
 0001:00000340       ?Reset@RarTime@@QAEXXZ     00401340 f i archive.obj
 0001:00000350       ?CmpName@FileHeader@@QAE_NPBD@Z 00401350 f i archive.obj
 0001:000003a0       ?EnableShowProgress@ComprDataIO@@QAEX_N@Z 004013a0 f i archive.obj
 0001:000003b0       ?SetPackedSizeToRead@ComprDataIO@@QAEX_J@Z 004013b0 f i archive.obj
 0001:000003d0       ?SetTestMode@ComprDataIO@@QAEX_N@Z 004013d0 f i archive.obj
 0001:000003e0       ?GetHeaderType@Archive@@QAEHXZ 004013e0 f i archive.obj
 0001:000003f0       ?SetDestSize@Unpack@@QAEX_J@Z 004013f0 f i archive.obj
 0001:00000410       ?GetComment@Archive@@QAE_NAAV?$Array@E@@@Z 00401410 f   archive.obj
 0001:000007b0       ?ReadCommentData@Archive@@QAEHAAV?$Array@E@@@Z 004017b0 f   archive.obj
 0001:000008a0       ?ViewComment@Archive@@QAEXXZ 004018a0 f   archive.obj
 0001:00000940       ??0Archive@@QAE@PAVRAROptions@@@Z 00401940 f   archive.obj
 0001:00000b20       ??_EArchive@@UAEPAXI@Z     00401b20 f i * CIL library *:* CIL module *
 0001:00000b20       ??_GArchive@@UAEPAXI@Z     00401b20 f i archive.obj
 0001:00000b70       ??1Archive@@UAE@XZ         00401b70 f i archive.obj
 0001:00000ba0       ??0FileHeader@@QAE@XZ      00401ba0 f i archive.obj
 0001:00000be0       ??1FileHeader@@QAE@XZ      00401be0 f i archive.obj
 0001:00000bf0       ?CheckArc@Archive@@QAEX_N@Z 00401bf0 f   archive.obj
 0001:00000c30       ?WCheckOpen@Archive@@QAE_NPADPA_W@Z 00401c30 f   archive.obj
 0001:00000c90       ?IsSignature@Archive@@AAE_NPAE@Z 00401c90 f   archive.obj
 0001:00000d00       ?IsArchive@Archive@@QAE_N_N@Z 00401d00 f   archive.obj
 0001:00001090       ?SeekToNext@Archive@@QAEXXZ 00402090 f   archive.obj
 0001:000010b0       ??0?$Array@E@@QAE@XZ       004020b0 f i archive.obj
 0001:000010d0       ??1?$Array@E@@QAE@XZ       004020d0 f i archive.obj
 0001:000010e0       ?CleanData@?$Array@E@@QAEXXZ 004020e0 f i archive.obj
 0001:00001100       ??A?$Array@E@@QAEAAEH@Z    00402100 f i archive.obj
 0001:00001110       ?Size@?$Array@E@@QAEHXZ    00402110 f i archive.obj
 0001:00001120       ?Alloc@?$Array@E@@QAEXH@Z  00402120 f i archive.obj
 0001:00001140       ?Reset@?$Array@E@@QAEXXZ   00402140 f i archive.obj
 0001:00001170       ??0?$Array@_W@@QAE@H@Z     00402170 f i archive.obj
 0001:000011b0       ??1?$Array@_W@@QAE@XZ      004021b0 f i archive.obj
 0001:000011c0       ??A?$Array@_W@@QAEAA_WH@Z  004021c0 f i archive.obj
 0001:000011d0       ??0?$Array@D@@QAE@H@Z      004021d0 f i archive.obj
 0001:00001200       ??1?$Array@D@@QAE@XZ       00402200 f i archive.obj
 0001:00001210       ??A?$Array@D@@QAEAADH@Z    00402210 f i archive.obj
 0001:00001220       ?Size@?$Array@D@@QAEHXZ    00402220 f i archive.obj
 0001:00001230       ?Add@?$Array@E@@QAEXH@Z    00402230 f i archive.obj
 0001:00001280       ?charnext@@YAPADPBD@Z      00402280 f i arcread.obj
 0001:000012a0       ?GetLocal@RarTime@@QAEXPAURarLocalTime@@@Z 004022a0 f i arcread.obj
 0001:000012c0       ?SetLocal@RarTime@@QAEXPAURarLocalTime@@@Z 004022c0 f i arcread.obj
 0001:000012e0       ?SetSubHeader@ComprDataIO@@QAEXPAUFileHeader@@PA_J@Z 004022e0 f i arcread.obj
 0001:00001300       ?Alarm@@YAXXZ              00402300 f i arcread.obj
 0001:00001310       ?GetPassword@@YA_NW4PASSWORD_TYPE@@PBDPADH@Z 00402310 f i arcread.obj
 0001:00001320       ?Log@@YAXPBD000@Z          00402320 f i arcread.obj
 0001:00001330       ?Size@RawRead@@QAEHXZ      00402330 f i arcread.obj
 0001:00001340       ?PaddedSize@RawRead@@QAEHXZ 00402340 f i arcread.obj
 0001:00001350       ?SetCrypt@RawRead@@QAEXPAVCryptData@@@Z 00402350 f i arcread.obj
 0001:00001360       ?SearchBlock@Archive@@QAEHH@Z 00402360 f   arcread.obj
 0001:000013b0       ?SearchSubBlock@Archive@@QAEHPBD@Z 004023b0 f   arcread.obj
 0001:00001420       ?ReadHeader@Archive@@QAEHXZ 00402420 f   arcread.obj
 0001:000021e0       ??1RawRead@@QAE@XZ         004031e0 f i arcread.obj
 0001:000021f0       ?ReadOldHeader@Archive@@AAEHXZ 004031f0 f   arcread.obj
 0001:00002420       ?ConvertNameCase@Archive@@AAEXPAD@Z 00403420 f   arcread.obj
 0001:00002480       ?ConvertNameCase@Archive@@AAEXPA_W@Z 00403480 f   arcread.obj
 0001:000024c0       ?IsArcDir@Archive@@QAE_NXZ 004034c0 f   arcread.obj
 0001:000024d0       ?IsArcLabel@Archive@@QAE_NXZ 004034d0 f   arcread.obj
 0001:000024f0       ?ConvertAttributes@Archive@@QAEXXZ 004034f0 f   arcread.obj
 0001:00002560       ?ConvertUnknownHeader@Archive@@AAEXXZ 00403560 f   arcread.obj
 0001:00002620       ?ReadSubData@Archive@@QAE_NPAV?$Array@E@@PAVFile@@@Z 00403620 f   arcread.obj
 0001:00002840       ?strchr@@YAPADQADH@Z       00403840 f i cmddata.obj
 0001:00002850       ?strpbrk@@YAPADQADQBD@Z    00403850 f i cmddata.obj
 0001:00002860       ___local_stdio_printf_options 00403860 f i cmddata.obj
 0001:00002870       __vsnprintf_l              00403870 f i cmddata.obj
 0001:000028b0       __vsprintf_l               004038b0 f i cmddata.obj
 0001:000028d0       _sprintf                   004038d0 f i cmddata.obj
 0001:000028f0       ?IsSet@RarTime@@QAE_NXZ    004038f0 f i cmddata.obj
 0001:00002900       ?ItemsCount@StringList@@QAEIXZ 00403900 f i cmddata.obj
 0001:00002910       ??0CommandData@@QAE@XZ     00403910 f   cmddata.obj
 0001:00002990       ??1CommandData@@QAE@XZ     00403990 f   cmddata.obj
 0001:000029a0       ?Init@CommandData@@QAEXXZ  004039a0 f   cmddata.obj
 0001:00002a50       ?Close@CommandData@@QAEXXZ 00403a50 f   cmddata.obj
 0001:00002b10       ??_GStringList@@QAEPAXI@Z  00403b10 f i cmddata.obj
 0001:00002b30       ?ParseArg@CommandData@@QAEXPADPA_W@Z 00403b30 f   cmddata.obj
 0001:00002e20       ??0FindData@@QAE@XZ        00403e20 f i cmddata.obj
 0001:00002e50       ?ParseDone@CommandData@@QAEXXZ 00403e50 f   cmddata.obj
 0001:00002ed0       ?ProcessSwitch@CommandData@@AAEXPAD@Z 00403ed0 f   cmddata.obj
 0001:000042e0       ?BadSwitch@CommandData@@AAEXPAD@Z 004052e0 f   cmddata.obj
 0001:00004310       ?OutHelp@CommandData@@QAEXXZ 00405310 f   cmddata.obj
 0001:00004320       ?ExclCheck@CommandData@@QAE_NPAD_N@Z 00405320 f   cmddata.obj
 0001:00004390       ?TimeCheck@CommandData@@QAE_NAAVRarTime@@@Z 00405390 f   cmddata.obj
 0001:000043e0       ?IsProcessFile@CommandData@@QAEHAAUFileHeader@@PA_NH@Z 004053e0 f   cmddata.obj
 0001:000045f0       ?AddArcName@CommandData@@QAEXPADPA_W@Z 004055f0 f   cmddata.obj
 0001:00004610       ?GetArcName@CommandData@@QAE_NPADPA_WH@Z 00405610 f   cmddata.obj
 0001:00004630       ?IsSwitch@CommandData@@QAE_NH@Z 00405630 f   cmddata.obj
 0001:00004650       ?GetExclAttr@CommandData@@AAEIPAD@Z 00405650 f   cmddata.obj
 0001:00004700       ?CheckWinSize@CommandData@@QAE_NXZ 00405700 f   cmddata.obj
 0001:00004730       ?Reset@?$Array@_J@@QAEXXZ  00405730 f i cmddata.obj
 0001:00004760       ?Push@?$Array@_J@@QAEX_J@Z 00405760 f i cmddata.obj
 0001:00004790       ??A?$Array@_J@@QAEAA_JH@Z  00405790 f i cmddata.obj
 0001:000047a0       ?Size@?$Array@_J@@QAEHXZ   004057a0 f i cmddata.obj
 0001:000047b0       ?Add@?$Array@_J@@QAEXH@Z   004057b0 f i cmddata.obj
 0001:00004800       _vsprintf                  00405800 f i consio.obj
 0001:00004820       ?InitLogOptions@@YAXPAD@Z  00405820 f   consio.obj
 0001:00004840       ?Log@@YAXPBD0ZZ            00405840 f   consio.obj
 0001:00004870       ?InitConsoleOptions@@YAXW4MESSAGE_TYPE@@_N@Z 00405870 f   consio.obj
 0001:00004880       ?mprintf@@YAXPBDZZ         00405880 f   consio.obj
 0001:00004890       ?eprintf@@YAXPBDZZ         00405890 f   consio.obj
 0001:000048a0       ?KbdAnsi@@YAHPADH@Z        004058a0 f   consio.obj
 0001:00004920       ?OutComment@@YAXPADH@Z     00405920 f   consio.obj
 0001:000049e0       ?InitCRC@@YAXXZ            004059e0 f   crc.obj
 0001:00004a90       ?CRC@@YAIIPAXI@Z           00405a90 f   crc.obj
 0001:00004b90       ?OldCRC@@YAGGPAXI@Z        00405b90 f   crc.obj
 0001:00004bc0       ??0CryptKeyCacheItem@@QAE@XZ 00405bc0 f i crypt.obj
 0001:00004bd0       ??1CryptKeyCacheItem@@QAE@XZ 00405bd0 f i crypt.obj
 0001:00004bf0       ??0CryptData@@QAE@XZ       00405bf0 f   crypt.obj
 0001:00004c00       ?DecryptBlock@CryptData@@QAEXPAEH@Z 00405c00 f   crypt.obj
 0001:00004c20       ?EncryptBlock20@CryptData@@QAEXPAE@Z 00405c20 f   crypt.obj
 0001:00004d80       ?DecryptBlock20@CryptData@@QAEXPAE@Z 00405d80 f   crypt.obj
 0001:00004ee0       ?UpdKeys@CryptData@@AAEXPAE@Z 00405ee0 f   crypt.obj
 0001:00004f90       ?Swap@CryptData@@AAEXPAE0@Z 00405f90 f   crypt.obj
 0001:00004fb0       ?SetCryptKeys@CryptData@@QAEXPADPAE_N2@Z 00405fb0 f   crypt.obj
 0001:00005410       ?SetOldKeys@CryptData@@AAEXPAD@Z 00406410 f   crypt.obj
 0001:00005500       ?SetCmt13Encryption@CryptData@@QAEXXZ 00406500 f   crypt.obj
 0001:00005520       ?Crypt@CryptData@@QAEXPAEIH@Z 00406520 f   crypt.obj
 0001:00005550       ?Encode13@CryptData@@AAEXPAEI@Z 00406550 f   crypt.obj
 0001:000055a0       ?Decode13@CryptData@@AAEXPAEI@Z 004065a0 f   crypt.obj
 0001:000055f0       ?Crypt15@CryptData@@AAEXPAEI@Z 004065f0 f   crypt.obj
 0001:00005680       ??0EncodeFileName@@QAE@XZ  00406680 f   encname.obj
 0001:000056a0       ?Decode@EncodeFileName@@QAEXPADPAEHPA_WH@Z 004066a0 f   encname.obj
 0001:00005860       ??0ErrorHandler@@QAE@XZ    00406860 f   errhnd.obj
 0001:00005870       ?Clean@ErrorHandler@@QAEXXZ 00406870 f   errhnd.obj
 0001:000058a0       ?MemoryError@ErrorHandler@@QAEXXZ 004068a0 f   errhnd.obj
 0001:000058b0       ?CloseError@ErrorHandler@@QAEXPBD@Z 004068b0 f   errhnd.obj
 0001:000058c0       ?ReadError@ErrorHandler@@QAEXPBD@Z 004068c0 f   errhnd.obj
 0001:000058d0       ?AskRepeatRead@ErrorHandler@@QAE_NPBD@Z 004068d0 f   errhnd.obj
 0001:000058e0       ?WriteError@ErrorHandler@@QAEXPBD0@Z 004068e0 f   errhnd.obj
 0001:000058f0       ?WriteErrorFAT@ErrorHandler@@QAEXPBD@Z 004068f0 f   errhnd.obj
 0001:00005900       ?AskRepeatWrite@ErrorHandler@@QAE_NPBD@Z 00406900 f   errhnd.obj
 0001:00005910       ?SeekError@ErrorHandler@@QAEXPBD@Z 00406910 f   errhnd.obj
 0001:00005920       ?MemoryErrorMsg@ErrorHandler@@QAEXXZ 00406920 f   errhnd.obj
 0001:00005930       ?OpenErrorMsg@ErrorHandler@@QAEXPBD@Z 00406930 f   errhnd.obj
 0001:00005940       ?OpenErrorMsg@ErrorHandler@@QAEXPBD0@Z 00406940 f   errhnd.obj
 0001:00005950       ?CreateErrorMsg@ErrorHandler@@QAEXPBD@Z 00406950 f   errhnd.obj
 0001:00005960       ?CreateErrorMsg@ErrorHandler@@QAEXPBD0@Z 00406960 f   errhnd.obj
 0001:00005970       ?Exit@ErrorHandler@@QAEXH@Z 00406970 f   errhnd.obj
 0001:00005980       ?SetErrorCode@ErrorHandler@@QAEXH@Z 00406980 f   errhnd.obj
 0001:000059e0       ?ProcessSignal@@YGHK@Z     004069e0 f   errhnd.obj
 0001:00005a10       ?SetSignalHandlers@ErrorHandler@@QAEX_N@Z 00406a10 f   errhnd.obj
 0001:00005a30       ?Throw@ErrorHandler@@QAEXH@Z 00406a30 f   errhnd.obj
 0001:00005a70       ?SysErrMsg@ErrorHandler@@QAEXXZ 00406a70 f   errhnd.obj
 0001:00005a80       ?GetHandle@File@@QAEPAXXZ  00406a80 f i extinfo.obj
 0001:00005a90       ?ExtractACL@@YAXAAVArchive@@PADPA_W@Z 00406a90 f   extinfo.obj
 0001:00005c50       ?ExtractACLNew@@YAXAAVArchive@@PADPA_W@Z 00406c50 f   extinfo.obj
 0001:00005dd0       ?ExtractStreams@@YAXAAVArchive@@PADPA_W@Z 00406dd0 f   extinfo.obj
 0001:00006120       ?ExtractStreamsNew@@YAXAAVArchive@@PADPA_W@Z 00407120 f   extinfo.obj
 0001:00006380       ?SetExtraInfo@@YAXPAVCommandData@@AAVArchive@@PADPA_W@Z 00407380 f   extinfo.obj
 0001:000063d0       ?SetExtraInfoNew@@YAXPAVCommandData@@AAVArchive@@PADPA_W@Z 004073d0 f   extinfo.obj
 0001:00006480       ??0?$Array@E@@QAE@H@Z      00407480 f i extinfo.obj
 0001:000064b0       ?GetErrorCount@ErrorHandler@@QAEHXZ 004074b0 f i extract.obj
 0001:000064c0       ?IsOpened@File@@QAE_NXZ    004074c0 f i extract.obj
 0001:000064d0       ?SetAllowDelete@File@@QAEX_N@Z 004074d0 f i extract.obj
 0001:000064e0       ?SetSkipUnpCRC@ComprDataIO@@QAEX_N@Z 004074e0 f i extract.obj
 0001:000064f0       ?SetCurrentCommand@ComprDataIO@@QAEXD@Z 004074f0 f i extract.obj
 0001:00006500       ??0CmdExtract@@QAE@XZ      00407500 f   extract.obj
 0001:00006590       ??1CmdExtract@@QAE@XZ      00407590 f   extract.obj
 0001:000065d0       ??_GUnpack@@QAEPAXI@Z      004075d0 f i extract.obj
 0001:000065f0       ?DoExtract@CmdExtract@@QAEXPAVCommandData@@PAVUncompressedArchive@@@Z 004075f0 f   extract.obj
 0001:00006760       ?ExtractArchiveInit@CmdExtract@@QAEXPAVCommandData@@AAVArchive@@@Z 00407760 f   extract.obj
 0001:000067f0       ?ExtractArchive@CmdExtract@@QAE?AW4EXTRACT_ARC_CODE@@PAVCommandData@@PAVUncompressedArchive@@@Z 004077f0 f   extract.obj
 0001:00006a60       ?ExtractCurrentFile@CmdExtract@@QAE_NPAVCommandData@@AAVArchive@@HAA_N@Z 00407a60 f   extract.obj
 0001:00007ae0       ?UnstoreFile@CmdExtract@@SAXAAVComprDataIO@@_J@Z 00408ae0 f   extract.obj
 0001:00007ba0       ?Ask@@YAHPBD@Z             00408ba0 f i filcreat.obj
 0001:00007bb0       ?FileCreate@@YA_NPAVRAROptions@@PAVFile@@PADPA_WW4OVERWRITE_MODE@@PA_N_JI@Z 00408bb0 f   filcreat.obj
 0001:00007c50       ??0File@@QAE@XZ            00408c50 f   file.obj
 0001:00007c90       ??_EFile@@UAEPAXI@Z        00408c90 f i * CIL library *:* CIL module *
 0001:00007c90       ??_GFile@@UAEPAXI@Z        00408c90 f i file.obj
 0001:00007cc0       ??1File@@UAE@XZ            00408cc0 f   file.obj
 0001:00007cf0       ?Open@File@@QAE_NPBDPB_W_N2@Z 00408cf0 f   file.obj
 0001:00007e40       ?TOpen@File@@QAEXPBDPB_W@Z 00408e40 f   file.obj
 0001:00007e60       ?WOpen@File@@QAE_NPBDPB_W@Z 00408e60 f   file.obj
 0001:00007e80       ?Create@File@@QAE_NPBDPB_W@Z 00408e80 f   file.obj
 0001:00007f40       ?AddFileToList@File@@AAEXPAX@Z 00408f40 f   file.obj
 0001:00007f70       ?TCreate@File@@QAEXPBDPB_W@Z 00408f70 f   file.obj
 0001:00007f90       ?WCreate@File@@QAE_NPBDPB_W@Z 00408f90 f   file.obj
 0001:00007fc0       ?Close@File@@QAE_NXZ       00408fc0 f   file.obj
 0001:00008040       ?Delete@File@@QAE_NXZ      00409040 f   file.obj
 0001:00008070       ?Write@File@@QAEXPBXH@Z    00409070 f   file.obj
 0001:00008160       ?Read@File@@QAEHPAXH@Z     00409160 f   file.obj
 0001:00008240       ?DirectRead@File@@QAEHPAXH@Z 00409240 f   file.obj
 0001:000082f0       ?Seek@File@@QAEX_JH@Z      004092f0 f   file.obj
 0001:00008310       ?RawSeek@File@@QAE_N_JH@Z  00409310 f   file.obj
 0001:00008390       ?Tell@File@@QAE_JXZ        00409390 f   file.obj
 0001:000083f0       ?Prealloc@File@@QAEX_J@Z   004093f0 f   file.obj
 0001:00008430       ?GetByte@File@@QAEEXZ      00409430 f   file.obj
 0001:00008450       ?PutByte@File@@QAEXE@Z     00409450 f   file.obj
 0001:00008470       ?Truncate@File@@QAE_NXZ    00409470 f   file.obj
 0001:00008480       ?SetOpenFileTime@File@@QAEXPAVRarTime@@00@Z 00409480 f   file.obj
 0001:00008530       ?SetOpenFileStat@File@@QAEXPAVRarTime@@00@Z 00409530 f   file.obj
 0001:00008550       ?SetCloseFileStat@File@@QAEXPAVRarTime@@0I@Z 00409550 f   file.obj
 0001:00008570       ?FileLength@File@@QAE_JXZ  00409570 f   file.obj
 0001:000085e0       ?SetHandleType@File@@QAEXW4FILE_HANDLETYPE@@@Z 004095e0 f   file.obj
 0001:000085f0       ?IsDevice@File@@QAE_NXZ    004095f0 f   file.obj
 0001:00008610       ?RemoveCreated@File@@SAXXZ 00409610 f   file.obj
 0001:00008660       ?MakeDir@@YA?AW4MKDIR_CODE@@PBDPB_WI@Z 00409660 f   filefn.obj
 0001:000086d0       ?CreatePath@@YAXPBDPB_W_N@Z 004096d0 f   filefn.obj
 0001:00008840       ?SetDirTime@@YAXPBDPAVRarTime@@11@Z 00409840 f   filefn.obj
 0001:00008920       ?IsRemovable@@YA_NPBD@Z    00409920 f   filefn.obj
 0001:00008980       ?GetFreeDisk@@YA_JPBD@Z    00409980 f   filefn.obj
 0001:00008ac0       ?FileExist@@YA_NPBDPB_W@Z  00409ac0 f   filefn.obj
 0001:00008b00       ?WildFileExist@@YA_NPBDPB_W@Z 00409b00 f   filefn.obj
 0001:00008bd0       ?IsDir@@YA_NI@Z            00409bd0 f   filefn.obj
 0001:00008be0       ?IsLink@@YA_NI@Z           00409be0 f   filefn.obj
 0001:00008bf0       ?PrepareToDelete@@YAXPBDPB_W@Z 00409bf0 f   filefn.obj
 0001:00008c00       ?GetFileAttr@@YAIPBDPB_W@Z 00409c00 f   filefn.obj
 0001:00008c30       ?SetFileAttr@@YA_NPBDPB_WI@Z 00409c30 f   filefn.obj
 0001:00008c80       ?ConvertNameToFull@@YAXPBDPAD@Z 00409c80 f   filefn.obj
 0001:00008d10       ?CalcFileCRC@@YAIPAVFile@@_J@Z 00409d10 f   filefn.obj
 0001:00008e20       ?DelFile@@YA_NPBDPB_W@Z    00409e20 f   filefn.obj
 0001:00008e30       ?ReadTextFile@@YA_NPADPAVStringList@@_N2222@Z 00409e30 f   filestr.obj
 0001:00009180       ??0?$Array@D@@QAE@XZ       0040a180 f i filestr.obj
 0001:000091a0       ?Add@?$Array@D@@QAEXH@Z    0040a1a0 f i filestr.obj
 0001:000091f0       ?CleanData@?$Array@D@@QAEXXZ 0040a1f0 f i filestr.obj
 0001:00009210       ??0FindFile@@QAE@XZ        0040a210 f   find.obj
 0001:00009240       ??1FindFile@@QAE@XZ        0040a240 f   find.obj
 0001:00009260       ?SetMask@FindFile@@QAEXPBD@Z 0040a260 f   find.obj
 0001:000092b0       ?SetMaskW@FindFile@@QAEXPB_W@Z 0040a2b0 f   find.obj
 0001:000092c0       ?Next@FindFile@@QAE_NPAUFindData@@_N@Z 0040a2c0 f   find.obj
 0001:000093c0       ?FastFind@FindFile@@SA_NPBDPB_WPAUFindData@@_N@Z 0040a3c0 f   find.obj
 0001:00009420       ?Win32Find@FindFile@@CAPAXPAXPBDPB_WPAUFindData@@@Z 0040a420 f   find.obj
 0001:00009800       ?addbits@BitInput@@QAEXH@Z 0040a800 f i getbits.obj
 0001:00009820       ?getbits@BitInput@@QAEIXZ  0040a820 f i getbits.obj
 0001:00009850       ??0BitInput@@QAE@XZ        0040a850 f   getbits.obj
 0001:00009870       ??1BitInput@@QAE@XZ        0040a870 f   getbits.obj
 0001:00009880       ?faddbits@BitInput@@QAEXH@Z 0040a880 f   getbits.obj
 0001:000098a0       ?fgetbits@BitInput@@QAEIXZ 0040a8a0 f   getbits.obj
 0001:000098d0       ?atoil@@YA_JPAD@Z          0040a8d0 f   int64.obj
 0001:00009940       ?WinNT@@YAHXZ              0040a940 f   isnt.obj
 0001:000099b0       ?toupperc@@YAIE@Z          0040a9b0 f i match.obj
 0001:000099c0       ?touppercw@@YAII@Z         0040a9c0 f i match.obj
 0001:000099d0       ?CmpName@@YA_NPAD0H@Z      0040a9d0 f   match.obj
 0001:00009b20       ?CmpName@@YA_NPA_W0H@Z     0040ab20 f   match.obj
 0001:00009ec0       ?stricompc@@YAHPBD0@Z      0040aec0 f   match.obj
 0001:00009ed0       ?stricompcw@@YAHPB_W0@Z    0040aed0 f   match.obj
 0001:00009ee0       ?strnicompc@@YAHPBD0H@Z    0040aee0 f   match.obj
 0001:00009ef0       ?strnicompcw@@YAHPB_W0H@Z  0040aef0 f   match.obj
 0001:00009f00       ??0RAROptions@@QAE@XZ      0040af00 f   options.obj
 0001:00009f30       ??1RAROptions@@QAE@XZ      0040af30 f   options.obj
 0001:00009f50       ?Init@RAROptions@@QAEXXZ   0040af50 f   options.obj
 0001:00009fa0       ??0?$Array@_J@@QAE@XZ      0040afa0 f i options.obj
 0001:00009fc0       ??1?$Array@_J@@QAE@XZ      0040afc0 f i options.obj
 0001:00009fd0       ?CleanData@?$Array@_J@@QAEXXZ 0040afd0 f i options.obj
 0001:00009ff0       ?strchrd@@YAPADPBDH@Z      0040aff0 f i pathfn.obj
 0001:0000a020       ?strrchrd@@YAPADPBDH@Z     0040b020 f i pathfn.obj
 0001:0000a040       ?PointToName@@YAPADPBD@Z   0040b040 f   pathfn.obj
 0001:0000a0c0       ?PointToName@@YAPA_WPB_W@Z 0040b0c0 f   pathfn.obj
 0001:0000a110       ?PointToLastChar@@YAPADPBD@Z 0040b110 f   pathfn.obj
 0001:0000a150       ?ConvertPath@@YAPADPBDPAD@Z 0040b150 f   pathfn.obj
 0001:0000a270       ?SetExt@@YAXPADPBD@Z       0040b270 f   pathfn.obj
 0001:0000a2e0       ?SetExt@@YAXPA_WPB_W@Z     0040b2e0 f   pathfn.obj
 0001:0000a300       ?GetExt@@YAPADPBD@Z        0040b300 f   pathfn.obj
 0001:0000a330       ?GetExt@@YAPA_WPB_W@Z      0040b330 f   pathfn.obj
 0001:0000a350       ?CmpExt@@YA_NPBD0@Z        0040b350 f   pathfn.obj
 0001:0000a370       ?IsWildcard@@YA_NPBDPB_W@Z 0040b370 f   pathfn.obj
 0001:0000a3b0       ?IsPathDiv@@YA_NH@Z        0040b3b0 f   pathfn.obj
 0001:0000a3c0       ?IsDriveDiv@@YA_NH@Z       0040b3c0 f   pathfn.obj
 0001:0000a3d0       ?AddEndSlash@@YAXPAD@Z     0040b3d0 f   pathfn.obj
 0001:0000a400       ?AddEndSlash@@YAXPA_W@Z    0040b400 f   pathfn.obj
 0001:0000a430       ?GetFilePath@@YAXPBDPAD@Z  0040b430 f   pathfn.obj
 0001:0000a460       ?GetFilePath@@YAXPB_WPA_W@Z 0040b460 f   pathfn.obj
 0001:0000a490       ?RemoveNameFromPath@@YAXPAD@Z 0040b490 f   pathfn.obj
 0001:0000a4d0       ?EnumConfigPaths@@YA_NPADH@Z 0040b4d0 f   pathfn.obj
 0001:0000a500       ?GetConfigName@@YAXPBDPAD@Z 0040b500 f   pathfn.obj
 0001:0000a580       ?GetVolNumPart@@YAPADPAD@Z 0040b580 f   pathfn.obj
 0001:0000a650       ?NextVolumeName@@YAXPAD_N@Z 0040b650 f   pathfn.obj
 0001:0000a7a0       ?IsNameUsable@@YA_NPBD@Z   0040b7a0 f   pathfn.obj
 0001:0000a7e0       ?MakeNameUsable@@YAXPAD_N@Z 0040b7e0 f   pathfn.obj
 0001:0000a850       ?IsFullPath@@YA_NPBD@Z     0040b850 f   pathfn.obj
 0001:0000a8d0       ?IsDiskLetter@@YA_NPBD@Z   0040b8d0 f   pathfn.obj
 0001:0000a900       ?GetPathRoot@@YAXPBDPAD@Z  0040b900 f   pathfn.obj
 0001:0000a990       ?ParseVersionFileName@@YAHPADPA_W_N@Z 0040b990 f   pathfn.obj
 0001:0000aa20       ?VolNameToFirstName@@YAPADPBDPAD_N@Z 0040ba20 f   pathfn.obj
 0001:0000ac80       ?St@@YAPBDPBD@Z            0040bc80 f   rarresource.obj
 0001:0000ac90       ?InitBitInput@BitInput@@QAEXXZ 0040bc90 f i rarvm.obj
 0001:0000aca0       ??0RarVM@@QAE@XZ           0040bca0 f   rarvm.obj
 0001:0000acc0       ??1RarVM@@QAE@XZ           0040bcc0 f   rarvm.obj
 0001:0000ace0       ?Init@RarVM@@QAEXXZ        0040bce0 f   rarvm.obj
 0001:0000ad00       ?SetValue@RarVM@@AAEX_NPAII@Z 0040bd00 f i rarvm.obj
 0001:0000ad10       ?SetValue@RarVM@@QAEXPAII@Z 0040bd10 f   rarvm.obj
 0001:0000ad20       ?GetOperand@RarVM@@AAEPAIPAUVM_PreparedOperand@@@Z 0040bd20 f i rarvm.obj
 0001:0000ad50       ?Execute@RarVM@@QAEXPAUVM_PreparedProgram@@@Z 0040bd50 f   rarvm.obj
 0001:0000ae90       ?ExecuteCode@RarVM@@AAE_NPAUVM_PreparedCommand@@H@Z 0040be90 f   rarvm.obj
 0001:0000b890       ?Prepare@RarVM@@QAEXPAEHPAUVM_PreparedProgram@@@Z 0040c890 f   rarvm.obj
 0001:0000bbc0       ?DecodeArg@RarVM@@AAEXAAUVM_PreparedOperand@@_N@Z 0040cbc0 f   rarvm.obj
 0001:0000bcc0       ?ReadData@RarVM@@SAIAAVBitInput@@@Z 0040ccc0 f   rarvm.obj
 0001:0000bd80       ?SetMemory@RarVM@@QAEXIPAEI@Z 0040cd80 f   rarvm.obj
 0001:0000bdc0       ?Optimize@RarVM@@AAEXPAUVM_PreparedProgram@@@Z 0040cdc0 f   rarvm.obj
 0001:0000bf10       ?IsStandardFilter@RarVM@@AAE?AW4VM_StandardFilters@@PAEH@Z 0040cf10 f   rarvm.obj
 0001:0000bff0       ?ExecuteStandardFilter@RarVM@@AAEXW4VM_StandardFilters@@@Z 0040cff0 f   rarvm.obj
 0001:0000c5d0       ?FilterItanium_GetBits@RarVM@@AAEIPAEHH@Z 0040d5d0 f   rarvm.obj
 0001:0000c630       ?FilterItanium_SetBits@RarVM@@AAEXPAEIHH@Z 0040d630 f   rarvm.obj
 0001:0000c6a0       ??A?$Array@UVM_PreparedCommand@@@@QAEAAUVM_PreparedCommand@@H@Z 0040d6a0 f i rarvm.obj
 0001:0000c6c0       ?Add@?$Array@UVM_PreparedCommand@@@@QAEXH@Z 0040d6c0 f i rarvm.obj
 0001:0000c710       ??0RawRead@@QAE@PAVFile@@@Z 0040d710 f   rawread.obj
 0001:0000c740       ?Read@RawRead@@QAEXH@Z     0040d740 f   rawread.obj
 0001:0000c7f0       ?Get@RawRead@@QAEXAAE@Z    0040d7f0 f   rawread.obj
 0001:0000c810       ?Get@RawRead@@QAEXAAG@Z    0040d810 f   rawread.obj
 0001:0000c840       ?Get@RawRead@@QAEXAAI@Z    0040d840 f   rawread.obj
 0001:0000c880       ?Get@RawRead@@QAEXPAEH@Z   0040d880 f   rawread.obj
 0001:0000c8b0       ?GetCRC@RawRead@@QAEI_N@Z  0040d8b0 f   rawread.obj
 0001:0000c8f0       ?GetRAROptions@Archive@@QAEPAVRAROptions@@XZ 0040d8f0 f i rdwrfn.obj
 0001:0000c900       ??0ComprDataIO@@QAE@XZ     0040d900 f   rdwrfn.obj
 0001:0000c930       ?Init@ComprDataIO@@QAEXXZ  0040d930 f   rdwrfn.obj
 0001:0000ca60       ?UnpRead@ComprDataIO@@QAEHPAEI@Z 0040da60 f   rdwrfn.obj
 0001:0000cc50       ?UnpWrite@ComprDataIO@@QAEXPAEI@Z 0040dc50 f   rdwrfn.obj
 0001:0000cd00       ?ShowUnpRead@ComprDataIO@@AAEX_J0@Z 0040dd00 f   rdwrfn.obj
 0001:0000cd80       ?ShowUnpWrite@ComprDataIO@@AAEXXZ 0040dd80 f   rdwrfn.obj
 0001:0000cd90       ?SetFiles@ComprDataIO@@QAEXPAVFile@@0@Z 0040dd90 f   rdwrfn.obj
 0001:0000cdc0       ?GetUnpackedData@ComprDataIO@@QAEXPAPAEPAI@Z 0040ddc0 f   rdwrfn.obj
 0001:0000cde0       ?SetEncryption@ComprDataIO@@QAEXHPADPAE_N@Z 0040dde0 f   rdwrfn.obj
 0001:0000ce20       ?SetCmt13Encryption@ComprDataIO@@QAEXXZ 0040de20 f   rdwrfn.obj
 0001:0000ce40       ?SetUnpackToMemory@ComprDataIO@@QAEXPAEI@Z 0040de40 f   rdwrfn.obj
 0001:0000ce60       ??0RecVolumes@@QAE@XZ      0040de60 f   recvol.obj
 0001:0000ced0       ??1RecVolumes@@QAE@XZ      0040ded0 f   recvol.obj
 0001:0000cf00       ?Restore@RecVolumes@@QAE_NPAVRAROptions@@PBDPB_W_N@Z 0040df00 f   recvol.obj
 0001:0000dc30       ?Xor128@@YAXPAEPBE1@Z      0040ec30 f i rijndael.obj
 0001:0000dc60       ?Xor128@@YAXPAEPBE111@Z    0040ec60 f i rijndael.obj
 0001:0000dc80       ?Copy128@@YAXPAEPBE@Z      0040ec80 f i rijndael.obj
 0001:0000dca0       ??0Rijndael@@QAE@XZ        0040eca0 f   rijndael.obj
 0001:0000dcc0       ?init@Rijndael@@QAEXW4Direction@1@PBEPAE@Z 0040ecc0 f   rijndael.obj
 0001:0000dd20       ?blockDecrypt@Rijndael@@QAEHPBEHPAE@Z 0040ed20 f   rijndael.obj
 0001:0000dda0       ?keySched@Rijndael@@AAEXQAY03E@Z 0040eda0 f   rijndael.obj
 0001:0000df40       ?keyEncToDec@Rijndael@@AAEXXZ 0040ef40 f   rijndael.obj
 0001:0000e120       ?decrypt@Rijndael@@AAEXQBEQAE@Z 0040f120 f   rijndael.obj
 0001:0000e4d0       ?GenerateTables@Rijndael@@AAEXXZ 0040f4d0 f   rijndael.obj
 0001:0000e7f0       ??0RSCoder@@QAE@H@Z        0040f7f0 f   rs.obj
 0001:0000e820       ?gfInit@RSCoder@@AAEXXZ    0040f820 f   rs.obj
 0001:0000e870       ?gfMult@RSCoder@@AAEHHH@Z  0040f870 f i rs.obj
 0001:0000e8a0       ?pnInit@RSCoder@@AAEXXZ    0040f8a0 f   rs.obj
 0001:0000e970       ?pnMult@RSCoder@@AAEXPAH00@Z 0040f970 f   rs.obj
 0001:0000ea20       ?Decode@RSCoder@@QAE_NPAEHPAHH@Z 0040fa20 f   rs.obj
 0001:0000f030       ??0SaveFilePos@@QAE@AAVFile@@@Z 00410030 f   savepos.obj
 0001:0000f060       ??1SaveFilePos@@QAE@XZ     00410060 f   savepos.obj
 0001:0000f0c0       ?strstr@@YAPADQADQBD@Z     004100c0 f i scantree.obj
 0001:0000f0d0       ??1ScanTree@@QAE@XZ        004100d0 f   scantree.obj
 0001:0000f110       ??_GFindFile@@QAEPAXI@Z    00410110 f i scantree.obj
 0001:0000f130       ?SHA1Transform@@YAXQAIQAE@Z 00410130 f   sha1.obj
 0001:00010170       ?hash_initial@@YAXPAUhash_context@@@Z 00411170 f   sha1.obj
 0001:000101b0       ?hash_process@@YAXPAUhash_context@@PAEI@Z 004111b0 f   sha1.obj
 0001:00010270       ?hash_final@@YAXPAUhash_context@@QAI@Z 00411270 f   sha1.obj
 0001:00010360       ?ToPercent@@YAH_J0@Z       00411360 f   smallfn.obj
 0001:000103b0       ?RARInitData@@YAXXZ        004113b0 f   smallfn.obj
 0001:000103c0       ?NullToEmpty@@YAPB_WPB_W@Z 004113c0 f   strfn.obj
 0001:000103d0       ?IntNameToExt@@YAPADPBD@Z  004113d0 f   strfn.obj
 0001:000103e0       ?ExtToInt@@YAXPBDPAD@Z     004113e0 f   strfn.obj
 0001:000103f0       ?IntToExt@@YAXPBDPAD@Z     004113f0 f   strfn.obj
 0001:00010400       ?strlower@@YAPADPAD@Z      00411400 f   strfn.obj
 0001:00010410       ?strupper@@YAPADPAD@Z      00411410 f   strfn.obj
 0001:00010420       ?stricomp@@YAHPBD0@Z       00411420 f   strfn.obj
 0001:000104d0       ?strnicomp@@YAHPBD0H@Z     004114d0 f   strfn.obj
 0001:00010540       ?RemoveLF@@YAPADPAD@Z      00411540 f   strfn.obj
 0001:00010580       ?loctolower@@YAIE@Z        00411580 f   strfn.obj
 0001:00010590       ?loctoupper@@YAIE@Z        00411590 f   strfn.obj
 0001:000105a0       ?LowAscii@@YA_NPBD@Z       004115a0 f   strfn.obj
 0001:000105c0       ?LowAscii@@YA_NPB_W@Z      004115c0 f   strfn.obj
 0001:000105f0       ??0StringList@@QAE@XZ      004115f0 f   strlist.obj
 0001:00010620       ??1StringList@@QAE@XZ      00411620 f   strlist.obj
 0001:00010640       ?Reset@StringList@@QAEXXZ  00411640 f   strlist.obj
 0001:00010670       ?AddString@StringList@@QAEIPBD@Z 00411670 f   strlist.obj
 0001:00010690       ?AddString@StringList@@QAEIPBDPB_W@Z 00411690 f   strlist.obj
 0001:00010730       ?GetString@StringList@@QAE_NPADPA_WH@Z 00411730 f   strlist.obj
 0001:00010790       ?GetString@StringList@@QAE_NPADPA_WHH@Z 00411790 f   strlist.obj
 0001:00010800       ?GetString@StringList@@QAEPADXZ 00411800 f   strlist.obj
 0001:00010820       ?GetString@StringList@@QAE_NPAPADPAPA_W@Z 00411820 f   strlist.obj
 0001:000108c0       ?Rewind@StringList@@QAEXXZ 004118c0 f   strlist.obj
 0001:000108e0       ?Search@StringList@@QAE_NPADPA_W_N@Z 004118e0 f   strlist.obj
 0001:00010940       ?SavePosition@StringList@@QAEXXZ 00411940 f   strlist.obj
 0001:00010980       ?RestorePosition@StringList@@QAEXXZ 00411980 f   strlist.obj
 0001:000109b0       ?Reset@?$Array@D@@QAEXXZ   004119b0 f i strlist.obj
 0001:000109e0       ??0?$Array@_W@@QAE@XZ      004119e0 f i strlist.obj
 0001:00010a00       ?Size@?$Array@_W@@QAEHXZ   00411a00 f i strlist.obj
 0001:00010a10       ?Add@?$Array@_W@@QAEXH@Z   00411a10 f i strlist.obj
 0001:00010a60       ?Reset@?$Array@_W@@QAEXXZ  00411a60 f i strlist.obj
 0001:00010a90       ??0?$Array@H@@QAE@XZ       00411a90 f i strlist.obj
 0001:00010ab0       ??1?$Array@H@@QAE@XZ       00411ab0 f i strlist.obj
 0001:00010ac0       ??A?$Array@H@@QAEAAHH@Z    00411ac0 f i strlist.obj
 0001:00010ad0       ?Size@?$Array@H@@QAEHXZ    00411ad0 f i strlist.obj
 0001:00010ae0       ?Add@?$Array@H@@QAEXH@Z    00411ae0 f i strlist.obj
 0001:00010b30       ?Reset@?$Array@H@@QAEXXZ   00411b30 f i strlist.obj
 0001:00010b60       ?CleanData@?$Array@_W@@QAEXXZ 00411b60 f i strlist.obj
 0001:00010b80       ?CleanData@?$Array@H@@QAEXXZ 00411b80 f i strlist.obj
 0001:00010ba0       ?InitSystemOptions@@YAXH@Z 00411ba0 f   system.obj
 0001:00010bb0       ?SetPriority@@YAXH@Z       00411bb0 f   system.obj
 0001:00010c10       ?Wait@@YAXXZ               00411c10 f   system.obj
 0001:00010c20       ??0RarTime@@QAE@XZ         00411c20 f   timefn.obj
 0001:00010c30       ??4RarTime@@QAEAAV0@AAU_FILETIME@@@Z 00411c30 f   timefn.obj
 0001:00010d00       ?GetWin32@RarTime@@QAEXPAU_FILETIME@@@Z 00411d00 f   timefn.obj
 0001:00010d90       ?GetRaw@RarTime@@AAE_JXZ   00411d90 f   timefn.obj
 0001:00010dc0       ?SetRaw@RarTime@@AAEX_J@Z  00411dc0 f   timefn.obj
 0001:00010df0       ??8RarTime@@QAE_NAAV0@@Z   00411df0 f   timefn.obj
 0001:00010e20       ??MRarTime@@QAE_NAAV0@@Z   00411e20 f   timefn.obj
 0001:00010e60       ??NRarTime@@QAE_NAAV0@@Z   00411e60 f   timefn.obj
 0001:00010e90       ??ORarTime@@QAE_NAAV0@@Z   00411e90 f   timefn.obj
 0001:00010ed0       ??PRarTime@@QAE_NAAV0@@Z   00411ed0 f   timefn.obj
 0001:00010f00       ?GetDos@RarTime@@QAEIXZ    00411f00 f   timefn.obj
 0001:00010f30       ?SetDos@RarTime@@QAEXI@Z   00411f30 f   timefn.obj
 0001:00010f90       ?SetIsoText@RarTime@@QAEXPAD@Z 00411f90 f   timefn.obj
 0001:00011060       ?SetAgeText@RarTime@@QAEXPAD@Z 00412060 f   timefn.obj
 0001:00011150       ?SetCurrentTime@RarTime@@QAEXXZ 00412150 f   timefn.obj
 0001:000111a0       ?IsLeapYear@@YA_NH@Z       004121a0 f   timefn.obj
 0001:000111f0       ?ExtractLink@@YAHAAVComprDataIO@@AAVArchive@@PADAAI_N@Z 004121f0 f   ulinks.obj
 0001:00011200       ?WideToChar@@YAXPB_WPADH@Z 00412200 f   unicode.obj
 0001:00011220       ?CharToWide@@YAXPBDPA_WH@Z 00412220 f   unicode.obj
 0001:00011240       ?WideToRaw@@YAPAEPB_WPAEH@Z 00412240 f   unicode.obj
 0001:000112c0       ?RawToWide@@YAPA_WPBEPA_WH@Z 004122c0 f   unicode.obj
 0001:00011310       ?strlenw@@YAHPB_W@Z        00412310 f   unicode.obj
 0001:00011330       ?strcpyw@@YAPA_WPA_WPB_W@Z 00412330 f   unicode.obj
 0001:00011350       ?strncpyw@@YAPA_WPA_WPB_WH@Z 00412350 f   unicode.obj
 0001:00011380       ?strcatw@@YAPA_WPA_WPB_W@Z 00412380 f   unicode.obj
 0001:000113a0       ?strcmpw@@YAHPB_W0@Z       004123a0 f   unicode.obj
 0001:00011400       ?stricmpw@@YAHPB_W0@Z      00412400 f   unicode.obj
 0001:00011460       ?strnicmpw_w2c@@YAHPB_W0H@Z 00412460 f i unicode.obj
 0001:00011520       ?strnicmpw@@YAHPB_W0H@Z    00412520 f   unicode.obj
 0001:00011530       ?strchrw@@YAPA_WPB_WH@Z    00412530 f   unicode.obj
 0001:00011560       ?strrchrw@@YAPA_WPB_WH@Z   00412560 f   unicode.obj
 0001:00011590       ?strpbrkw@@YAPA_WPB_W0@Z   00412590 f   unicode.obj
 0001:000115d0       ?strlowerw@@YAPA_WPA_W@Z   004125d0 f   unicode.obj
 0001:00011610       ?strupperw@@YAPA_WPA_W@Z   00412610 f   unicode.obj
 0001:00011650       ?toupperw@@YAHH@Z          00412650 f   unicode.obj
 0001:00011660       ?atoiw@@YAHPB_W@Z          00412660 f   unicode.obj
 0001:000116a0       ??0SupportDBCS@@QAE@XZ     004126a0 f   unicode.obj
 0001:000116b0       ?Init@SupportDBCS@@QAEXXZ  004126b0 f   unicode.obj
 0001:00011710       ?charnext@SupportDBCS@@QAEPADPBD@Z 00412710 f   unicode.obj
 0001:00011730       ?strchrd@SupportDBCS@@QAEPADPBDH@Z 00412730 f   unicode.obj
 0001:00011770       ?strrchrd@SupportDBCS@@QAEPADPBDH@Z 00412770 f   unicode.obj
 0001:000117b0       ??0VM_PreparedProgram@@QAE@XZ 004127b0 f i unpack.obj
 0001:000117e0       ?insertAt@RAR_MEM_BLK@@QAEXPAU1@@Z 004127e0 f i unpack.obj
 0001:00011800       ?remove@RAR_MEM_BLK@@QAEXXZ 00412800 f i unpack.obj
 0001:00011820       ??1SubAllocator@@QAE@XZ    00412820 f i unpack.obj
 0001:00011830       ?GetAllocatedMemory@SubAllocator@@QAEJXZ 00412830 f i unpack.obj
 0001:00011840       ?init@SEE2_CONTEXT@@QAEXH@Z 00412840 f i unpack.obj
 0001:00011860       ?getMean@SEE2_CONTEXT@@QAEIXZ 00412860 f i unpack.obj
 0001:00011880       ?update@SEE2_CONTEXT@@QAEXXZ 00412880 f i unpack.obj
 0001:000118b0       ?GetChar@Unpack@@QAEIXZ    004128b0 f i unpack.obj
 0001:000118d0       ?GetChar@RangeCoder@@QAEIXZ 004128d0 f i unpack.obj
 0001:00011900       ?InitDecoder@RangeCoder@@QAEXPAVUnpack@@@Z 00412900 f   unpack.obj
 0001:00011970       ?GetCurrentCount@RangeCoder@@QAEHXZ 00412970 f i unpack.obj
 0001:00011990       ?GetCurrentShiftCount@RangeCoder@@QAEII@Z 00412990 f i unpack.obj
 0001:000119b0       ?Decode@RangeCoder@@QAEXXZ 004129b0 f i unpack.obj
 0001:000119d0       ??0SubAllocator@@QAE@XZ    004129d0 f   unpack.obj
 0001:000119e0       ?Clean@SubAllocator@@QAEXXZ 004129e0 f   unpack.obj
 0001:000119f0       ?InsertNode@SubAllocator@@AAEXPAXH@Z 004129f0 f i unpack.obj
 0001:00011a10       ?RemoveNode@SubAllocator@@AAEPAXH@Z 00412a10 f i unpack.obj
 0001:00011a30       ?U2B@SubAllocator@@AAEIH@Z 00412a30 f i unpack.obj
 0001:00011a40       ?SplitBlock@SubAllocator@@AAEXPAXHH@Z 00412a40 f i unpack.obj
 0001:00011ab0       ?StopSubAllocator@SubAllocator@@QAEXXZ 00412ab0 f   unpack.obj
 0001:00011ad0       ?StartSubAllocator@SubAllocator@@QAE_NH@Z 00412ad0 f   unpack.obj
 0001:00011b40       ?InitSubAllocator@SubAllocator@@QAEXXZ 00412b40 f   unpack.obj
 0001:00011c50       ?GlueFreeBlocks@SubAllocator@@AAEXXZ 00412c50 f i unpack.obj
 0001:00011df0       ?AllocUnitsRare@SubAllocator@@AAEPAXH@Z 00412df0 f   unpack.obj
 0001:00011ec0       ?AllocUnits@SubAllocator@@QAEPAXH@Z 00412ec0 f i unpack.obj
 0001:00011f30       ?AllocContext@SubAllocator@@QAEPAXXZ 00412f30 f i unpack.obj
 0001:00011f70       ?ExpandUnits@SubAllocator@@QAEPAXPAXH@Z 00412f70 f i unpack.obj
 0001:00011fe0       ?ShrinkUnits@SubAllocator@@QAEPAXPAXHH@Z 00412fe0 f i unpack.obj
 0001:00012070       ?FreeUnits@SubAllocator@@QAEXPAXH@Z 00413070 f i unpack.obj
 0001:000120a0       ?createChild@PPM_CONTEXT@@QAEPAU1@PAVModelPPM@@PAUSTATE@@AAU3@@Z 004130a0 f i unpack.obj
 0001:00012120       ??0ModelPPM@@QAE@XZ        00413120 f   unpack.obj
 0001:00012150       ?RestartModelRare@ModelPPM@@AAEXXZ 00413150 f   unpack.obj
 0001:00012320       ?StartModelRare@ModelPPM@@AAEXH@Z 00413320 f   unpack.obj
 0001:00012420       ?rescale@PPM_CONTEXT@@QAEXPAVModelPPM@@@Z 00413420 f   unpack.obj
 0001:00012640       ?CreateSuccessors@ModelPPM@@AAEPAUPPM_CONTEXT@@_NPAUSTATE@@@Z 00413640 f i unpack.obj
 0001:00012810       ?UpdateModel@ModelPPM@@AAEXXZ 00413810 f i unpack.obj
 0001:00012b80       ?decodeBinSymbol@PPM_CONTEXT@@QAEXPAVModelPPM@@@Z 00413b80 f i unpack.obj
 0001:00012cd0       ?update1@PPM_CONTEXT@@QAEXPAVModelPPM@@PAUSTATE@@@Z 00413cd0 f i unpack.obj
 0001:00012d30       ?decodeSymbol1@PPM_CONTEXT@@QAE_NPAVModelPPM@@@Z 00413d30 f i unpack.obj
 0001:00012f00       ?update2@PPM_CONTEXT@@QAEXPAVModelPPM@@PAUSTATE@@@Z 00413f00 f i unpack.obj
 0001:00012f40       ?makeEscFreq2@PPM_CONTEXT@@QAEPAUSEE2_CONTEXT@@PAVModelPPM@@H@Z 00413f40 f i unpack.obj
 0001:00012ff0       ?decodeSymbol2@PPM_CONTEXT@@QAE_NPAVModelPPM@@@Z 00413ff0 f i unpack.obj
 0001:00013250       ?ClearMask@ModelPPM@@AAEXXZ 00414250 f i unpack.obj
 0001:00013270       ?DecodeInit@ModelPPM@@QAE_NPAVUnpack@@AAH@Z 00414270 f   unpack.obj
 0001:00013370       ?DecodeChar@ModelPPM@@QAEHXZ 00414370 f   unpack.obj
 0001:000136f0       ?Unpack15@Unpack@@AAEX_N@Z 004146f0 f   unpack.obj
 0001:000138e0       ?OldUnpWriteBuf@Unpack@@AAEXXZ 004148e0 f   unpack.obj
 0001:00013970       ?ShortLZ@Unpack@@AAEXXZ    00414970 f   unpack.obj
 0001:00013c20       ?LongLZ@Unpack@@AAEXXZ     00414c20 f   unpack.obj
 0001:00013ee0       ?HuffDecode@Unpack@@AAEXXZ 00414ee0 f   unpack.obj
 0001:00014150       ?GetFlagsBuf@Unpack@@AAEXXZ 00415150 f   unpack.obj
 0001:00014210       ?OldUnpInitData@Unpack@@AAEXH@Z 00415210 f   unpack.obj
 0001:000142c0       ?InitHuff@Unpack@@AAEXXZ   004152c0 f   unpack.obj
 0001:00014370       ?CorrHuff@Unpack@@AAEXPAI0@Z 00415370 f   unpack.obj
 0001:00014440       ?OldCopyString@Unpack@@AAEXII@Z 00415440 f   unpack.obj
 0001:000144a0       ?DecodeNum@Unpack@@AAEIHIPAI0@Z 004154a0 f   unpack.obj
 0001:00014500       ?CopyString20@Unpack@@AAEXII@Z 00415500 f   unpack.obj
 0001:00014610       ?Unpack20@Unpack@@AAEX_N@Z 00415610 f   unpack.obj
 0001:00014a60       ?ReadTables20@Unpack@@AAE_NXZ 00415a60 f   unpack.obj
 0001:00014e00       ?ReadLastTables@Unpack@@AAEXXZ 00415e00 f   unpack.obj
 0001:00014e60       ?UnpInitData20@Unpack@@AAEXH@Z 00415e60 f   unpack.obj
 0001:00014ec0       ?DecodeAudio@Unpack@@AAEEH@Z 00415ec0 f   unpack.obj
 0001:00015230       ??0Unpack@@QAE@PAVComprDataIO@@@Z 00416230 f   unpack.obj
 0001:000152e0       ??1ModelPPM@@QAE@XZ        004162e0 f i unpack.obj
 0001:000152f0       ??1Unpack@@QAE@XZ          004162f0 f   unpack.obj
 0001:00015360       ?Init@Unpack@@QAEXPAE@Z    00416360 f   unpack.obj
 0001:00015390       ?DoUnpack@Unpack@@QAEXH_N@Z 00416390 f   unpack.obj
 0001:000153f0       ?InsertOldDist@Unpack@@AAEXI@Z 004163f0 f i unpack.obj
 0001:00015430       ?InsertLastMatch@Unpack@@AAEXII@Z 00416430 f i unpack.obj
 0001:00015450       ?CopyString@Unpack@@AAEXII@Z 00416450 f   unpack.obj
 0001:00015500       ?DecodeNumber@Unpack@@AAEHPAUDecode@@@Z 00416500 f   unpack.obj
 0001:000155e0       ?Unpack29@Unpack@@AAEX_N@Z 004165e0 f   unpack.obj
 0001:00015ca0       ?ReadEndOfBlock@Unpack@@AAE_NXZ 00416ca0 f   unpack.obj
 0001:00015d30       ?ReadVMCode@Unpack@@AAE_NXZ 00416d30 f   unpack.obj
 0001:00015ed0       ?ReadVMCodePPM@Unpack@@AAE_NXZ 00416ed0 f   unpack.obj
 0001:00015fa0       ?AddVMCode@Unpack@@AAE_NIPAEH@Z 00416fa0 f   unpack.obj
 0001:00016480       ??0UnpackFilter@@QAE@XZ    00417480 f i unpack.obj
 0001:000164b0       ??1VM_PreparedProgram@@QAE@XZ 004174b0 f i unpack.obj
 0001:000164d0       ?UnpReadBuf@Unpack@@AAE_NXZ 004174d0 f   unpack.obj
 0001:00016570       ?UnpWriteBuf@Unpack@@AAEXXZ 00417570 f   unpack.obj
 0001:00016840       ??_GUnpackFilter@@QAEPAXI@Z 00417840 f i unpack.obj
 0001:00016870       ??1UnpackFilter@@QAE@XZ    00417870 f i unpack.obj
 0001:00016890       ?ExecuteCode@Unpack@@AAEXPAUVM_PreparedProgram@@@Z 00417890 f   unpack.obj
 0001:000168f0       ?UnpWriteArea@Unpack@@AAEXII@Z 004178f0 f   unpack.obj
 0001:00016960       ?UnpWriteData@Unpack@@AAEXPAEH@Z 00417960 f   unpack.obj
 0001:000169d0       ?ReadTables@Unpack@@AAE_NXZ 004179d0 f   unpack.obj
 0001:00016cc0       ?UnpInitData@Unpack@@AAEXH@Z 00417cc0 f   unpack.obj
 0001:00016d90       ?InitFilters@Unpack@@AAEXXZ 00417d90 f   unpack.obj
 0001:00016e70       ?MakeDecodeTables@Unpack@@AAEXPAEPAUDecode@@H@Z 00417e70 f   unpack.obj
 0001:00016fa0       ??0?$Array@UVM_PreparedCommand@@@@QAE@XZ 00417fa0 f i unpack.obj
 0001:00016fc0       ??1?$Array@UVM_PreparedCommand@@@@QAE@XZ 00417fc0 f i unpack.obj
 0001:00016fd0       ??0?$Array@PAUUnpackFilter@@@@QAE@XZ 00417fd0 f i unpack.obj
 0001:00016ff0       ??1?$Array@PAUUnpackFilter@@@@QAE@XZ 00417ff0 f i unpack.obj
 0001:00017000       ??A?$Array@PAUUnpackFilter@@@@QAEAAPAUUnpackFilter@@H@Z 00418000 f i unpack.obj
 0001:00017010       ?Size@?$Array@PAUUnpackFilter@@@@QAEHXZ 00418010 f i unpack.obj
 0001:00017020       ?Add@?$Array@PAUUnpackFilter@@@@QAEXH@Z 00418020 f i unpack.obj
 0001:00017070       ?Reset@?$Array@PAUUnpackFilter@@@@QAEXXZ 00418070 f i unpack.obj
 0001:000170a0       ??$_PPMD_SWAP@USTATE@@@@YAXAAUSTATE@@0@Z 004180a0 f i unpack.obj
 0001:000170c0       ?CleanData@?$Array@UVM_PreparedCommand@@@@QAEXXZ 004180c0 f i unpack.obj
 0001:000170e0       ?CleanData@?$Array@PAUUnpackFilter@@@@QAEXXZ 004180e0 f i unpack.obj
 0001:00017100       ?SetSilent@ErrorHandler@@QAEX_N@Z 00418100 f i unrar.obj
 0001:00017110       ?SetShutdown@ErrorHandler@@QAEX_N@Z 00418110 f i unrar.obj
 0001:00017120       ??0MemMappedFile@@QAE@PBDI@Z 00418120 f   unrar.obj
 0001:00017180       ??1MemMappedFile@@QAE@XZ   00418180 f   unrar.obj
 0001:000171a0       ??0UncompressedArchive@@QAE@PBD0@Z 004181a0 f   unrar.obj
 0001:000172e0       ?AllocNewFile@UncompressedArchive@@QAEPAVMemMappedFile@@PBDI@Z 004182e0 f   unrar.obj
 0001:00017380       ?MergeArchive@@YA_NAAVArchive@@PAVComprDataIO@@_ND@Z 00418380 f   volume.obj
 0001:000176b0       ??0CheckBox@@QAE@XZ        004186b0 f   checkbox.obj
 0001:000176d0       ??_ECheckBox@@UAEPAXI@Z    004186d0 f i * CIL library *:* CIL module *
 0001:000176d0       ??_GCheckBox@@UAEPAXI@Z    004186d0 f i checkbox.obj
 0001:00017700       ??1CheckBox@@UAE@XZ        00418700 f i checkbox.obj
 0001:00017710       ?RegisterBool@CheckBox@@QAEXPA_N@Z 00418710 f   checkbox.obj
 0001:00017720       ?Render@CheckBox@@UAEXHH_N0@Z 00418720 f   checkbox.obj
 0001:000179a0       ?MouseUp@CheckBox@@UAEXXZ  004189a0 f   checkbox.obj
 0001:000179c0       ?WindowW@WindowManager@@QAEHXZ 004189c0 f i core.obj
 0001:000179d0       ?WindowH@WindowManager@@QAEHXZ 004189d0 f i core.obj
 0001:000179e0       ??0InterfaceWindow@@QAE@PBD0_N@Z 004189e0 f   core.obj
 0001:00017a30       ??_EInterfaceWindow@@UAEPAXI@Z 00418a30 f i * CIL library *:* CIL module *
 0001:00017a30       ??_GInterfaceWindow@@UAEPAXI@Z 00418a30 f i core.obj
 0001:00017a60       ??1InterfaceWindow@@UAE@XZ 00418a60 f i core.obj
 0001:00017a70       ?Create@InterfaceWindow@@UAEXXZ 00418a70 f   core.obj
 0001:00017ad0       ?CreateValueControl@InterfaceWindow@@QAEXPBDHHHHHPAXMMMPAVInterfaceButton@@0_N3@Z 00418ad0 f   core.obj
 0001:00017d60       ?RemoveValueControl@InterfaceWindow@@QAEXPAD@Z 00418d60 f   core.obj
 0001:00017de0       ?Render@InterfaceWindow@@UAEX_N@Z 00418de0 f   core.obj
 0001:00018270       ?Centralise@InterfaceWindow@@QAEXXZ 00419270 f   core.obj
 0001:000182d0       ?RenderWindowShadow@InterfaceWindow@@SAXMMMMMM@Z 004192d0 f   core.obj
 0001:000183d0       ?Render@InterfaceButton@@UAEXHH_N0@Z 004193d0 f   core.obj
 0001:00018750       ??0CloseButton@@QAE@XZ     00419750 f   core.obj
 0001:00018780       ??_ECloseButton@@UAEPAXI@Z 00419780 f i * CIL library *:* CIL module *
 0001:00018780       ??_GCloseButton@@UAEPAXI@Z 00419780 f i core.obj
 0001:000187b0       ??1CloseButton@@UAE@XZ     004197b0 f i core.obj
 0001:000187c0       ??0InterfaceButton@@QAE@XZ 004197c0 f i core.obj
 0001:000187d0       ??1InterfaceButton@@UAE@XZ 004197d0 f i core.obj
 0001:000187e0       ??_EInterfaceButton@@UAEPAXI@Z 004197e0 f i * CIL library *:* CIL module *
 0001:000187e0       ??_GInterfaceButton@@UAEPAXI@Z 004197e0 f i core.obj
 0001:00018810       ?Render@CloseButton@@UAEXHH_N0@Z 00419810 f   core.obj
 0001:00018820       ?MouseUp@CloseButton@@UAEXXZ 00419820 f   core.obj
 0001:00018830       ??0TextButton@@QAE@XZ      00419830 f   core.obj
 0001:000188a0       ??_ETextButton@@UAEPAXI@Z  004198a0 f i * CIL library *:* CIL module *
 0001:000188a0       ??_GTextButton@@UAEPAXI@Z  004198a0 f i core.obj
 0001:000188d0       ??1TextButton@@UAE@XZ      004198d0 f   core.obj
 0001:00018900       ?Render@TextButton@@UAEXHH_N0@Z 00419900 f   core.obj
 0001:000189f0       ?SetRenderLanguage@TextButton@@QAEXPBD@Z 004199f0 f   core.obj
 0001:00018a30       ?Render@InvertedBox@@UAEXHH_N0@Z 00419a30 f   core.obj
 0001:00018bb0       __vsnprintf                00419bb0 f i core.obj
 0001:00018bd0       __snprintf                 00419bd0 f i core.obj
 0001:00018bf0       ?ceil@@YAMM@Z              00419bf0 f i drop_down_menu.obj
 0001:00018c20       ??0DropDownOptionData@@QAE@PBDH_N0@Z 00419c20 f   drop_down_menu.obj
 0001:00018c60       ??1DropDownOptionData@@QAE@XZ 00419c60 f   drop_down_menu.obj
 0001:00018c80       ??0DropDownWindow@@QAE@PBD0_N0@Z 00419c80 f   drop_down_menu.obj
 0001:00018cd0       ??_EDropDownWindow@@UAEPAXI@Z 00419cd0 f i * CIL library *:* CIL module *
 0001:00018cd0       ??_GDropDownWindow@@UAEPAXI@Z 00419cd0 f i drop_down_menu.obj
 0001:00018d00       ??1DropDownWindow@@UAE@XZ  00419d00 f   drop_down_menu.obj
 0001:00018d20       ?Update@DropDownWindow@@UAEXXZ 00419d20 f   drop_down_menu.obj
 0001:00018d40       ?CreateDropDownWindow@DropDownWindow@@SAPAV1@PBD0_N0@Z 00419d40 f   drop_down_menu.obj
 0001:00018dd0       ?RemoveDropDownWindow@DropDownWindow@@SAXXZ 00419dd0 f   drop_down_menu.obj
 0001:00018df0       ??0DropDownMenu@@QAE@_N@Z  00419df0 f   drop_down_menu.obj
 0001:00018e60       ??_EDropDownMenu@@UAEPAXI@Z 00419e60 f i * CIL library *:* CIL module *
 0001:00018e60       ??_GDropDownMenu@@UAEPAXI@Z 00419e60 f i drop_down_menu.obj
 0001:00018e90       ??1DropDownMenu@@UAE@XZ    00419e90 f   drop_down_menu.obj
 0001:00018f00       ?Empty@DropDownMenu@@QAEXXZ 00419f00 f   drop_down_menu.obj
 0001:00018f30       ?SetProperties@DropDownMenu@@UAEXPBDHHHH00_N1@Z 00419f30 f   drop_down_menu.obj
 0001:00018fd0       ?AddOption@DropDownMenu@@QAEXPBDH_N0@Z 00419fd0 f   drop_down_menu.obj
 0001:00019090       ?SelectOption@DropDownMenu@@UAEXH@Z 0041a090 f   drop_down_menu.obj
 0001:00019120       ?SelectOption2@DropDownMenu@@QAE_NPBD@Z 0041a120 f   drop_down_menu.obj
 0001:000191b0       ?GetSelectionValue@DropDownMenu@@QAEHXZ 0041a1b0 f   drop_down_menu.obj
 0001:000191f0       ?GetSelectionName@DropDownMenu@@QAEPBDXZ 0041a1f0 f   drop_down_menu.obj
 0001:00019220       ?RegisterInt@DropDownMenu@@QAEXPAH@Z 0041a220 f   drop_down_menu.obj
 0001:00019240       ?FindValue@DropDownMenu@@QAEHH@Z 0041a240 f   drop_down_menu.obj
 0001:000192a0       ?Render@DropDownMenu@@UAEXHH_N0@Z 0041a2a0 f   drop_down_menu.obj
 0001:00019370       ?CreateMenu@DropDownMenu@@QAEXXZ 0041a370 f   drop_down_menu.obj
 0001:000195b0       ?RemoveMenu@DropDownMenu@@QAEXXZ 0041a5b0 f   drop_down_menu.obj
 0001:000195c0       ?MouseUp@DropDownMenu@@UAEXXZ 0041a5c0 f   drop_down_menu.obj
 0001:000195e0       ?IsMenuVisible@DropDownMenu@@QAE_NXZ 0041a5e0 f   drop_down_menu.obj
 0001:000195f0       ??0DropDownMenuOption@@QAE@XZ 0041a5f0 f   drop_down_menu.obj
 0001:00019620       ??_EDropDownMenuOption@@UAEPAXI@Z 0041a620 f i * CIL library *:* CIL module *
 0001:00019620       ??_GDropDownMenuOption@@UAEPAXI@Z 0041a620 f i drop_down_menu.obj
 0001:00019650       ??1DropDownMenuOption@@UAE@XZ 0041a650 f   drop_down_menu.obj
 0001:00019680       ?SetParentMenu@DropDownMenuOption@@QAEXPAVEclWindow@@PAVDropDownMenu@@H@Z 0041a680 f   drop_down_menu.obj
 0001:00019700       ?Render@DropDownMenuOption@@UAEXHH_N0@Z 0041a700 f   drop_down_menu.obj
 0001:00019820       ?MouseUp@DropDownMenuOption@@UAEXXZ 0041a820 f   drop_down_menu.obj
 0001:00019860       ??0?$LList@PAVDropDownOptionData@@@@QAE@XZ 0041a860 f i drop_down_menu.obj
 0001:00019890       ??1?$LList@PAVDropDownOptionData@@@@QAE@XZ 0041a890 f i drop_down_menu.obj
 0001:000198a0       ?PutDataAtEnd@?$LList@PAVDropDownOptionData@@@@QAEXABQAVDropDownOptionData@@@Z 0041a8a0 f i drop_down_menu.obj
 0001:00019900       ?PutDataAtIndex@?$LList@PAVDropDownOptionData@@@@QAEXABQAVDropDownOptionData@@H@Z 0041a900 f i drop_down_menu.obj
 0001:000199a0       ?Size@?$LList@PAVDropDownOptionData@@@@QBEHXZ 0041a9a0 f i drop_down_menu.obj
 0001:000199b0       ?EmptyAndDelete@?$LList@PAVDropDownOptionData@@@@QAEXXZ 0041a9b0 f i drop_down_menu.obj
 0001:00019a70       ??A?$LList@PAVDropDownOptionData@@@@QAEPAVDropDownOptionData@@H@Z 0041aa70 f i drop_down_menu.obj
 0001:00019a90       ??_GDropDownOptionData@@QAEPAXI@Z 0041aa90 f i drop_down_menu.obj
 0001:00019ab0       ?PutDataAtStart@?$LList@PAVDropDownOptionData@@@@QAEXABQAVDropDownOptionData@@@Z 0041aab0 f i drop_down_menu.obj
 0001:00019b20       ?GetData@?$LList@PAVDropDownOptionData@@@@QBEPAVDropDownOptionData@@H@Z 0041ab20 f i drop_down_menu.obj
 0001:00019b40       ?RemoveData@?$LList@PAVDropDownOptionData@@@@QAEXH@Z 0041ab40 f i drop_down_menu.obj
 0001:00019bd0       ?Empty@?$LList@PAVDropDownOptionData@@@@QAEXXZ 0041abd0 f i drop_down_menu.obj
 0001:00019c20       ??0?$LListItem@PAVDropDownOptionData@@@@QAE@XZ 0041ac20 f i drop_down_menu.obj
 0001:00019c40       ??_G?$LListItem@PAVDropDownOptionData@@@@QAEPAXI@Z 0041ac40 f i drop_down_menu.obj
 0001:00019c60       ?GetItem@?$LList@PAVDropDownOptionData@@@@IBEPAV?$LListItem@PAVDropDownOptionData@@@@H@Z 0041ac60 f i drop_down_menu.obj
 0001:00019d10       ??1?$LListItem@PAVDropDownOptionData@@@@QAE@XZ 0041ad10 f i drop_down_menu.obj
 0001:00019d20       ?ValidIndex@?$LList@PAVDropDownOptionData@@@@QBE_NH@Z 0041ad20 f i drop_down_menu.obj
 0001:00019d40       ?MouseUp@FileOKButton@@UAEXXZ 0041ad40 f i filedialog.obj
 0001:00019dc0       ??0FileButton@@QAE@H@Z     0041adc0 f i filedialog.obj
 0001:00019df0       ?MouseUp@FileButton@@UAEXXZ 0041adf0 f i filedialog.obj
 0001:00019e80       ?Render@FileButton@@UAEXHH_N0@Z 0041ae80 f i filedialog.obj
 0001:00019ff0       ??_EFileButton@@UAEPAXI@Z  0041aff0 f i * CIL library *:* CIL module *
 0001:00019ff0       ??_GFileButton@@UAEPAXI@Z  0041aff0 f i filedialog.obj
 0001:0001a020       ??1FileButton@@UAE@XZ      0041b020 f i filedialog.obj
 0001:0001a030       ?MouseUp@FileCancelButton@@EAEXXZ 0041b030 f i filedialog.obj
 0001:0001a040       ?Render@SelectedButton@@EAEXHH_N0@Z 0041b040 f i filedialog.obj
 0001:0001a170       ??0FileDialog@@QAE@PAD@Z   0041b170 f   filedialog.obj
 0001:0001a230       ??_EFileDialog@@UAEPAXI@Z  0041b230 f i * CIL library *:* CIL module *
 0001:0001a230       ??_GFileDialog@@UAEPAXI@Z  0041b230 f i filedialog.obj
 0001:0001a260       ?Init@FileDialog@@QAEXPAD00_N@Z 0041b260 f   filedialog.obj
 0001:0001a2a0       ??1FileDialog@@UAE@XZ      0041b2a0 f   filedialog.obj
 0001:0001a340       ??_G?$LList@PAD@@QAEPAXI@Z 0041b340 f i filedialog.obj
 0001:0001a360       ??_GScrollBar@@QAEPAXI@Z   0041b360 f i filedialog.obj
 0001:0001a380       ?Create@FileDialog@@UAEXXZ 0041b380 f   filedialog.obj
 0001:0001a5c0       ??0SelectedButton@@QAE@XZ  0041b5c0 f i filedialog.obj
 0001:0001a5d0       ??0FileCancelButton@@QAE@XZ 0041b5d0 f i filedialog.obj
 0001:0001a5e0       ??0FileOKButton@@QAE@XZ    0041b5e0 f i filedialog.obj
 0001:0001a5f0       ??_ESelectedButton@@UAEPAXI@Z 0041b5f0 f i * CIL library *:* CIL module *
 0001:0001a5f0       ??_GSelectedButton@@UAEPAXI@Z 0041b5f0 f i filedialog.obj
 0001:0001a620       ??1SelectedButton@@UAE@XZ  0041b620 f i filedialog.obj
 0001:0001a630       ??_EFileCancelButton@@UAEPAXI@Z 0041b630 f i * CIL library *:* CIL module *
 0001:0001a630       ??_GFileCancelButton@@UAEPAXI@Z 0041b630 f i filedialog.obj
 0001:0001a660       ??1FileCancelButton@@UAE@XZ 0041b660 f i filedialog.obj
 0001:0001a670       ??_EFileOKButton@@UAEPAXI@Z 0041b670 f i * CIL library *:* CIL module *
 0001:0001a670       ??_GFileOKButton@@UAEPAXI@Z 0041b670 f i filedialog.obj
 0001:0001a6a0       ??1FileOKButton@@UAE@XZ    0041b6a0 f i filedialog.obj
 0001:0001a6b0       ?Remove@FileDialog@@UAEXXZ 0041b6b0 f   filedialog.obj
 0001:0001a6d0       ?SetDirectory@FileDialog@@QAEXPBD@Z 0041b6d0 f   filedialog.obj
 0001:0001a710       ?SetFilter@FileDialog@@QAEXPBD@Z 0041b710 f   filedialog.obj
 0001:0001a740       ?SetParent@FileDialog@@QAEXPBD@Z 0041b740 f   filedialog.obj
 0001:0001a770       ?FileSelected@FileDialog@@UAEXPAD@Z 0041b770 f   filedialog.obj
 0001:0001a780       ?RefreshFileList@FileDialog@@QAEXXZ 0041b780 f   filedialog.obj
 0001:0001a7e0       ?FileClicked@FileDialog@@QAEXH@Z 0041b7e0 f   filedialog.obj
 0001:0001a850       ?IsFileSelected@FileDialog@@QAEHH@Z 0041b850 f   filedialog.obj
 0001:0001a8b0       ??1?$LList@PAD@@QAE@XZ     0041b8b0 f i filedialog.obj
 0001:0001a8c0       ?GetData@?$LList@PAD@@QBEPADH@Z 0041b8c0 f i filedialog.obj
 0001:0001a8e0       ?Size@?$LList@PAD@@QBEHXZ  0041b8e0 f i filedialog.obj
 0001:0001a8f0       ?ValidIndex@?$LList@PAD@@QBE_NH@Z 0041b8f0 f i filedialog.obj
 0001:0001a910       ?EmptyAndDelete@?$LList@PAD@@QAEXXZ 0041b910 f i filedialog.obj
 0001:0001a9e0       ??0?$LList@H@@QAE@XZ       0041b9e0 f i filedialog.obj
 0001:0001aa10       ??1?$LList@H@@QAE@XZ       0041ba10 f i filedialog.obj
 0001:0001aa20       ?PutData@?$LList@H@@QAEXABH@Z 0041ba20 f i filedialog.obj
 0001:0001aa30       ?RemoveData@?$LList@H@@QAEXH@Z 0041ba30 f i filedialog.obj
 0001:0001aaf0       ?Size@?$LList@H@@QBEHXZ    0041baf0 f i filedialog.obj
 0001:0001ab00       ?Empty@?$LList@H@@QAEXXZ   0041bb00 f i filedialog.obj
 0001:0001ab50       ??A?$LList@H@@QAEHH@Z      0041bb50 f i filedialog.obj
 0001:0001ab70       ??_G?$LListItem@H@@QAEPAXI@Z 0041bb70 f i filedialog.obj
 0001:0001ab90       ?GetItem@?$LList@PAD@@IBEPAV?$LListItem@PAD@@H@Z 0041bb90 f i filedialog.obj
 0001:0001ac40       ?RemoveData@?$LList@PAD@@QAEXH@Z 0041bc40 f i filedialog.obj
 0001:0001ad00       ?Empty@?$LList@PAD@@QAEXXZ 0041bd00 f i filedialog.obj
 0001:0001ad50       ?GetItem@?$LList@H@@IBEPAV?$LListItem@H@@H@Z 0041bd50 f i filedialog.obj
 0001:0001ae00       ?PutDataAtEnd@?$LList@H@@QAEXABH@Z 0041be00 f i filedialog.obj
 0001:0001ae60       ?GetData@?$LList@H@@QBEHH@Z 0041be60 f i filedialog.obj
 0001:0001ae80       ??1?$LListItem@H@@QAE@XZ   0041be80 f i filedialog.obj
 0001:0001ae90       ??_G?$LListItem@PAD@@QAEPAXI@Z 0041be90 f i filedialog.obj
 0001:0001aeb0       ??1?$LListItem@PAD@@QAE@XZ 0041beb0 f i filedialog.obj
 0001:0001aec0       ?ValidIndex@?$LList@H@@QBE_NH@Z 0041bec0 f i filedialog.obj
 0001:0001aee0       ??0?$LListItem@H@@QAE@XZ   0041bee0 f i filedialog.obj
 0001:0001af00       ??0InputField@@QAE@XZ      0041bf00 f   inputfield.obj
 0001:0001af80       ??_EInputField@@UAEPAXI@Z  0041bf80 f i * CIL library *:* CIL module *
 0001:0001af80       ??_GInputField@@UAEPAXI@Z  0041bf80 f i inputfield.obj
 0001:0001afb0       ??1InputField@@UAE@XZ      0041bfb0 f i inputfield.obj
 0001:0001afc0       ?SetCallback@InputField@@QAEXPAVInterfaceButton@@@Z 0041bfc0 f   inputfield.obj
 0001:0001afd0       ?Render@InputField@@UAEXHH_N0@Z 0041bfd0 f   inputfield.obj
 0001:0001b420       ?MouseUp@InputField@@UAEXXZ 0041c420 f   inputfield.obj
 0001:0001b430       ?Keypress@InputField@@UAEXH_N00E@Z 0041c430 f   inputfield.obj
 0001:0001b690       ?RegisterChar@InputField@@QAEXPAE@Z 0041c690 f   inputfield.obj
 0001:0001b6b0       ?RegisterInt@InputField@@QAEXPAH@Z 0041c6b0 f   inputfield.obj
 0001:0001b6d0       ?RegisterFloat@InputField@@QAEXPAM@Z 0041c6d0 f   inputfield.obj
 0001:0001b6f0       ?RegisterString@InputField@@QAEXPAD@Z 0041c6f0 f   inputfield.obj
 0001:0001b730       ?SetInputNoExtendedCharacters@InputField@@QAEX_N@Z 0041c730 f   inputfield.obj
 0001:0001b770       ?ClampToBounds@InputField@@QAEXXZ 0041c770 f   inputfield.obj
 0001:0001b870       ?Refresh@InputField@@QAEXXZ 0041c870 f   inputfield.obj
 0001:0001b920       ??0InputScroller@@QAE@XZ   0041c920 f   inputfield.obj
 0001:0001b970       ??_EInputScroller@@UAEPAXI@Z 0041c970 f i * CIL library *:* CIL module *
 0001:0001b970       ??_GInputScroller@@UAEPAXI@Z 0041c970 f i inputfield.obj
 0001:0001b9a0       ??1InputScroller@@UAE@XZ   0041c9a0 f i inputfield.obj
 0001:0001b9b0       ?Render@InputScroller@@UAEXHH_N0@Z 0041c9b0 f   inputfield.obj
 0001:0001bc20       ?MouseDown@InputScroller@@UAEXXZ 0041cc20 f   inputfield.obj
 0001:0001bc60       ?MouseUp@InputScroller@@UAEXXZ 0041cc60 f   inputfield.obj
 0001:0001bc70       ??$min@M@std@@YAABMABM0@Z  0041cc70 f i inputfield.obj
 0001:0001bc80       _fmodf                     0041cc80 f i inputfield.obj
 0001:0001bcc0       ??0MessageDialog@@QAE@PAD0_N01@Z 0041ccc0 f   message_dialog.obj
 0001:0001bd80       ??_EMessageDialog@@UAEPAXI@Z 0041cd80 f i * CIL library *:* CIL module *
 0001:0001bd80       ??_GMessageDialog@@UAEPAXI@Z 0041cd80 f i message_dialog.obj
 0001:0001bdb0       ??1MessageDialog@@UAE@XZ   0041cdb0 f   message_dialog.obj
 0001:0001be20       ?Create@MessageDialog@@UAEXXZ 0041ce20 f   message_dialog.obj
 0001:0001bef0       ??0InvertedBox@@QAE@XZ     0041cef0 f i message_dialog.obj
 0001:0001bf00       ??_EInvertedBox@@UAEPAXI@Z 0041cf00 f i * CIL library *:* CIL module *
 0001:0001bf00       ??_GInvertedBox@@UAEPAXI@Z 0041cf00 f i message_dialog.obj
 0001:0001bf30       ??1InvertedBox@@UAE@XZ     0041cf30 f i message_dialog.obj
 0001:0001bf40       ?Render@MessageDialog@@UAEX_N@Z 0041cf40 f   message_dialog.obj
 0001:0001bfe0       ?GetLines@MessageDialog@@IAEXXZ 0041cfe0 f   message_dialog.obj
 0001:0001c320       ?GetData@?$LList@PAVEclButton@@@@QBEPAVEclButton@@H@Z 0041d320 f i message_dialog.obj
 0001:0001c340       ?Size@?$LList@PAVEclButton@@@@QBEHXZ 0041d340 f i message_dialog.obj
 0001:0001c350       ??$max@H@std@@YAABHABH0@Z  0041d350 f i message_dialog.obj
 0001:0001c360       ?GetItem@?$LList@PAVEclButton@@@@IBEPAV?$LListItem@PAVEclButton@@@@H@Z 0041d360 f i message_dialog.obj
 0001:0001c410       ?ValidIndex@?$LList@PAVEclButton@@@@QBE_NH@Z 0041d410 f i message_dialog.obj
 0001:0001c430       ??0ScrollBar@@QAE@PAVEclWindow@@@Z 0041d430 f   scrollbar.obj
 0001:0001c4f0       ??1ScrollBar@@QAE@XZ       0041d4f0 f   scrollbar.obj
 0001:0001c500       ?Create@ScrollBar@@QAEXPBDHHHHHHH@Z 0041d500 f   scrollbar.obj
 0001:0001c6e0       ?Remove@ScrollBar@@QAEXXZ  0041d6e0 f   scrollbar.obj
 0001:0001c780       ?SetNumRows@ScrollBar@@QAEXH@Z 0041d780 f   scrollbar.obj
 0001:0001c7a0       ?SetCurrentValue@ScrollBar@@QAEXH@Z 0041d7a0 f   scrollbar.obj
 0001:0001c7f0       ?ChangeCurrentValue@ScrollBar@@QAEXH@Z 0041d7f0 f   scrollbar.obj
 0001:0001c810       ??0ScrollBarButton@@QAE@PAVScrollBar@@@Z 0041d810 f   scrollbar.obj
 0001:0001c840       ??_EScrollBarButton@@UAEPAXI@Z 0041d840 f i * CIL library *:* CIL module *
 0001:0001c840       ??_GScrollBarButton@@UAEPAXI@Z 0041d840 f i scrollbar.obj
 0001:0001c870       ??1ScrollBarButton@@UAE@XZ 0041d870 f i scrollbar.obj
 0001:0001c880       ?Render@ScrollBarButton@@UAEXHH_N0@Z 0041d880 f   scrollbar.obj
 0001:0001cbf0       ?MouseUp@ScrollBarButton@@UAEXXZ 0041dbf0 f   scrollbar.obj
 0001:0001cd20       ?MouseDown@ScrollBarButton@@UAEXXZ 0041dd20 f   scrollbar.obj
 0001:0001cea0       ??0ScrollChangeButton@@QAE@PAVScrollBar@@H@Z 0041dea0 f   scrollbar.obj
 0001:0001cee0       ??_EScrollChangeButton@@UAEPAXI@Z 0041dee0 f i * CIL library *:* CIL module *
 0001:0001cee0       ??_GScrollChangeButton@@UAEPAXI@Z 0041dee0 f i scrollbar.obj
 0001:0001cf10       ??1ScrollChangeButton@@UAE@XZ 0041df10 f i scrollbar.obj
 0001:0001cf20       ?MouseDown@ScrollChangeButton@@UAEXXZ 0041df20 f   scrollbar.obj
 0001:0001cf60       ?Render@ScrollChangeButton@@UAEXHH_N0@Z 0041df60 f   scrollbar.obj
 0001:0001d070       ?fabs@@YAMM@Z              0041e070 f i screenoptions_window.obj
 0001:0001d080       ?SelectOption@ScreenResDropDownMenu@@EAEXH@Z 0041e080 f i screenoptions_window.obj
 0001:0001d190       ?Render@FullscreenRequiredMenu@@EAEXHH_N0@Z 0041e190 f i screenoptions_window.obj
 0001:0001d230       ?MouseUp@FullscreenRequiredMenu@@EAEXXZ 0041e230 f i screenoptions_window.obj
 0001:0001d530       ?MouseUp@SetScreenButton@@EAEXXZ 0041e530 f i screenoptions_window.obj
 0001:0001d6c0       ?RestartWindowManager@ScreenOptionsWindow@@UAEXXZ 0041e6c0 f   screenoptions_window.obj
 0001:0001d6d0       ??0ScreenOptionsWindow@@QAE@XZ 0041e6d0 f   screenoptions_window.obj
 0001:0001d790       ??_EScreenOptionsWindow@@UAEPAXI@Z 0041e790 f i * CIL library *:* CIL module *
 0001:0001d790       ??_GScreenOptionsWindow@@UAEPAXI@Z 0041e790 f i screenoptions_window.obj
 0001:0001d7c0       ??1ScreenOptionsWindow@@UAE@XZ 0041e7c0 f i screenoptions_window.obj
 0001:0001d7d0       ?Create@ScreenOptionsWindow@@UAEXXZ 0041e7d0 f   screenoptions_window.obj
 0001:0001dd60       ??0ScreenResDropDownMenu@@QAE@XZ 0041ed60 f i screenoptions_window.obj
 0001:0001dd80       ??0FullscreenRequiredMenu@@QAE@XZ 0041ed80 f i screenoptions_window.obj
 0001:0001dda0       ??0SetScreenButton@@QAE@XZ 0041eda0 f i screenoptions_window.obj
 0001:0001ddb0       ??_EScreenResDropDownMenu@@UAEPAXI@Z 0041edb0 f i * CIL library *:* CIL module *
 0001:0001ddb0       ??_GScreenResDropDownMenu@@UAEPAXI@Z 0041edb0 f i screenoptions_window.obj
 0001:0001dde0       ??1ScreenResDropDownMenu@@UAE@XZ 0041ede0 f i screenoptions_window.obj
 0001:0001ddf0       ??_EFullscreenRequiredMenu@@UAEPAXI@Z 0041edf0 f i * CIL library *:* CIL module *
 0001:0001ddf0       ??_GFullscreenRequiredMenu@@UAEPAXI@Z 0041edf0 f i screenoptions_window.obj
 0001:0001de20       ??1FullscreenRequiredMenu@@UAE@XZ 0041ee20 f i screenoptions_window.obj
 0001:0001de30       ??_ESetScreenButton@@UAEPAXI@Z 0041ee30 f i * CIL library *:* CIL module *
 0001:0001de30       ??_GSetScreenButton@@UAEPAXI@Z 0041ee30 f i screenoptions_window.obj
 0001:0001de60       ??1SetScreenButton@@UAE@XZ 0041ee60 f i screenoptions_window.obj
 0001:0001de70       ?Render@ScreenOptionsWindow@@UAEX_N@Z 0041ee70 f   screenoptions_window.obj
 0001:0001e0c0       ?Size@?$LList@PAVWindowResolution@@@@QBEHXZ 0041f0c0 f i screenoptions_window.obj
 0001:0001e0d0       ??A?$LList@PAVWindowResolution@@@@QAEPAVWindowResolution@@H@Z 0041f0d0 f i screenoptions_window.obj
 0001:0001e180       ?PutDataAtIndex@?$LList@H@@QAEXABHH@Z 0041f180 f i screenoptions_window.obj
 0001:0001e220       ?GetData@?$LList@PAVEclWindow@@@@QBEPAVEclWindow@@H@Z 0041f220 f i screenoptions_window.obj
 0001:0001e240       ?Size@?$LList@PAVEclWindow@@@@QBEHXZ 0041f240 f i screenoptions_window.obj
 0001:0001e250       ?GetData@?$LList@PAVWindowResolution@@@@QBEPAVWindowResolution@@H@Z 0041f250 f i screenoptions_window.obj
 0001:0001e300       ?PutDataAtStart@?$LList@H@@QAEXABH@Z 0041f300 f i screenoptions_window.obj
 0001:0001e370       ?GetItem@?$LList@PAVEclWindow@@@@IBEPAV?$LListItem@PAVEclWindow@@@@H@Z 0041f370 f i screenoptions_window.obj
 0001:0001e420       ?GetItem@?$LList@PAVWindowResolution@@@@IBEPAV?$LListItem@PAVWindowResolution@@@@H@Z 0041f420 f i screenoptions_window.obj
 0001:0001e4d0       ?ValidIndex@?$LList@PAVEclWindow@@@@QBE_NH@Z 0041f4d0 f i screenoptions_window.obj
 0001:0001e4f0       ?ValidIndex@?$LList@PAVWindowResolution@@@@QBE_NH@Z 0041f4f0 f i screenoptions_window.obj
 0001:0001e510       _fabsf                     0041f510 f i screenoptions_window.obj
 0001:0001e530       ?MouseUp@RestartSoundButton@@UAEXXZ 0041f530 f i soundoptions_window.obj
 0001:0001e6c0       ??_GSoundSampleHandle@@QAEPAXI@Z 0041f6c0 f i soundoptions_window.obj
 0001:0001e6e0       ?Render@HW3DDropDownMenu@@UAEXHH_N0@Z 0041f6e0 f i soundoptions_window.obj
 0001:0001e780       ?MouseUp@HW3DDropDownMenu@@UAEXXZ 0041f780 f i soundoptions_window.obj
 0001:0001e7a0       ??0SoundOptionsWindow@@QAE@XZ 0041f7a0 f   soundoptions_window.obj
 0001:0001e890       ??_ESoundOptionsWindow@@UAEPAXI@Z 0041f890 f i * CIL library *:* CIL module *
 0001:0001e890       ??_GSoundOptionsWindow@@UAEPAXI@Z 0041f890 f i soundoptions_window.obj
 0001:0001e8c0       ??1SoundOptionsWindow@@UAE@XZ 0041f8c0 f i soundoptions_window.obj
 0001:0001e8d0       ?Create@SoundOptionsWindow@@UAEXXZ 0041f8d0 f   soundoptions_window.obj
 0001:0001ed10       ??0HW3DDropDownMenu@@QAE@XZ 0041fd10 f i soundoptions_window.obj
 0001:0001ed30       ??0RestartSoundButton@@QAE@XZ 0041fd30 f i soundoptions_window.obj
 0001:0001ed40       ??_EHW3DDropDownMenu@@UAEPAXI@Z 0041fd40 f i * CIL library *:* CIL module *
 0001:0001ed40       ??_GHW3DDropDownMenu@@UAEPAXI@Z 0041fd40 f i soundoptions_window.obj
 0001:0001ed70       ??1HW3DDropDownMenu@@UAE@XZ 0041fd70 f i soundoptions_window.obj
 0001:0001ed80       ??_ERestartSoundButton@@UAEPAXI@Z 0041fd80 f i * CIL library *:* CIL module *
 0001:0001ed80       ??_GRestartSoundButton@@UAEPAXI@Z 0041fd80 f i soundoptions_window.obj
 0001:0001edb0       ??1RestartSoundButton@@UAE@XZ 0041fdb0 f i soundoptions_window.obj
 0001:0001edc0       ?Render@SoundOptionsWindow@@UAEX_N@Z 0041fdc0 f   soundoptions_window.obj
 0001:0001f0d0       ?Size@?$DArray@PAVSoundInstance@@@@QBEHXZ 004200d0 f i soundoptions_window.obj
 0001:0001f0e0       ?ValidIndex@?$DArray@PAVSoundInstance@@@@QBE_NH@Z 004200e0 f i soundoptions_window.obj
 0001:0001f110       ??A?$DArray@PAVSoundInstance@@@@QAEAAPAVSoundInstance@@H@Z 00420110 f i soundoptions_window.obj
 0001:0001f170       ??0ObjectTypeMenu@@QAE@XZ  00420170 f i soundeditor_window.obj
 0001:0001f190       ?SelectOption@ObjectTypeMenu@@UAEXH@Z 00420190 f i soundeditor_window.obj
 0001:0001f270       ??_EObjectTypeMenu@@UAEPAXI@Z 00420270 f i * CIL library *:* CIL module *
 0001:0001f270       ??_GObjectTypeMenu@@UAEPAXI@Z 00420270 f i soundeditor_window.obj
 0001:0001f2a0       ??1ObjectTypeMenu@@UAE@XZ  004202a0 f i soundeditor_window.obj
 0001:0001f2b0       ?SelectOption@NewSoundEventMenu@@UAEXH@Z 004202b0 f i soundeditor_window.obj
 0001:0001f460       ??0SoundEventButton@@QAE@XZ 00420460 f i soundeditor_window.obj
 0001:0001f490       ?Render@SoundEventButton@@UAEXHH_N0@Z 00420490 f i soundeditor_window.obj
 0001:0001f510       ?MouseUp@SoundEventButton@@UAEXXZ 00420510 f i soundeditor_window.obj
 0001:0001f530       ??_ESoundEventButton@@UAEPAXI@Z 00420530 f i * CIL library *:* CIL module *
 0001:0001f530       ??_GSoundEventButton@@UAEPAXI@Z 00420530 f i soundeditor_window.obj
 0001:0001f560       ??1SoundEventButton@@UAE@XZ 00420560 f i soundeditor_window.obj
 0001:0001f570       ?Render@SoundPositionButton@@UAEXHH_N0@Z 00420570 f i soundeditor_window.obj
 0001:0001f7b0       ?MouseUp@PlayButton@@UAEXXZ 004207b0 f i soundeditor_window.obj
 0001:0001f7c0       ?MouseUp@PlayRepeatButton@@UAEXXZ 004207c0 f i soundeditor_window.obj
 0001:0001f7d0       ?MouseUp@StopButton@@UAEXXZ 004207d0 f i soundeditor_window.obj
 0001:0001f7e0       ?MouseUp@SaveAllButton@@UAEXXZ 004207e0 f i soundeditor_window.obj
 0001:0001f7f0       ?MouseUp@DeleteEventButton@@UAEXXZ 004207f0 f i soundeditor_window.obj
 0001:0001f860       ??0SoundSelector@@QAE@PAD@Z 00420860 f i soundeditor_window.obj
 0001:0001f890       ?FileSelected@SoundSelector@@UAEXPAD@Z 00420890 f i soundeditor_window.obj
 0001:0001f8d0       ??_ESoundSelector@@UAEPAXI@Z 004208d0 f i * CIL library *:* CIL module *
 0001:0001f8d0       ??_GSoundSelector@@UAEPAXI@Z 004208d0 f i soundeditor_window.obj
 0001:0001f900       ??1SoundSelector@@UAE@XZ   00420900 f i soundeditor_window.obj
 0001:0001f910       ?Render@SoundSelectorButton@@UAEXHH_N0@Z 00420910 f i soundeditor_window.obj
 0001:0001f9a0       ?MouseUp@SoundSelectorButton@@UAEXXZ 004209a0 f i soundeditor_window.obj
 0001:0001fae0       ?Render@DspEffectButton@@UAEXHH_N0@Z 00420ae0 f i soundeditor_window.obj
 0001:0001fbc0       ?MouseUp@DspEffectButton@@UAEXXZ 00420bc0 f i soundeditor_window.obj
 0001:0001fda0       ?Render@DeleteDspEffectButton@@UAEXHH_N0@Z 00420da0 f i soundeditor_window.obj
 0001:0001fdf0       ?MouseUp@DeleteDspEffectButton@@UAEXXZ 00420df0 f i soundeditor_window.obj
 0001:0001fe60       ?MouseUp@PurgeSoundsButton@@UAEXXZ 00420e60 f i soundeditor_window.obj
 0001:0001fef0       ??_ESoundEditorWindow@@UAEPAXI@Z 00420ef0 f i * CIL library *:* CIL module *
 0001:0001fef0       ??_GSoundEditorWindow@@UAEPAXI@Z 00420ef0 f i soundeditor_window.obj
 0001:0001ff20       ??1SoundEditorWindow@@UAE@XZ 00420f20 f   soundeditor_window.obj
 0001:0001ff40       ?SelectEvent@SoundEditorWindow@@QAEXH@Z 00420f40 f   soundeditor_window.obj
 0001:0001ff80       ?StartPlayback@SoundEditorWindow@@QAEX_N@Z 00420f80 f   soundeditor_window.obj
 0001:00020070       ??_GSoundInstance@@QAEPAXI@Z 00421070 f i soundeditor_window.obj
 0001:00020090       ?StopPlayback@SoundEditorWindow@@QAEXXZ 00421090 f   soundeditor_window.obj
 0001:000200d0       ?Update@SoundEditorWindow@@UAEXXZ 004210d0 f   soundeditor_window.obj
 0001:000200e0       ?Create@SoundEditorWindow@@UAEXXZ 004210e0 f   soundeditor_window.obj
 0001:00020390       ??0NewSoundEventMenu@@QAE@XZ 00421390 f i soundeditor_window.obj
 0001:000203b0       ??0PurgeSoundsButton@@QAE@XZ 004213b0 f i soundeditor_window.obj
 0001:000203c0       ??0SaveAllButton@@QAE@XZ   004213c0 f i soundeditor_window.obj
 0001:000203d0       ??_ENewSoundEventMenu@@UAEPAXI@Z 004213d0 f i * CIL library *:* CIL module *
 0001:000203d0       ??_GNewSoundEventMenu@@UAEPAXI@Z 004213d0 f i soundeditor_window.obj
 0001:00020400       ??1NewSoundEventMenu@@UAE@XZ 00421400 f i soundeditor_window.obj
 0001:00020410       ??_EPurgeSoundsButton@@UAEPAXI@Z 00421410 f i * CIL library *:* CIL module *
 0001:00020410       ??_GPurgeSoundsButton@@UAEPAXI@Z 00421410 f i soundeditor_window.obj
 0001:00020440       ??1PurgeSoundsButton@@UAE@XZ 00421440 f i soundeditor_window.obj
 0001:00020450       ??_ESaveAllButton@@UAEPAXI@Z 00421450 f i * CIL library *:* CIL module *
 0001:00020450       ??_GSaveAllButton@@UAEPAXI@Z 00421450 f i soundeditor_window.obj
 0001:00020480       ??1SaveAllButton@@UAE@XZ   00421480 f i soundeditor_window.obj
 0001:00020490       ?CreateInstanceEditor@SoundEditorWindow@@QAEXXZ 00421490 f   soundeditor_window.obj
 0001:00020c20       ??0SoundPositionButton@@QAE@XZ 00421c20 f i soundeditor_window.obj
 0001:00020c30       ??0PlayButton@@QAE@XZ      00421c30 f i soundeditor_window.obj
 0001:00020c40       ??0PlayRepeatButton@@QAE@XZ 00421c40 f i soundeditor_window.obj
 0001:00020c50       ??0StopButton@@QAE@XZ      00421c50 f i soundeditor_window.obj
 0001:00020c60       ??0SoundSelectorButton@@QAE@XZ 00421c60 f i soundeditor_window.obj
 0001:00020c70       ??0DspEffectButton@@QAE@XZ 00421c70 f i soundeditor_window.obj
 0001:00020c80       ??0DeleteDspEffectButton@@QAE@XZ 00421c80 f i soundeditor_window.obj
 0001:00020c90       ??0DeleteEventButton@@QAE@XZ 00421c90 f i soundeditor_window.obj
 0001:00020ca0       ??_ESoundPositionButton@@UAEPAXI@Z 00421ca0 f i * CIL library *:* CIL module *
 0001:00020ca0       ??_GSoundPositionButton@@UAEPAXI@Z 00421ca0 f i soundeditor_window.obj
 0001:00020cd0       ??1SoundPositionButton@@UAE@XZ 00421cd0 f i soundeditor_window.obj
 0001:00020ce0       ??_EPlayButton@@UAEPAXI@Z  00421ce0 f i * CIL library *:* CIL module *
 0001:00020ce0       ??_GPlayButton@@UAEPAXI@Z  00421ce0 f i soundeditor_window.obj
 0001:00020d10       ??1PlayButton@@UAE@XZ      00421d10 f i soundeditor_window.obj
 0001:00020d20       ??_EPlayRepeatButton@@UAEPAXI@Z 00421d20 f i * CIL library *:* CIL module *
 0001:00020d20       ??_GPlayRepeatButton@@UAEPAXI@Z 00421d20 f i soundeditor_window.obj
 0001:00020d50       ??1PlayRepeatButton@@UAE@XZ 00421d50 f i soundeditor_window.obj
 0001:00020d60       ??_EStopButton@@UAEPAXI@Z  00421d60 f i * CIL library *:* CIL module *
 0001:00020d60       ??_GStopButton@@UAEPAXI@Z  00421d60 f i soundeditor_window.obj
 0001:00020d90       ??1StopButton@@UAE@XZ      00421d90 f i soundeditor_window.obj
 0001:00020da0       ??_ESoundSelectorButton@@UAEPAXI@Z 00421da0 f i * CIL library *:* CIL module *
 0001:00020da0       ??_GSoundSelectorButton@@UAEPAXI@Z 00421da0 f i soundeditor_window.obj
 0001:00020dd0       ??1SoundSelectorButton@@UAE@XZ 00421dd0 f i soundeditor_window.obj
 0001:00020de0       ??_EDspEffectButton@@UAEPAXI@Z 00421de0 f i * CIL library *:* CIL module *
 0001:00020de0       ??_GDspEffectButton@@UAEPAXI@Z 00421de0 f i soundeditor_window.obj
 0001:00020e10       ??1DspEffectButton@@UAE@XZ 00421e10 f i soundeditor_window.obj
 0001:00020e20       ??_EDeleteDspEffectButton@@UAEPAXI@Z 00421e20 f i * CIL library *:* CIL module *
 0001:00020e20       ??_GDeleteDspEffectButton@@UAEPAXI@Z 00421e20 f i soundeditor_window.obj
 0001:00020e50       ??1DeleteDspEffectButton@@UAE@XZ 00421e50 f i soundeditor_window.obj
 0001:00020e60       ??_EDeleteEventButton@@UAEPAXI@Z 00421e60 f i * CIL library *:* CIL module *
 0001:00020e60       ??_GDeleteEventButton@@UAEPAXI@Z 00421e60 f i soundeditor_window.obj
 0001:00020e90       ??1DeleteEventButton@@UAE@XZ 00421e90 f i soundeditor_window.obj
 0001:00020ea0       ?RemoveInstanceEditor@SoundEditorWindow@@QAEXXZ 00421ea0 f   soundeditor_window.obj
 0001:00020fe0       ?Render@SoundEditorWindow@@UAEX_N@Z 00421fe0 f   soundeditor_window.obj
 0001:00021380       ?GetSoundEventBlueprint@SoundEditorWindow@@QAEPAVSoundEventBlueprint@@XZ 00422380 f   soundeditor_window.obj
 0001:000213b0       ?GetSoundInstanceBlueprint@SoundEditorWindow@@QAEPAVSoundInstanceBlueprint@@XZ 004223b0 f   soundeditor_window.obj
 0001:000213e0       ?GetSelectionName@SoundEditorWindow@@QAEXPAD@Z 004223e0 f   soundeditor_window.obj
 0001:00021420       ?CreateSoundParameterButton@SoundEditorWindow@@SAXPAVInterfaceWindow@@PADPAVSoundParameter@@HMMPAVInterfaceButton@@HH@Z 00422420 f   soundeditor_window.obj
 0001:000214c0       ?RemoveSoundParameterButton@SoundEditorWindow@@SAXPAVInterfaceWindow@@PAD@Z 004224c0 f   soundeditor_window.obj
 0001:000214d0       ?SelectOption@DspEffectTypeMenu@@EAEXH@Z 004224d0 f i soundeditor_window.obj
 0001:00021730       ??0DspEffectEditor@@QAE@PAD@Z 00422730 f   soundeditor_window.obj
 0001:00021770       ??_EDspEffectEditor@@UAEPAXI@Z 00422770 f i * CIL library *:* CIL module *
 0001:00021770       ??_GDspEffectEditor@@UAEPAXI@Z 00422770 f i soundeditor_window.obj
 0001:000217a0       ??1DspEffectEditor@@UAE@XZ 004227a0 f i soundeditor_window.obj
 0001:000217b0       ?Create@DspEffectEditor@@UAEXXZ 004227b0 f   soundeditor_window.obj
 0001:000218a0       ??0DspEffectTypeMenu@@QAE@XZ 004228a0 f i soundeditor_window.obj
 0001:000218c0       ??_EDspEffectTypeMenu@@UAEPAXI@Z 004228c0 f i * CIL library *:* CIL module *
 0001:000218c0       ??_GDspEffectTypeMenu@@UAEPAXI@Z 004228c0 f i soundeditor_window.obj
 0001:000218f0       ??1DspEffectTypeMenu@@UAE@XZ 004228f0 f i soundeditor_window.obj
 0001:00021900       ??0SampleGroupFileDialog@@QAE@PAD@Z 00422900 f i soundeditor_window.obj
 0001:00021930       ?FileSelected@SampleGroupFileDialog@@UAEXPAD@Z 00422930 f i soundeditor_window.obj
 0001:000219c0       ??_ESampleGroupFileDialog@@UAEPAXI@Z 004229c0 f i * CIL library *:* CIL module *
 0001:000219c0       ??_GSampleGroupFileDialog@@UAEPAXI@Z 004229c0 f i soundeditor_window.obj
 0001:000219f0       ??1SampleGroupFileDialog@@UAE@XZ 004229f0 f i soundeditor_window.obj
 0001:00021a00       ?Render@SampleGroupSampleDelete@@UAEXHH_N0@Z 00422a00 f i soundeditor_window.obj
 0001:00021a70       ?MouseUp@SampleGroupSampleDelete@@UAEXXZ 00422a70 f i soundeditor_window.obj
 0001:00021ad0       ?MouseUp@SampleGroupAddSample@@EAEXXZ 00422ad0 f i soundeditor_window.obj
 0001:00021bb0       ?SelectOption@SampleGroupSelector@@EAEXH@Z 00422bb0 f i soundeditor_window.obj
 0001:00021c00       ?MouseUp@NewSampleGroupButton@@EAEXXZ 00422c00 f i soundeditor_window.obj
 0001:00021c40       ?MouseUp@RenameSampleGroupCommit@@EAEXXZ 00422c40 f i soundeditor_window.obj
 0001:00021c80       ??0RenameSampleGroupWindow@@QAE@PAD@Z 00422c80 f   soundeditor_window.obj
 0001:00021cc0       ??_ERenameSampleGroupWindow@@UAEPAXI@Z 00422cc0 f i * CIL library *:* CIL module *
 0001:00021cc0       ??_GRenameSampleGroupWindow@@UAEPAXI@Z 00422cc0 f i soundeditor_window.obj
 0001:00021cf0       ??1RenameSampleGroupWindow@@UAE@XZ 00422cf0 f i soundeditor_window.obj
 0001:00021d00       ?Create@RenameSampleGroupWindow@@UAEXXZ 00422d00 f   soundeditor_window.obj
 0001:00021e00       ??0RenameSampleGroupCommit@@QAE@XZ 00422e00 f i soundeditor_window.obj
 0001:00021e10       ??_ERenameSampleGroupCommit@@UAEPAXI@Z 00422e10 f i * CIL library *:* CIL module *
 0001:00021e10       ??_GRenameSampleGroupCommit@@UAEPAXI@Z 00422e10 f i soundeditor_window.obj
 0001:00021e40       ??1RenameSampleGroupCommit@@UAE@XZ 00422e40 f i soundeditor_window.obj
 0001:00021e50       ?MouseUp@RenameSampleGroupButton@@EAEXXZ 00422e50 f i soundeditor_window.obj
 0001:00021f20       ??0SampleGroupEditor@@QAE@PAD@Z 00422f20 f   soundeditor_window.obj
 0001:00021fb0       ??_ESampleGroupEditor@@UAEPAXI@Z 00422fb0 f i * CIL library *:* CIL module *
 0001:00021fb0       ??_GSampleGroupEditor@@UAEPAXI@Z 00422fb0 f i soundeditor_window.obj
 0001:00021fe0       ??1SampleGroupEditor@@UAE@XZ 00422fe0 f i soundeditor_window.obj
 0001:00021ff0       ?SelectSampleGroup@SampleGroupEditor@@QAEXPAD@Z 00422ff0 f   soundeditor_window.obj
 0001:00022010       ?Create@SampleGroupEditor@@UAEXXZ 00423010 f   soundeditor_window.obj
 0001:000222c0       ??0SampleGroupSelector@@QAE@XZ 004232c0 f i soundeditor_window.obj
 0001:000222e0       ??0NewSampleGroupButton@@QAE@XZ 004232e0 f i soundeditor_window.obj
 0001:000222f0       ??0RenameSampleGroupButton@@QAE@XZ 004232f0 f i soundeditor_window.obj
 0001:00022300       ??0SampleGroupAddSample@@QAE@XZ 00423300 f i soundeditor_window.obj
 0001:00022310       ??0SampleGroupSampleDelete@@QAE@XZ 00423310 f i soundeditor_window.obj
 0001:00022320       ??_ESampleGroupSelector@@UAEPAXI@Z 00423320 f i * CIL library *:* CIL module *
 0001:00022320       ??_GSampleGroupSelector@@UAEPAXI@Z 00423320 f i soundeditor_window.obj
 0001:00022350       ??1SampleGroupSelector@@UAE@XZ 00423350 f i soundeditor_window.obj
 0001:00022360       ??_ENewSampleGroupButton@@UAEPAXI@Z 00423360 f i * CIL library *:* CIL module *
 0001:00022360       ??_GNewSampleGroupButton@@UAEPAXI@Z 00423360 f i soundeditor_window.obj
 0001:00022390       ??1NewSampleGroupButton@@UAE@XZ 00423390 f i soundeditor_window.obj
 0001:000223a0       ??_ERenameSampleGroupButton@@UAEPAXI@Z 004233a0 f i * CIL library *:* CIL module *
 0001:000223a0       ??_GRenameSampleGroupButton@@UAEPAXI@Z 004233a0 f i soundeditor_window.obj
 0001:000223d0       ??1RenameSampleGroupButton@@UAE@XZ 004233d0 f i soundeditor_window.obj
 0001:000223e0       ??_ESampleGroupAddSample@@UAEPAXI@Z 004233e0 f i * CIL library *:* CIL module *
 0001:000223e0       ??_GSampleGroupAddSample@@UAEPAXI@Z 004233e0 f i soundeditor_window.obj
 0001:00022410       ??1SampleGroupAddSample@@UAE@XZ 00423410 f i soundeditor_window.obj
 0001:00022420       ??_ESampleGroupSampleDelete@@UAEPAXI@Z 00423420 f i * CIL library *:* CIL module *
 0001:00022420       ??_GSampleGroupSampleDelete@@UAEPAXI@Z 00423420 f i soundeditor_window.obj
 0001:00022450       ??1SampleGroupSampleDelete@@UAE@XZ 00423450 f i soundeditor_window.obj
 0001:00022460       ?Remove@SampleGroupEditor@@UAEXXZ 00423460 f   soundeditor_window.obj
 0001:00022480       ?Render@SampleGroupEditor@@UAEX_N@Z 00423480 f   soundeditor_window.obj
 0001:000225a0       ?Render@DeleteSoundButton@@UAEXHH_N0@Z 004235a0 f i soundeditor_window.obj
 0001:000225d0       ?MouseUp@DeleteSoundButton@@UAEXXZ 004235d0 f i soundeditor_window.obj
 0001:000226b0       ?MouseUp@RefreshFileListButton@@EAEXXZ 004236b0 f i soundeditor_window.obj
 0001:000226c0       ?MouseUp@DeleteAllButton@@EAEXXZ 004236c0 f i soundeditor_window.obj
 0001:000227b0       ??0PurgeSoundsWindow@@QAE@PAD@Z 004237b0 f   soundeditor_window.obj
 0001:00022850       ??_EPurgeSoundsWindow@@UAEPAXI@Z 00423850 f i * CIL library *:* CIL module *
 0001:00022850       ??_GPurgeSoundsWindow@@UAEPAXI@Z 00423850 f i soundeditor_window.obj
 0001:00022890       ??1PurgeSoundsWindow@@UAE@XZ 00423890 f i soundeditor_window.obj
 0001:000228b0       ?Create@PurgeSoundsWindow@@UAEXXZ 004238b0 f   soundeditor_window.obj
 0001:00022a80       ??0DeleteSoundButton@@QAE@XZ 00423a80 f i soundeditor_window.obj
 0001:00022a90       ??0RefreshFileListButton@@QAE@XZ 00423a90 f i soundeditor_window.obj
 0001:00022aa0       ??0DeleteAllButton@@QAE@XZ 00423aa0 f i soundeditor_window.obj
 0001:00022ab0       ??_EDeleteSoundButton@@UAEPAXI@Z 00423ab0 f i * CIL library *:* CIL module *
 0001:00022ab0       ??_GDeleteSoundButton@@UAEPAXI@Z 00423ab0 f i soundeditor_window.obj
 0001:00022ae0       ??1DeleteSoundButton@@UAE@XZ 00423ae0 f i soundeditor_window.obj
 0001:00022af0       ??_ERefreshFileListButton@@UAEPAXI@Z 00423af0 f i * CIL library *:* CIL module *
 0001:00022af0       ??_GRefreshFileListButton@@UAEPAXI@Z 00423af0 f i soundeditor_window.obj
 0001:00022b20       ??1RefreshFileListButton@@UAE@XZ 00423b20 f i soundeditor_window.obj
 0001:00022b30       ??_EDeleteAllButton@@UAEPAXI@Z 00423b30 f i * CIL library *:* CIL module *
 0001:00022b30       ??_GDeleteAllButton@@UAEPAXI@Z 00423b30 f i soundeditor_window.obj
 0001:00022b60       ??1DeleteAllButton@@UAE@XZ 00423b60 f i soundeditor_window.obj
 0001:00022b70       ?Remove@PurgeSoundsWindow@@UAEXXZ 00423b70 f   soundeditor_window.obj
 0001:00022b90       ?Render@PurgeSoundsWindow@@UAEX_N@Z 00423b90 f   soundeditor_window.obj
 0001:00022ca0       ?RefreshFileList@PurgeSoundsWindow@@QAEXXZ 00423ca0 f   soundeditor_window.obj
 0001:00022d50       ?Set@?$Vector3@M@@QAEXMMM@Z 00423d50 f i soundeditor_window.obj
 0001:00022d60       ?Zero@?$Vector3@M@@QAEXXZ  00423d60 f i soundeditor_window.obj
 0001:00022d80       ?ZeroVector@?$Vector3@M@@SA?BV1@XZ 00423d80 f i soundeditor_window.obj
 0001:00022da0       ??0?$Vector3@M@@QAE@MMM@Z  00423da0 f i soundeditor_window.obj
 0001:00022dc0       ?Size@?$DArray@PAVDspBlueprint@@@@QBEHXZ 00423dc0 f i soundeditor_window.obj
 0001:00022dd0       ??A?$DArray@PAVDspBlueprint@@@@QAEAAPAVDspBlueprint@@H@Z 00423dd0 f i soundeditor_window.obj
 0001:00022e30       ?Size@?$LList@PAVSampleGroup@@@@QBEHXZ 00423e30 f i soundeditor_window.obj
 0001:00022e40       ?ValidIndex@?$LList@PAVSampleGroup@@@@QBE_NH@Z 00423e40 f i soundeditor_window.obj
 0001:00022e60       ??A?$LList@PAVSampleGroup@@@@QAEPAVSampleGroup@@H@Z 00423e60 f i soundeditor_window.obj
 0001:00022e80       ?PutDataAtEnd@?$LList@PAVSoundInstanceBlueprint@@@@QAEXABQAVSoundInstanceBlueprint@@@Z 00423e80 f i soundeditor_window.obj
 0001:00022ee0       ?RemoveData@?$LList@PAVSoundInstanceBlueprint@@@@QAEXH@Z 00423ee0 f i soundeditor_window.obj
 0001:00022fa0       ?Size@?$LList@PAVSoundInstanceBlueprint@@@@QBEHXZ 00423fa0 f i soundeditor_window.obj
 0001:00022fb0       ?ValidIndex@?$LList@PAVSoundInstanceBlueprint@@@@QBE_NH@Z 00423fb0 f i soundeditor_window.obj
 0001:00022fd0       ??A?$LList@PAVSoundInstanceBlueprint@@@@QAEPAVSoundInstanceBlueprint@@H@Z 00423fd0 f i soundeditor_window.obj
 0001:00022ff0       ?Size@?$DArray@PAVDspParameterBlueprint@@@@QBEHXZ 00423ff0 f i soundeditor_window.obj
 0001:00023000       ??0?$LList@PAD@@QAE@XZ     00424000 f i soundeditor_window.obj
 0001:00023030       ?PutData@?$LList@PAD@@QAEXABQAD@Z 00424030 f i soundeditor_window.obj
 0001:00023040       ?PutDataAtIndex@?$LList@PAD@@QAEXABQADH@Z 00424040 f i soundeditor_window.obj
 0001:000230e0       ??A?$LList@PAD@@QAEPADH@Z  004240e0 f i soundeditor_window.obj
 0001:00023100       ?PutData@?$LList@PAVDspHandle@@@@QAEXABQAVDspHandle@@@Z 00424100 f i soundeditor_window.obj
 0001:00023110       ?RemoveData@?$LList@PAVDspHandle@@@@QAEXH@Z 00424110 f i soundeditor_window.obj
 0001:000231d0       ?Size@?$LList@PAVDspHandle@@@@QBEHXZ 004241d0 f i soundeditor_window.obj
 0001:000231e0       ?ValidIndex@?$LList@PAVDspHandle@@@@QBE_NH@Z 004241e0 f i soundeditor_window.obj
 0001:00023200       ??A?$LList@PAVDspHandle@@@@QAEPAVDspHandle@@H@Z 00424200 f i soundeditor_window.obj
 0001:00023220       ??_G?$LListItem@PAVSoundInstanceBlueprint@@@@QAEPAXI@Z 00424220 f i soundeditor_window.obj
 0001:00023240       ??_G?$LListItem@PAVDspHandle@@@@QAEPAXI@Z 00424240 f i soundeditor_window.obj
 0001:00023260       ?GetData@?$LList@PAVSampleGroup@@@@QBEPAVSampleGroup@@H@Z 00424260 f i soundeditor_window.obj
 0001:00023280       ?GetItem@?$LList@PAVSoundInstanceBlueprint@@@@IBEPAV?$LListItem@PAVSoundInstanceBlueprint@@@@H@Z 00424280 f i soundeditor_window.obj
 0001:00023330       ?GetData@?$LList@PAVSoundInstanceBlueprint@@@@QBEPAVSoundInstanceBlueprint@@H@Z 00424330 f i soundeditor_window.obj
 0001:00023350       ??0?$LListItem@PAVSoundInstanceBlueprint@@@@QAE@XZ 00424350 f i soundeditor_window.obj
 0001:00023370       ??1?$LListItem@PAVSoundInstanceBlueprint@@@@QAE@XZ 00424370 f i soundeditor_window.obj
 0001:00023380       ?PutDataAtEnd@?$LList@PAD@@QAEXABQAD@Z 00424380 f i soundeditor_window.obj
 0001:000233e0       ?PutDataAtStart@?$LList@PAD@@QAEXABQAD@Z 004243e0 f i soundeditor_window.obj
 0001:00023450       ??0?$LListItem@PAD@@QAE@XZ 00424450 f i soundeditor_window.obj
 0001:00023470       ?GetItem@?$LList@PAVDspHandle@@@@IBEPAV?$LListItem@PAVDspHandle@@@@H@Z 00424470 f i soundeditor_window.obj
 0001:00023520       ?PutDataAtEnd@?$LList@PAVDspHandle@@@@QAEXABQAVDspHandle@@@Z 00424520 f i soundeditor_window.obj
 0001:00023580       ?GetData@?$LList@PAVDspHandle@@@@QBEPAVDspHandle@@H@Z 00424580 f i soundeditor_window.obj
 0001:000235a0       ??1?$LListItem@PAVDspHandle@@@@QAE@XZ 004245a0 f i soundeditor_window.obj
 0001:000235b0       ?GetItem@?$LList@PAVSampleGroup@@@@IBEPAV?$LListItem@PAVSampleGroup@@@@H@Z 004245b0 f i soundeditor_window.obj
 0001:00023660       ??0?$LListItem@PAVDspHandle@@@@QAE@XZ 00424660 f i soundeditor_window.obj
 0001:00023680       ??0SoundParameterGraph@@QAE@XZ 00424680 f i soundparameter_window.obj
 0001:000236a0       ??_ESoundParameterGraph@@UAEPAXI@Z 004246a0 f i * CIL library *:* CIL module *
 0001:000236a0       ??_GSoundParameterGraph@@UAEPAXI@Z 004246a0 f i soundparameter_window.obj
 0001:000236d0       ??1SoundParameterGraph@@UAE@XZ 004246d0 f i soundparameter_window.obj
 0001:000236e0       ??0SoundParameterButton@@QAE@XZ 004246e0 f   soundparameter_window.obj
 0001:00023710       ??_ESoundParameterButton@@UAEPAXI@Z 00424710 f i * CIL library *:* CIL module *
 0001:00023710       ??_GSoundParameterButton@@UAEPAXI@Z 00424710 f i soundparameter_window.obj
 0001:00023740       ??1SoundParameterButton@@UAE@XZ 00424740 f i soundparameter_window.obj
 0001:00023750       ?Render@SoundParameterButton@@UAEXHH_N0@Z 00424750 f   soundparameter_window.obj
 0001:00023b00       ?MouseUp@SoundParameterButton@@UAEXXZ 00424b00 f   soundparameter_window.obj
 0001:00023bb0       ?SetParameter@SoundParameterGraph@@QAEXPAVSoundParameter@@MM@Z 00424bb0 f   soundparameter_window.obj
 0001:00023bd0       ?GetPosition@SoundParameterGraph@@QAEXMMPAM0@Z 00424bd0 f   soundparameter_window.obj
 0001:00023ce0       ?GetValues@SoundParameterGraph@@QAEXMMPAM0@Z 00424ce0 f   soundparameter_window.obj
 0001:00023d90       ?RescaleAxis@SoundParameterGraph@@QAEXXZ 00424d90 f   soundparameter_window.obj
 0001:00023ed0       ?HandleMouseEvents@SoundParameterGraph@@QAEXXZ 00424ed0 f   soundparameter_window.obj
 0001:000240f0       ?RenderAxis@SoundParameterGraph@@QAEXHH@Z 004250f0 f   soundparameter_window.obj
 0001:00024580       ?RenderValues@SoundParameterGraph@@QAEXHH@Z 00425580 f   soundparameter_window.obj
 0001:00024c30       ?RenderOutput@SoundParameterGraph@@QAEXHH@Z 00425c30 f   soundparameter_window.obj
 0001:00024ec0       ?Render@SoundParameterGraph@@UAEXHH_N0@Z 00425ec0 f   soundparameter_window.obj
 0001:00024fd0       ?Render@LinkTypeMenu@@EAEXHH_N0@Z 00425fd0 f i soundparameter_window.obj
 0001:00025010       ?MouseUp@LinkTypeMenu@@EAEXXZ 00426010 f i soundparameter_window.obj
 0001:00025040       ??0SoundParameterEditor@@QAE@PAD@Z 00426040 f   soundparameter_window.obj
 0001:00025090       ??_ESoundParameterEditor@@UAEPAXI@Z 00426090 f i * CIL library *:* CIL module *
 0001:00025090       ??_GSoundParameterEditor@@UAEPAXI@Z 00426090 f i soundparameter_window.obj
 0001:000250c0       ??1SoundParameterEditor@@UAE@XZ 004260c0 f i soundparameter_window.obj
 0001:000250d0       ?Create@SoundParameterEditor@@UAEXXZ 004260d0 f   soundparameter_window.obj
 0001:000253b0       ??0LinkTypeMenu@@QAE@XZ    004263b0 f i soundparameter_window.obj
 0001:000253d0       ??0UpdateTypeMenu@@QAE@XZ  004263d0 f i soundparameter_window.obj
 0001:000253f0       ??_ELinkTypeMenu@@UAEPAXI@Z 004263f0 f i * CIL library *:* CIL module *
 0001:000253f0       ??_GLinkTypeMenu@@UAEPAXI@Z 004263f0 f i soundparameter_window.obj
 0001:00025420       ??1LinkTypeMenu@@UAE@XZ    00426420 f i soundparameter_window.obj
 0001:00025430       ??_EUpdateTypeMenu@@UAEPAXI@Z 00426430 f i * CIL library *:* CIL module *
 0001:00025430       ??_GUpdateTypeMenu@@UAEPAXI@Z 00426430 f i soundparameter_window.obj
 0001:00025460       ??1UpdateTypeMenu@@UAE@XZ  00426460 f i soundparameter_window.obj
 0001:00025470       ?Update@SoundParameterEditor@@UAEXXZ 00426470 f   soundparameter_window.obj
 0001:00025480       ??$max@M@std@@YAABMABM0@Z  00426480 f i soundparameter_window.obj
 0001:00025490       _sqrtf                     00426490 f i soundparameter_window.obj
 0001:000254c0       ??_ESoundStatsWindow@@UAEPAXI@Z 004264c0 f i * CIL library *:* CIL module *
 0001:000254c0       ??_GSoundStatsWindow@@UAEPAXI@Z 004264c0 f i soundstats_window.obj
 0001:000254f0       ??1SoundStatsWindow@@UAE@XZ 004264f0 f   soundstats_window.obj
 0001:00025520       ?Create@SoundStatsWindow@@UAEXXZ 00426520 f   soundstats_window.obj
 0001:000255f0       ?Render@SoundStatsWindow@@UAEX_N@Z 004265f0 f   soundstats_window.obj
 0001:00025ef0       ??$Clamp@M@@YAXAAMMM@Z     00426ef0 f i soundstats_window.obj
 0001:00025f10       ??0ColourEditorWindow@@QAE@PAD0_NHH@Z 00426f10 f i styleeditor_window.obj
 0001:00026040       ?Create@ColourEditorWindow@@UAEXXZ 00427040 f i styleeditor_window.obj
 0001:00026160       ?Render@ColourEditorWindow@@UAEX_N@Z 00427160 f i styleeditor_window.obj
 0001:000263d0       ??_EColourEditorWindow@@UAEPAXI@Z 004273d0 f i * CIL library *:* CIL module *
 0001:000263d0       ??_GColourEditorWindow@@UAEPAXI@Z 004273d0 f i styleeditor_window.obj
 0001:00026410       ??1ColourEditorWindow@@UAE@XZ 00427410 f i styleeditor_window.obj
 0001:00026430       ??0ApplyStyleButton@@QAE@XZ 00427430 f i styleeditor_window.obj
 0001:00026440       ??1ApplyStyleButton@@UAE@XZ 00427440 f i styleeditor_window.obj
 0001:00026450       ??_EApplyStyleButton@@UAEPAXI@Z 00427450 f i * CIL library *:* CIL module *
 0001:00026450       ??_GApplyStyleButton@@UAEPAXI@Z 00427450 f i styleeditor_window.obj
 0001:00026480       ?MouseUp@ApplyStyleButton@@EAEXXZ 00427480 f   styleeditor_window.obj
 0001:00026510       ?Render@ColourButton@@UAEXHH_N0@Z 00427510 f i styleeditor_window.obj
 0001:00026630       ?MouseUp@ColourButton@@UAEXXZ 00427630 f i styleeditor_window.obj
 0001:00026860       ??0ListStylesDialog@@QAE@XZ 00427860 f i styleeditor_window.obj
 0001:00026890       ?FileSelected@ListStylesDialog@@UAEXPAD@Z 00427890 f i styleeditor_window.obj
 0001:00026a20       ??_EListStylesDialog@@UAEPAXI@Z 00427a20 f i * CIL library *:* CIL module *
 0001:00026a20       ??_GListStylesDialog@@UAEPAXI@Z 00427a20 f i styleeditor_window.obj
 0001:00026a50       ??1ListStylesDialog@@UAE@XZ 00427a50 f i styleeditor_window.obj
 0001:00026a60       ?MouseUp@LoadStylesButton@@EAEXXZ 00427a60 f i styleeditor_window.obj
 0001:00026b00       ?MouseUp@SaveStylesButton@@EAEXXZ 00427b00 f i styleeditor_window.obj
 0001:00026c70       ??0FontFileDialog@@QAE@PAD@Z 00427c70 f i styleeditor_window.obj
 0001:00026ca0       ?FileSelected@FontFileDialog@@UAEXPAD@Z 00427ca0 f i styleeditor_window.obj
 0001:00026d60       ??_EFontFileDialog@@UAEPAXI@Z 00427d60 f i * CIL library *:* CIL module *
 0001:00026d60       ??_GFontFileDialog@@UAEPAXI@Z 00427d60 f i styleeditor_window.obj
 0001:00026d90       ??1FontFileDialog@@UAE@XZ  00427d90 f i styleeditor_window.obj
 0001:00026da0       ?Render@FontFilenameButton@@UAEXHH_N0@Z 00427da0 f i styleeditor_window.obj
 0001:00026e60       ?MouseUp@FontFilenameButton@@UAEXXZ 00427e60 f i styleeditor_window.obj
 0001:00026f50       ?Render@StyleCheckBox@@UAEXHH_N0@Z 00427f50 f i styleeditor_window.obj
 0001:00026ff0       ?MouseUp@StyleCheckBox@@UAEXXZ 00427ff0 f i styleeditor_window.obj
 0001:00027050       ?Render@StyleInputField@@UAEXHH_N0@Z 00428050 f i styleeditor_window.obj
 0001:000270c0       ?MouseUp@StyleDefaultButton@@EAEXXZ 004280c0 f i styleeditor_window.obj
 0001:00027120       ??0StyleEditorWindow@@QAE@XZ 00428120 f   styleeditor_window.obj
 0001:000271f0       ??_EStyleEditorWindow@@UAEPAXI@Z 004281f0 f i * CIL library *:* CIL module *
 0001:000271f0       ??_GStyleEditorWindow@@UAEPAXI@Z 004281f0 f i styleeditor_window.obj
 0001:00027220       ??1StyleEditorWindow@@UAE@XZ 00428220 f   styleeditor_window.obj
 0001:00027250       ?Create@StyleEditorWindow@@UAEXXZ 00428250 f   styleeditor_window.obj
 0001:00027870       ??0ColourButton@@QAE@XZ    00428870 f i styleeditor_window.obj
 0001:00027880       ??0StyleCheckBox@@QAE@XZ   00428880 f i styleeditor_window.obj
 0001:00027890       ??0StyleInputField@@QAE@XZ 00428890 f i styleeditor_window.obj
 0001:000278a0       ??0FontFilenameButton@@QAE@XZ 004288a0 f i styleeditor_window.obj
 0001:000278b0       ??0StyleDefaultButton@@QAE@XZ 004288b0 f i styleeditor_window.obj
 0001:000278c0       ??0LoadStylesButton@@QAE@XZ 004288c0 f i styleeditor_window.obj
 0001:000278d0       ??0SaveStylesButton@@QAE@XZ 004288d0 f i styleeditor_window.obj
 0001:000278e0       ??_EColourButton@@UAEPAXI@Z 004288e0 f i * CIL library *:* CIL module *
 0001:000278e0       ??_GColourButton@@UAEPAXI@Z 004288e0 f i styleeditor_window.obj
 0001:00027910       ??1ColourButton@@UAE@XZ    00428910 f i styleeditor_window.obj
 0001:00027920       ??_EStyleCheckBox@@UAEPAXI@Z 00428920 f i * CIL library *:* CIL module *
 0001:00027920       ??_GStyleCheckBox@@UAEPAXI@Z 00428920 f i styleeditor_window.obj
 0001:00027950       ??1StyleCheckBox@@UAE@XZ   00428950 f i styleeditor_window.obj
 0001:00027960       ??_EStyleInputField@@UAEPAXI@Z 00428960 f i * CIL library *:* CIL module *
 0001:00027960       ??_GStyleInputField@@UAEPAXI@Z 00428960 f i styleeditor_window.obj
 0001:00027990       ??1StyleInputField@@UAE@XZ 00428990 f i styleeditor_window.obj
 0001:000279a0       ??_EFontFilenameButton@@UAEPAXI@Z 004289a0 f i * CIL library *:* CIL module *
 0001:000279a0       ??_GFontFilenameButton@@UAEPAXI@Z 004289a0 f i styleeditor_window.obj
 0001:000279d0       ??1FontFilenameButton@@UAE@XZ 004289d0 f i styleeditor_window.obj
 0001:000279e0       ??_EStyleDefaultButton@@UAEPAXI@Z 004289e0 f i * CIL library *:* CIL module *
 0001:000279e0       ??_GStyleDefaultButton@@UAEPAXI@Z 004289e0 f i styleeditor_window.obj
 0001:00027a10       ??1StyleDefaultButton@@UAE@XZ 00428a10 f i styleeditor_window.obj
 0001:00027a20       ??_ELoadStylesButton@@UAEPAXI@Z 00428a20 f i * CIL library *:* CIL module *
 0001:00027a20       ??_GLoadStylesButton@@UAEPAXI@Z 00428a20 f i styleeditor_window.obj
 0001:00027a50       ??1LoadStylesButton@@UAE@XZ 00428a50 f i styleeditor_window.obj
 0001:00027a60       ??_ESaveStylesButton@@UAEPAXI@Z 00428a60 f i * CIL library *:* CIL module *
 0001:00027a60       ??_GSaveStylesButton@@UAEPAXI@Z 00428a60 f i styleeditor_window.obj
 0001:00027a90       ??1SaveStylesButton@@UAE@XZ 00428a90 f i styleeditor_window.obj
 0001:00027aa0       ?Render@StyleEditorWindow@@UAEX_N@Z 00428aa0 f   styleeditor_window.obj
 0001:00027f00       ?Size@?$LList@PAVStyle@@@@QBEHXZ 00428f00 f i styleeditor_window.obj
 0001:00027f10       ?ValidIndex@?$LList@PAVStyle@@@@QBE_NH@Z 00428f10 f i styleeditor_window.obj
 0001:00027f30       ??A?$LList@PAVStyle@@@@QAEPAVStyle@@H@Z 00428f30 f i styleeditor_window.obj
 0001:00027f50       ?GetData@?$LList@PAVStyle@@@@QBEPAVStyle@@H@Z 00428f50 f i styleeditor_window.obj
 0001:00027f70       ?GetItem@?$LList@PAVStyle@@@@IBEPAV?$LListItem@PAVStyle@@@@H@Z 00428f70 f i styleeditor_window.obj
 0001:00028040       ??0exception@std@@QAE@QBDH@Z 00429040 f i debug_utils.obj
 0001:00028060       ??0exception@std@@QAE@ABV01@@Z 00429060 f i debug_utils.obj
 0001:00028090       ??1exception@std@@UAE@XZ   00429090 f i debug_utils.obj
 0001:000280b0       ?what@exception@std@@UBEPBDXZ 004290b0 f i debug_utils.obj
 0001:000280c0       ??_Eexception@std@@UAEPAXI@Z 004290c0 f i * CIL library *:* CIL module *
 0001:000280c0       ??_Gexception@std@@UAEPAXI@Z 004290c0 f i debug_utils.obj
 0001:000280f0       ??0bad_alloc@std@@AAE@QBD@Z 004290f0 f i debug_utils.obj
 0001:00028110       ??_Ebad_alloc@std@@UAEPAXI@Z 00429110 f i * CIL library *:* CIL module *
 0001:00028110       ??_Gbad_alloc@std@@UAEPAXI@Z 00429110 f i debug_utils.obj
 0001:00028140       ??1bad_alloc@std@@UAE@XZ   00429140 f i debug_utils.obj
 0001:00028160       ??0bad_array_new_length@std@@QAE@XZ 00429160 f i debug_utils.obj
 0001:00028180       ??_Ebad_array_new_length@std@@UAEPAXI@Z 00429180 f i * CIL library *:* CIL module *
 0001:00028180       ??_Gbad_array_new_length@std@@UAEPAXI@Z 00429180 f i debug_utils.obj
 0001:000281b0       ??1bad_array_new_length@std@@UAE@XZ 004291b0 f i debug_utils.obj
 0001:000281d0       ?_Throw_bad_array_new_length@std@@YAXXZ 004291d0 f i debug_utils.obj
 0001:000281f0       ??0bad_array_new_length@std@@QAE@ABV01@@Z 004291f0 f i debug_utils.obj
 0001:00028230       ??0bad_alloc@std@@QAE@ABV01@@Z 00429230 f i debug_utils.obj
 0001:00028270       ?_Allocate@_Default_allocate_traits@std@@SAPAXI@Z 00429270 f i debug_utils.obj
 0001:00028280       ?_Adjust_manually_vector_aligned@std@@YAXAAPAXAAI@Z 00429280 f i debug_utils.obj
 0001:000282b0       ?_Orphan_all@_Container_base0@std@@QAEXXZ 004292b0 f i debug_utils.obj
 0001:000282c0       ?_Alloc_proxy@_Container_base0@std@@QAEXABU_Fake_allocator@2@@Z 004292c0 f i debug_utils.obj
 0001:000282d0       ??0_Fake_proxy_ptr_impl@std@@QAE@ABU_Fake_allocator@1@ABU_Container_base0@1@@Z 004292d0 f i debug_utils.obj
 0001:000282e0       ?_Release@_Fake_proxy_ptr_impl@std@@QAEXXZ 004292e0 f i debug_utils.obj
 0001:000282f0       ?_Xlen_string@std@@YAXXZ   004292f0 f i debug_utils.obj
 0001:00028300       ?AppDebugOutRedirect@@YAXPBD@Z 00429300 f   debug_utils.obj
 0001:00028460       ?AppDebugOut@@YAXPBDZZ     00429460 f   debug_utils.obj
 0001:000285c0       ?AppDebugOutData@@YAXPAXH@Z 004295c0 f   debug_utils.obj
 0001:00028610       ?AppReleaseAssertFailed@@YAXPBDZZ 00429610 f   debug_utils.obj
 0001:00028670       ?getRetAddress@@YAPAIPAI@Z 00429670 f   debug_utils.obj
 0001:00028690       ?AppGenerateBlackBox@@YAXPBD0@Z 00429690 f   debug_utils.obj
 0001:00028800       ?empty@?$basic_string@DU?$char_traits@D@std@@V?$allocator@D@2@@std@@QBE_NXZ 00429800 f i debug_utils.obj
 0001:00028810       ?c_str@?$basic_string@DU?$char_traits@D@std@@V?$allocator@D@2@@std@@QBEPBDXZ 00429810 f i debug_utils.obj
 0001:00028820       ?clear@?$basic_string@DU?$char_traits@D@std@@V?$allocator@D@2@@std@@QAEXXZ 00429820 f i debug_utils.obj
 0001:00028850       ??4?$basic_string@DU?$char_traits@D@std@@V?$allocator@D@2@@std@@QAEAAV01@QBD@Z 00429850 f i debug_utils.obj
 0001:00028880       ??1?$basic_string@DU?$char_traits@D@std@@V?$allocator@D@2@@std@@QAE@XZ 00429880 f i debug_utils.obj
 0001:000288d0       ??0?$basic_string@DU?$char_traits@D@std@@V?$allocator@D@2@@std@@QAE@ABV01@@Z 004298d0 f i debug_utils.obj
 0001:000289a0       ??0?$basic_string@DU?$char_traits@D@std@@V?$allocator@D@2@@std@@QAE@XZ 004299a0 f i debug_utils.obj
 0001:000289c0       ??1?$_Compressed_pair@V?$allocator@D@std@@V?$_String_val@U?$_Simple_types@D@std@@@2@$00@std@@QAE@XZ 004299c0 f i debug_utils.obj
 0001:000289d0       ??1?$_String_val@U?$_Simple_types@D@std@@@std@@QAE@XZ 004299d0 f i debug_utils.obj
 0001:000289e0       ?_Getal@?$basic_string@DU?$char_traits@D@std@@V?$allocator@D@2@@std@@ABEABV?$allocator@D@2@XZ 004299e0 f i debug_utils.obj
 0001:000289f0       ?_Getal@?$basic_string@DU?$char_traits@D@std@@V?$allocator@D@2@@std@@AAEAAV?$allocator@D@2@XZ 004299f0 f i debug_utils.obj
 0001:00028a00       ?_Tidy_deallocate@?$basic_string@DU?$char_traits@D@std@@V?$allocator@D@2@@std@@AAEXXZ 00429a00 f i debug_utils.obj
 0001:00028a50       ?_Eos@?$basic_string@DU?$char_traits@D@std@@V?$allocator@D@2@@std@@AAEXI@Z 00429a50 f i debug_utils.obj
 0001:00028a80       ?assign@?$basic_string@DU?$char_traits@D@std@@V?$allocator@D@2@@std@@QAEAAV12@QBD@Z 00429a80 f i debug_utils.obj
 0001:00028ab0       ?_Construct_empty@?$basic_string@DU?$char_traits@D@std@@V?$allocator@D@2@@std@@AAEXXZ 00429ab0 f i debug_utils.obj
 0001:00028ad0       ??1_Bxty@?$_String_val@U?$_Simple_types@D@std@@@std@@QAE@XZ 00429ad0 f i debug_utils.obj
 0001:00028ae0       ?_Myptr@?$_String_val@U?$_Simple_types@D@std@@@std@@QBEPBDXZ 00429ae0 f i debug_utils.obj
 0001:00028af0       ?_Myptr@?$_String_val@U?$_Simple_types@D@std@@@std@@QAEPADXZ 00429af0 f i debug_utils.obj
 0001:00028b00       ?select_on_container_copy_construction@?$_Default_allocator_traits@V?$allocator@D@std@@@std@@SA?AV?$allocator@D@2@ABV32@@Z 00429b00 f i debug_utils.obj
 0001:00028b10       ?_Get_first@?$_Compressed_pair@V?$allocator@D@std@@V?$_String_val@U?$_Simple_types@D@std@@@2@$00@std@@QBEABV?$allocator@D@2@XZ 00429b10 f i debug_utils.obj
 0001:00028b20       ?_Get_first@?$_Compressed_pair@V?$allocator@D@std@@V?$_String_val@U?$_Simple_types@D@std@@@2@$00@std@@QAEAAV?$allocator@D@2@XZ 00429b20 f i debug_utils.obj
 0001:00028b30       ?assign@?$basic_string@DU?$char_traits@D@std@@V?$allocator@D@2@@std@@QAEAAV12@QBDI@Z 00429b30 f i debug_utils.obj
 0001:00028c50       ??R<lambda_9366063389c5f42a00a5088cf24e69de>@@QBE@QADIQBD@Z 00429c50 f i debug_utils.obj
 0001:00028c80       ?_Deallocate_for_capacity@?$basic_string@DU?$char_traits@D@std@@V?$allocator@D@2@@std@@CAXAAV?$allocator@D@2@QADI@Z 00429c80 f i debug_utils.obj
 0001:00028cc0       ?_Switch_to_buf@_Bxty@?$_String_val@U?$_Simple_types@D@std@@@std@@QAEXXZ 00429cc0 f i debug_utils.obj
 0001:00028cd0       ?_Activate_SSO_buffer@?$_String_val@U?$_Simple_types@D@std@@@std@@QAEXXZ 00429cd0 f i debug_utils.obj
 0001:00028ce0       ?_Large_mode_engaged@?$_String_val@U?$_Simple_types@D@std@@@std@@QBE_NXZ 00429ce0 f i debug_utils.obj
 0001:00028cf0       ?assign@?$_Narrow_char_traits@DH@std@@SAXAADABD@Z 00429cf0 f i debug_utils.obj
 0001:00028d00       ?length@?$_Narrow_char_traits@DH@std@@SAIQBD@Z 00429d00 f i debug_utils.obj
 0001:00028d20       ?copy@?$_Char_traits@DH@std@@SAPADQADQBDI@Z 00429d20 f i debug_utils.obj
 0001:00028d40       ??$max@I@std@@YAABIABI0@Z  00429d40 f i debug_utils.obj
 0001:00028d60       ?deallocate@?$allocator@D@std@@QAEXQADI@Z 00429d60 f i debug_utils.obj
 0001:00028da0       ?move@?$_Char_traits@DH@std@@SAPADQADQBDI@Z 00429da0 f i debug_utils.obj
 0001:00028dc0       ??$?8DU?$char_traits@D@std@@V?$allocator@D@1@@std@@YA_NABV?$basic_string@DU?$char_traits@D@std@@V?$allocator@D@2@@0@QBD@Z 00429dc0 f i debug_utils.obj
 0001:00028e70       ??$?0V?$allocator@D@std@@$$V@?$_Compressed_pair@V?$allocator@D@std@@V?$_String_val@U?$_Simple_types@D@std@@@2@$00@std@@QAE@U_One_then_variadic_args_t@1@$$QAV?$allocator@D@1@@Z 00429e70 f i debug_utils.obj
 0001:00028e90       ??$?0$$V@?$_Compressed_pair@V?$allocator@D@std@@V?$_String_val@U?$_Simple_types@D@std@@@2@$00@std@@QAE@U_Zero_then_variadic_args_t@1@@Z 00429e90 f i debug_utils.obj
 0001:00028eb0       ??$_Construct@$01PBD@?$basic_string@DU?$char_traits@D@std@@V?$allocator@D@2@@std@@AAEXQBDI@Z 00429eb0 f i debug_utils.obj
 0001:00028f60       ??$_Convert_size@II@std@@YAII@Z 00429f60 f i debug_utils.obj
 0001:00028f70       ??$_Unfancy@D@std@@YAPADPAD@Z 00429f70 f i debug_utils.obj
 0001:00028f80       ??$_Reallocate_for@V<lambda_9366063389c5f42a00a5088cf24e69de>@@PBD@?$basic_string@DU?$char_traits@D@std@@V?$allocator@D@2@@std@@AAEAAV01@IV<lambda_9366063389c5f42a00a5088cf24e69de>@@PBD@Z 00429f80 f i debug_utils.obj
 0001:00029070       ??$_Destroy_in_place@PAD@std@@YAXAAPAD@Z 0042a070 f i debug_utils.obj
 0001:00029080       ??$_Deallocate@$07@std@@YAXPAXI@Z 0042a080 f i debug_utils.obj
 0001:000290c0       ?_Calculate_growth@?$basic_string@DU?$char_traits@D@std@@V?$allocator@D@2@@std@@ABEII@Z 0042a0c0 f i debug_utils.obj
 0001:00029100       ?_Calculate_growth@?$basic_string@DU?$char_traits@D@std@@V?$allocator@D@2@@std@@CAIIII@Z 0042a100 f i debug_utils.obj
 0001:00029140       ?_Equal@?$basic_string@DU?$char_traits@D@std@@V?$allocator@D@2@@std@@QBE_NQBD@Z 0042a140 f i debug_utils.obj
 0001:000291f0       ?max_size@?$basic_string@DU?$char_traits@D@std@@V?$allocator@D@2@@std@@QBEIXZ 0042a1f0 f i debug_utils.obj
 0001:00029200       ??0?$_String_val@U?$_Simple_types@D@std@@@std@@QAE@XZ 0042a200 f i debug_utils.obj
 0001:00029220       ??0?$allocator@D@std@@QAE@XZ 0042a220 f i debug_utils.obj
 0001:00029230       ??0_Bxty@?$_String_val@U?$_Simple_types@D@std@@@std@@QAE@XZ 0042a230 f i debug_utils.obj
 0001:00029240       ?max_size@?$_Default_allocator_traits@V?$allocator@D@std@@@std@@SAIABV?$allocator@D@2@@Z 0042a240 f i debug_utils.obj
 0001:00029250       ??$forward@V?$allocator@D@std@@@std@@YA$$QAV?$allocator@D@0@AAV10@@Z 0042a250 f i debug_utils.obj
 0001:00029260       ??$_Allocate_for_capacity@$0A@@?$basic_string@DU?$char_traits@D@std@@V?$allocator@D@2@@std@@CAPADAAV?$allocator@D@1@AAI@Z 0042a260 f i debug_utils.obj
 0001:000292a0       ??$_Construct_in_place@PADABQAD@std@@YAXAAPADABQAD@Z 0042a2a0 f i debug_utils.obj
 0001:000292b0       ??$addressof@PAD@std@@YAPAPADAAPAD@Z 0042a2b0 f i debug_utils.obj
 0001:000292c0       ??$_Max_limit@H@std@@YAHXZ 0042a2c0 f i debug_utils.obj
 0001:000292d0       ??$min@I@std@@YAABIABI0@Z  0042a2d0 f i debug_utils.obj
 0001:000292f0       ??$_Traits_equal@U?$char_traits@D@std@@@std@@YA_NQBDI0I@Z 0042a2f0 f i debug_utils.obj
 0001:00029370       ?compare@?$_Narrow_char_traits@DH@std@@SAHQBD0I@Z 0042a370 f i debug_utils.obj
 0001:000293d0       ??$_Allocate_at_least_helper@V?$allocator@D@std@@@std@@YAPADAAV?$allocator@D@0@AAI@Z 0042a3d0 f i debug_utils.obj
 0001:00029400       ??$forward@ABQAD@std@@YAABQADABQAD@Z 0042a400 f i debug_utils.obj
 0001:00029410       ?allocate@?$allocator@D@std@@QAEPADI@Z 0042a410 f i debug_utils.obj
 0001:00029440       ??$_Allocate@$07U_Default_allocate_traits@std@@@std@@YAPAXI@Z 0042a440 f i debug_utils.obj
 0001:00029470       ??$_Get_size_of_n@$00@std@@YAII@Z 0042a470 f i debug_utils.obj
 0001:00029480       ??$_Allocate_manually_vector_aligned@U_Default_allocate_traits@std@@@std@@YAPAXI@Z 0042a480 f i debug_utils.obj
 0001:000294b0       ??2@YAPAXIPAX@Z            0042a4b0 f i debug_utils.obj
 0001:000294c0       __vfprintf_l               0042a4c0 f i debug_utils.obj
 0001:000294f0       _fprintf                   0042a4f0 f i debug_utils.obj
 0001:00029510       ??0EclButton@@QAE@XZ       0042a510 f   eclbutton.obj
 0001:00029590       ??_EEclButton@@UAEPAXI@Z   0042a590 f i * CIL library *:* CIL module *
 0001:00029590       ??_GEclButton@@UAEPAXI@Z   0042a590 f i eclbutton.obj
 0001:000295c0       ??1EclButton@@UAE@XZ       0042a5c0 f   eclbutton.obj
 0001:000295f0       ?SetProperties@EclButton@@UAEXPBDHHHH00_N1@Z 0042a5f0 f   eclbutton.obj
 0001:000296c0       ?SetCaption@EclButton@@UAEXPBD_N@Z 0042a6c0 f   eclbutton.obj
 0001:00029720       ?SetTooltip@EclButton@@UAEXPBD_N@Z 0042a720 f   eclbutton.obj
 0001:00029760       ?SetParent@EclButton@@UAEXPAVEclWindow@@@Z 0042a760 f   eclbutton.obj
 0001:00029770       ?Render@EclButton@@UAEXHH_N0@Z 0042a770 f   eclbutton.obj
 0001:00029780       ?MouseUp@EclButton@@UAEXXZ 0042a780 f   eclbutton.obj
 0001:00029790       ?MouseDown@EclButton@@UAEXXZ 0042a790 f   eclbutton.obj
 0001:000297a0       ?MouseMove@EclButton@@UAEXXZ 0042a7a0 f   eclbutton.obj
 0001:000297b0       ?Keypress@EclButton@@UAEXH_N00E@Z 0042a7b0 f   eclbutton.obj
 0001:000297c0       ?EclInitialise@@YAXHH@Z    0042a7c0 f   eclipse.obj
 0001:000297d0       ?EclUpdateMouse@@YAXHH_N0@Z 0042a7d0 f   eclipse.obj
 0001:00029cb0       ?EclMouseStatus@@YAHXZ     0042acb0 f   eclipse.obj
 0001:00029d80       ?EclUpdateKeyboard@@YAXH_N00E@Z 0042ad80 f   eclipse.obj
 0001:00029db0       ?EclRegisterTooltipCallback@@YAXP6AXPAVEclWindow@@PAVEclButton@@M@Z@Z 0042adb0 f   eclipse.obj
 0001:00029dc0       ?EclRender@@YAXXZ          0042adc0 f   eclipse.obj
 0001:00029f20       ?EclUpdate@@YAXXZ          0042af20 f   eclipse.obj
 0001:00029f60       ?EclShutdown@@YAXXZ        0042af60 f   eclipse.obj
 0001:00029f70       ?EclGetCurrentButton@@YAPBDXZ 0042af70 f   eclipse.obj
 0001:00029f80       ?EclGetCurrentClickedButton@@YAPBDXZ 0042af80 f   eclipse.obj
 0001:00029fa0       ?EclGenerateUniqueWindowName@@YAPBDPBD@Z 0042afa0 f   eclipse.obj
 0001:0002a000       ?EclRegisterWindow@@YAXPAVEclWindow@@0@Z 0042b000 f   eclipse.obj
 0001:0002a1f0       ?EclRemoveWindow@@YAXPBD@Z 0042b1f0 f   eclipse.obj
 0001:0002a2e0       ?EclRemoveAllWindows@@YAXXZ 0042b2e0 f   eclipse.obj
 0001:0002a3c0       ?EclSetWindowPosition@@YAXPBDHH@Z 0042b3c0 f   eclipse.obj
 0001:0002a400       ?EclSetWindowSize@@YAXPBDHH@Z 0042b400 f   eclipse.obj
 0001:0002a450       ?EclBringWindowToFront@@YAXPBD@Z 0042b450 f   eclipse.obj
 0001:0002a4b0       ?EclMouseInWindow@@YA_NPAVEclWindow@@@Z 0042b4b0 f   eclipse.obj
 0001:0002a510       ?EclMouseInButton@@YA_NPAVEclWindow@@PAVEclButton@@@Z 0042b510 f   eclipse.obj
 0001:0002a5b0       ?EclGetWindowIndex@@YAHPBD@Z 0042b5b0 f   eclipse.obj
 0001:0002a620       ?EclGetWindow@@YAPAVEclWindow@@PBD@Z 0042b620 f   eclipse.obj
 0001:0002a640       ?EclGetWindow@@YAPAVEclWindow@@HH@Z 0042b640 f   eclipse.obj
 0001:0002a6a0       ?EclGetWindow@@YAPAVEclWindow@@XZ 0042b6a0 f   eclipse.obj
 0001:0002a6c0       ?EclUnMaximise@@YAXXZ      0042b6c0 f   eclipse.obj
 0001:0002a710       ?EclGetWindows@@YAPAV?$LList@PAVEclWindow@@@@XZ 0042b710 f   eclipse.obj
 0001:0002a720       ?EclGetCurrentFocus@@YAPBDXZ 0042b720 f   eclipse.obj
 0001:0002a730       ?EclSetCurrentFocus@@YAXPBD@Z 0042b730 f   eclipse.obj
 0001:0002a760       ?EclGrabButton@@YAXXZ      0042b760 f   eclipse.obj
 0001:0002a770       ??0?$LList@PAVEclWindow@@@@QAE@XZ 0042b770 f i eclipse.obj
 0001:0002a7b0       ??1?$LList@PAVEclWindow@@@@QAE@XZ 0042b7b0 f i eclipse.obj
 0001:0002a7c0       ?PutDataAtStart@?$LList@PAVEclWindow@@@@QAEXABQAVEclWindow@@@Z 0042b7c0 f i eclipse.obj
 0001:0002a850       ?RemoveData@?$LList@PAVEclWindow@@@@QAEXH@Z 0042b850 f i eclipse.obj
 0001:0002a900       ?EmptyAndDelete@?$LList@PAVEclWindow@@@@QAEXXZ 0042b900 f i eclipse.obj
 0001:0002a9f0       ??A?$LList@PAVEclWindow@@@@QAEPAVEclWindow@@H@Z 0042b9f0 f i eclipse.obj
 0001:0002aa10       ??_G?$LListItem@PAVEclWindow@@@@QAEPAXI@Z 0042ba10 f i eclipse.obj
 0001:0002aa30       ?Empty@?$LList@PAVEclWindow@@@@QAEXXZ 0042ba30 f i eclipse.obj
 0001:0002aa80       ??0?$LListItem@PAVEclWindow@@@@QAE@XZ 0042ba80 f i eclipse.obj
 0001:0002aaa0       ??1?$LListItem@PAVEclWindow@@@@QAE@XZ 0042baa0 f i eclipse.obj
 0001:0002aab0       ??0EclWindow@@QAE@PBD0_N@Z 0042bab0 f   eclwindow.obj
 0001:0002ab80       ??_EEclWindow@@UAEPAXI@Z   0042bb80 f i * CIL library *:* CIL module *
 0001:0002ab80       ??_GEclWindow@@UAEPAXI@Z   0042bb80 f i eclwindow.obj
 0001:0002abb0       ??1EclWindow@@UAE@XZ       0042bbb0 f   eclwindow.obj
 0001:0002acf0       ?SetName@EclWindow@@QAEXPBD@Z 0042bcf0 f   eclwindow.obj
 0001:0002ad40       ?SetTitle@EclWindow@@QAEXPBD_N@Z 0042bd40 f   eclwindow.obj
 0001:0002ada0       ?SetPosition@EclWindow@@QAEXHH@Z 0042bda0 f   eclwindow.obj
 0001:0002adc0       ?SetSize@EclWindow@@QAEXHH@Z 0042bdc0 f   eclwindow.obj
 0001:0002ade0       ?SetMovable@EclWindow@@QAEX_N@Z 0042bde0 f   eclwindow.obj
 0001:0002adf0       ?BeginTextEdit@EclWindow@@QAEXPBD@Z 0042bdf0 f   eclwindow.obj
 0001:0002ae20       ?EndTextEdit@EclWindow@@QAEXXZ 0042be20 f   eclwindow.obj
 0001:0002ae40       ?RegisterButton@EclWindow@@QAEXPAVEclButton@@@Z 0042be40 f   eclwindow.obj
 0001:0002ae70       ?RemoveButton@EclWindow@@QAEXPBD@Z 0042be70 f   eclwindow.obj
 0001:0002af00       ?GetButton@EclWindow@@UAEPAVEclButton@@PBD@Z 0042bf00 f   eclwindow.obj
 0001:0002af80       ?GetButton@EclWindow@@UAEPAVEclButton@@HH@Z 0042bf80 f   eclwindow.obj
 0001:0002b000       ?Create@EclWindow@@UAEXXZ  0042c000 f   eclwindow.obj
 0001:0002b010       ?Remove@EclWindow@@UAEXXZ  0042c010 f   eclwindow.obj
 0001:0002b020       ?Update@EclWindow@@UAEXXZ  0042c020 f   eclwindow.obj
 0001:0002b030       ?Keypress@EclWindow@@UAEXH_N00E@Z 0042c030 f   eclwindow.obj
 0001:0002b050       ?MouseEvent@EclWindow@@UAEX_N000@Z 0042c050 f   eclwindow.obj
 0001:0002b060       ?Render@EclWindow@@UAEX_N@Z 0042c060 f   eclwindow.obj
 0001:0002b180       ??0?$LList@PAVEclButton@@@@QAE@XZ 0042c180 f i eclwindow.obj
 0001:0002b1b0       ??1?$LList@PAVEclButton@@@@QAE@XZ 0042c1b0 f i eclwindow.obj
 0001:0002b1c0       ?PutDataAtStart@?$LList@PAVEclButton@@@@QAEXABQAVEclButton@@@Z 0042c1c0 f i eclwindow.obj
 0001:0002b230       ?RemoveData@?$LList@PAVEclButton@@@@QAEXH@Z 0042c230 f i eclwindow.obj
 0001:0002b2f0       ?Empty@?$LList@PAVEclButton@@@@QAEXXZ 0042c2f0 f i eclwindow.obj
 0001:0002b340       ?EmptyAndDelete@?$LList@PAVEclButton@@@@QAEXXZ 0042c340 f i eclwindow.obj
 0001:0002b400       ??_G?$LListItem@PAVEclButton@@@@QAEPAXI@Z 0042c400 f i eclwindow.obj
 0001:0002b420       ??0?$LListItem@PAVEclButton@@@@QAE@XZ 0042c420 f i eclwindow.obj
 0001:0002b440       ??1?$LListItem@PAVEclButton@@@@QAE@XZ 0042c440 f i eclwindow.obj
 0001:0002b450       ??0BinaryReader@@QAE@XZ    0042c450 f   binary_stream_readers.obj
 0001:0002b460       ??_EBinaryReader@@UAEPAXI@Z 0042c460 f i * CIL library *:* CIL module *
 0001:0002b460       ??_GBinaryReader@@UAEPAXI@Z 0042c460 f i binary_stream_readers.obj
 0001:0002b490       ??1BinaryReader@@UAE@XZ    0042c490 f   binary_stream_readers.obj
 0001:0002b4a0       ??0BinaryFileReader@@QAE@PBD@Z 0042c4a0 f   binary_stream_readers.obj
 0001:0002b500       ??_EBinaryFileReader@@UAEPAXI@Z 0042c500 f i * CIL library *:* CIL module *
 0001:0002b500       ??_GBinaryFileReader@@UAEPAXI@Z 0042c500 f i binary_stream_readers.obj
 0001:0002b530       ??1BinaryFileReader@@UAE@XZ 0042c530 f   binary_stream_readers.obj
 0001:0002b560       ?IsOpen@BinaryFileReader@@UAE_NXZ 0042c560 f   binary_stream_readers.obj
 0001:0002b570       ?GetFileType@BinaryFileReader@@UAEPADXZ 0042c570 f   binary_stream_readers.obj
 0001:0002b5b0       ?ReadS8@BinaryFileReader@@UAECXZ 0042c5b0 f   binary_stream_readers.obj
 0001:0002b5d0       ?ReadU8@BinaryFileReader@@UAEEXZ 0042c5d0 f   binary_stream_readers.obj
 0001:0002b5f0       ?ReadS16@BinaryFileReader@@UAEFXZ 0042c5f0 f   binary_stream_readers.obj
 0001:0002b630       ?ReadS32@BinaryFileReader@@UAEHXZ 0042c630 f   binary_stream_readers.obj
 0001:0002b6a0       ?ReadBytes@BinaryFileReader@@UAEIIPAE@Z 0042c6a0 f   binary_stream_readers.obj
 0001:0002b6d0       ?Seek@BinaryFileReader@@UAEHHH@Z 0042c6d0 f   binary_stream_readers.obj
 0001:0002b6f0       ?Tell@BinaryFileReader@@UAEHXZ 0042c6f0 f   binary_stream_readers.obj
 0001:0002b700       ??0BinaryDataReader@@QAE@PBEIPBD@Z 0042c700 f   binary_stream_readers.obj
 0001:0002b750       ??_EBinaryDataReader@@UAEPAXI@Z 0042c750 f i * CIL library *:* CIL module *
 0001:0002b750       ??_GBinaryDataReader@@UAEPAXI@Z 0042c750 f i binary_stream_readers.obj
 0001:0002b780       ??1BinaryDataReader@@UAE@XZ 0042c780 f   binary_stream_readers.obj
 0001:0002b790       ?IsOpen@BinaryDataReader@@UAE_NXZ 0042c790 f   binary_stream_readers.obj
 0001:0002b7a0       ?GetFileType@BinaryDataReader@@UAEPADXZ 0042c7a0 f   binary_stream_readers.obj
 0001:0002b7e0       ?ReadS8@BinaryDataReader@@UAECXZ 0042c7e0 f   binary_stream_readers.obj
 0001:0002b810       ?ReadU8@BinaryDataReader@@UAEEXZ 0042c810 f   binary_stream_readers.obj
 0001:0002b840       ?ReadS16@BinaryDataReader@@UAEFXZ 0042c840 f   binary_stream_readers.obj
 0001:0002b890       ?ReadS32@BinaryDataReader@@UAEHXZ 0042c890 f   binary_stream_readers.obj
 0001:0002b910       ?ReadBytes@BinaryDataReader@@UAEIIPAE@Z 0042c910 f   binary_stream_readers.obj
 0001:0002b970       ?Seek@BinaryDataReader@@UAEHHH@Z 0042c970 f   binary_stream_readers.obj
 0001:0002b9c0       ?Tell@BinaryDataReader@@UAEHXZ 0042c9c0 f   binary_stream_readers.obj
 0001:0002b9d0       ?strrchr@@YAPADQADH@Z      0042c9d0 f i binary_stream_readers.obj
 0001:0002ba10       ?ListDirectory@@YAPAV?$LList@PAD@@PBD0_N@Z 0042ca10 f   filesys_utils.obj
 0001:0002bc90       ?ListSubDirectoryNames@@YAPAV?$LList@PAD@@PBD@Z 0042cc90 f   filesys_utils.obj
 0001:0002bdc0       ?DoesFileExist@@YA_NPBD@Z  0042cdc0 f   filesys_utils.obj
 0001:0002bdf0       ?ConcatPaths@@YAPADPBDZZ   0042cdf0 f   filesys_utils.obj
 0001:0002bed0       ?GetDirectoryPart@@YAPADPBD@Z 0042ced0 f   filesys_utils.obj
 0001:0002bf00       ?GetFilenamePart@@YAPADPBD@Z 0042cf00 f   filesys_utils.obj
 0001:0002bf30       ?GetExtensionPart@@YAPBDPBD@Z 0042cf30 f   filesys_utils.obj
 0001:0002bf40       ?RemoveExtension@@YAPADPBD@Z 0042cf40 f   filesys_utils.obj
 0001:0002bf70       ?CreateDirectoryA@@YA_NPBD@Z 0042cf70 f   filesys_utils.obj
 0001:0002bfa0       ?DeleteThisFile@@YAXPBD@Z  0042cfa0 f   filesys_utils.obj
 0001:0002bfb0       ?FindCaseInsensitive@@YAPBDPBD@Z 0042cfb0 f   filesys_utils.obj
 0001:0002bfc0       ?resize@?$basic_string@DU?$char_traits@D@std@@V?$allocator@D@2@@std@@QAEXID@Z 0042cfc0 f i filesys_utils.obj
 0001:0002bff0       ?size@?$basic_string@DU?$char_traits@D@std@@V?$allocator@D@2@@std@@QBEIXZ 0042cff0 f i filesys_utils.obj
 0001:0002c000       ??A?$basic_string@DU?$char_traits@D@std@@V?$allocator@D@2@@std@@QAEAADI@Z 0042d000 f i filesys_utils.obj
 0001:0002c020       ?append@?$basic_string@DU?$char_traits@D@std@@V?$allocator@D@2@@std@@QAEAAV12@ID@Z 0042d020 f i filesys_utils.obj
 0001:0002c1b0       ??R<lambda_c1b8c41cb4019640539cfd828748c4d4>@@QBE@QADQBDIID@Z 0042d1b0 f i filesys_utils.obj
 0001:0002c1f0       ??0?$basic_string@DU?$char_traits@D@std@@V?$allocator@D@2@@std@@QAE@QBD@Z 0042d1f0 f i filesys_utils.obj
 0001:0002c230       ?assign@?$_Narrow_char_traits@DH@std@@SAPADQADID@Z 0042d230 f i filesys_utils.obj
 0001:0002c250       ??$?HDU?$char_traits@D@std@@V?$allocator@D@1@@std@@YA?AV?$basic_string@DU?$char_traits@D@std@@V?$allocator@D@2@@0@ABV10@QBD@Z 0042d250 f i filesys_utils.obj
 0001:0002c350       ??$_Reallocate_grow_by@V<lambda_c1b8c41cb4019640539cfd828748c4d4>@@ID@?$basic_string@DU?$char_traits@D@std@@V?$allocator@D@2@@std@@AAEAAV01@IV<lambda_c1b8c41cb4019640539cfd828748c4d4>@@ID@Z 0042d350 f i filesys_utils.obj
 0001:0002c4a0       ??$_Construct@$00PBD@?$basic_string@DU?$char_traits@D@std@@V?$allocator@D@2@@std@@AAEXQBDI@Z 0042d4a0 f i filesys_utils.obj
 0001:0002c560       ??0?$basic_string@DU?$char_traits@D@std@@V?$allocator@D@2@@std@@QAE@U_String_constructor_concat_tag@1@ABV01@QBDI2I@Z 0042d560 f i filesys_utils.obj
 0001:0002c620       ??0FileSystem@@QAE@XZ      0042d620 f   file_system.obj
 0001:0002c640       ??1FileSystem@@QAE@XZ      0042d640 f   file_system.obj
 0001:0002c660       ?ParseArchives@FileSystem@@QAEXPBD0@Z 0042d660 f   file_system.obj
 0001:0002c710       ?ParseArchive@FileSystem@@QAEXPBD@Z 0042d710 f   file_system.obj
 0001:0002c850       ??_GMemMappedFile@@QAEPAXI@Z 0042d850 f i file_system.obj
 0001:0002c870       ?GetTextReader@FileSystem@@QAEPAVTextReader@@PBD@Z 0042d870 f   file_system.obj
 0001:0002ca50       ?GetBinaryReader@FileSystem@@QAEPAVBinaryReader@@PBD@Z 0042da50 f   file_system.obj
 0001:0002cbe0       ?WildCmp@@YAHPBD0@Z        0042dbe0 f   file_system.obj
 0001:0002cc80       ?OrderedInsert@@YAXPAV?$LList@PAD@@PAD@Z 0042dc80 f   file_system.obj
 0001:0002cd90       ?ListArchive@FileSystem@@QAEPAV?$LList@PAD@@PAD0_N@Z 0042dd90 f   file_system.obj
 0001:0002cfd0       ??_G?$DArray@PAD@@QAEPAXI@Z 0042dfd0 f i file_system.obj
 0001:0002cff0       ?ClearSearchPath@FileSystem@@QAEXXZ 0042dff0 f   file_system.obj
 0001:0002d000       ?AddSearchPath@FileSystem@@QAEXPAD@Z 0042e000 f   file_system.obj
 0001:0002d030       ??1?$DArray@PAD@@QAE@XZ    0042e030 f i file_system.obj
 0001:0002d040       ?GetData@?$DArray@PAD@@QBEPADH@Z 0042e040 f i file_system.obj
 0001:0002d0a0       ?Size@?$DArray@PAD@@QBEHXZ 0042e0a0 f i file_system.obj
 0001:0002d0b0       ?ValidIndex@?$DArray@PAD@@QBE_NH@Z 0042e0b0 f i file_system.obj
 0001:0002d0e0       ??0?$BTree@PAVMemMappedFile@@@@QAE@XZ 0042e0e0 f i file_system.obj
 0001:0002d100       ??1?$BTree@PAVMemMappedFile@@@@QAE@XZ 0042e100 f i file_system.obj
 0001:0002d110       ?PutData@?$BTree@PAVMemMappedFile@@@@QAEXPBDABQAVMemMappedFile@@@Z 0042e110 f i file_system.obj
 0001:0002d230       ?RemoveData@?$BTree@PAVMemMappedFile@@@@QAEXPBD@Z 0042e230 f i file_system.obj
 0001:0002d3a0       ?GetData@?$BTree@PAVMemMappedFile@@@@QAEPAVMemMappedFile@@PBD@Z 0042e3a0 f i file_system.obj
 0001:0002d3c0       ?Size@?$BTree@PAVMemMappedFile@@@@QBEHXZ 0042e3c0 f i file_system.obj
 0001:0002d3f0       ?ConvertIndexToDArray@?$BTree@PAVMemMappedFile@@@@QAEPAV?$DArray@PAD@@XZ 0042e3f0 f i file_system.obj
 0001:0002d430       ?EmptyAndDeleteArray@?$LList@PAD@@QAEXXZ 0042e430 f i file_system.obj
 0001:0002d500       ??0?$DArray@PAD@@QAE@XZ    0042e500 f i file_system.obj
 0001:0002d520       ?Empty@?$DArray@PAD@@QAEXXZ 0042e520 f i file_system.obj
 0001:0002d550       ?RecursiveConvertIndexToDArray@?$BTree@PAVMemMappedFile@@@@IAEXPAV?$DArray@PAD@@PAV1@@Z 0042e550 f i file_system.obj
 0001:0002d5b0       ?AppendRight@?$BTree@PAVMemMappedFile@@@@IAEXPAV1@@Z 0042e5b0 f i file_system.obj
 0001:0002d5e0       ??0?$BTree@PAVMemMappedFile@@@@QAE@PBDABQAVMemMappedFile@@@Z 0042e5e0 f i file_system.obj
 0001:0002d640       ?LookupTree@?$BTree@PAVMemMappedFile@@@@QAEPAV1@PBD@Z 0042e640 f i file_system.obj
 0001:0002d690       ?Empty@?$BTree@PAVMemMappedFile@@@@QAEXXZ 0042e690 f i file_system.obj
 0001:0002d6f0       ?Left@?$BTree@PAVMemMappedFile@@@@QBEPAV1@XZ 0042e6f0 f i file_system.obj
 0001:0002d700       ?Right@?$BTree@PAVMemMappedFile@@@@QBEPAV1@XZ 0042e700 f i file_system.obj
 0001:0002d710       ??_G?$BTree@PAVMemMappedFile@@@@QAEPAXI@Z 0042e710 f i file_system.obj
 0001:0002d730       ?PutData@?$DArray@PAD@@QAEHABQAD@Z 0042e730 f i file_system.obj
 0001:0002d780       ?Grow@?$DArray@PAD@@IAEXXZ 0042e780 f i file_system.obj
 0001:0002d7b0       ?SetSize@?$DArray@PAD@@QAEXH@Z 0042e7b0 f i file_system.obj
 0001:0002d8d0       ??0TextFileWriter@@QAE@PBD_N@Z 0042e8d0 f   text_file_writer.obj
 0001:0002d920       ??1TextFileWriter@@QAE@XZ  0042e920 f   text_file_writer.obj
 0001:0002d930       ?printf@TextFileWriter@@QAAHPBDZZ 0042e930 f   text_file_writer.obj
 0001:0002d9f0       ??0TextReader@@QAE@XZ      0042e9f0 f   text_stream_readers.obj
 0001:0002da60       ??_ETextReader@@UAEPAXI@Z  0042ea60 f i * CIL library *:* CIL module *
 0001:0002da60       ??_GTextReader@@UAEPAXI@Z  0042ea60 f i text_stream_readers.obj
 0001:0002da90       ??1TextReader@@UAE@XZ      0042ea90 f   text_stream_readers.obj
 0001:0002dab0       ?DoubleMaxLineLen@TextReader@@IAEXXZ 0042eab0 f   text_stream_readers.obj
 0001:0002db20       ?CleanLine@TextReader@@IAEXXZ 0042eb20 f   text_stream_readers.obj
 0001:0002dc30       ?SetSeperatorChars@TextReader@@QAEXPBD@Z 0042ec30 f   text_stream_readers.obj
 0001:0002dc50       ?TokenAvailable@TextReader@@QAE_NXZ 0042ec50 f   text_stream_readers.obj
 0001:0002dca0       ?GetNextToken@TextReader@@QAEPADXZ 0042eca0 f   text_stream_readers.obj
 0001:0002dd60       ?GetRestOfLine@TextReader@@QAEPADXZ 0042ed60 f   text_stream_readers.obj
 0001:0002ddb0       ??0TextFileReader@@QAE@PBD@Z 0042edb0 f   text_stream_readers.obj
 0001:0002de20       ??_ETextFileReader@@UAEPAXI@Z 0042ee20 f i * CIL library *:* CIL module *
 0001:0002de20       ??_GTextFileReader@@UAEPAXI@Z 0042ee20 f i text_stream_readers.obj
 0001:0002de50       ??1TextFileReader@@UAE@XZ  0042ee50 f   text_stream_readers.obj
 0001:0002de80       ?IsOpen@TextFileReader@@UAE_NXZ 0042ee80 f   text_stream_readers.obj
 0001:0002dea0       ?ReadLine@TextFileReader@@UAE_NXZ 0042eea0 f   text_stream_readers.obj
 0001:0002df30       ??0TextDataReader@@QAE@PBDI0@Z 0042ef30 f   text_stream_readers.obj
 0001:0002df80       ??_ETextDataReader@@UAEPAXI@Z 0042ef80 f i * CIL library *:* CIL module *
 0001:0002df80       ??_GTextDataReader@@UAEPAXI@Z 0042ef80 f i text_stream_readers.obj
 0001:0002dfb0       ??1TextDataReader@@UAE@XZ  0042efb0 f i text_stream_readers.obj
 0001:0002dfc0       ?IsOpen@TextDataReader@@UAE_NXZ 0042efc0 f   text_stream_readers.obj
 0001:0002dfd0       ?ReadLine@TextDataReader@@UAE_NXZ 0042efd0 f   text_stream_readers.obj
 0001:0002e080       ??0InputManager@@QAE@XZ    0042f080 f   input.obj
 0001:0002e140       ??_EInputManager@@UAEPAXI@Z 0042f140 f i * CIL library *:* CIL module *
 0001:0002e140       ??_GInputManager@@UAEPAXI@Z 0042f140 f i input.obj
 0001:0002e170       ??1InputManager@@UAE@XZ    0042f170 f   input.obj
 0001:0002e180       ?Advance@InputManager@@QAEXXZ 0042f180 f   input.obj
 0001:0002e2b0       ?Create@InputManager@@SAPAV1@XZ 0042f2b0 f   input.obj
 0001:0002e2d0       ?GetWindowManagerWin32@@YAPAVWindowManagerWin32@@XZ 0042f2d0 f i input_win32.obj
 0001:0002e2e0       ??0InputManagerWin32@@QAE@XZ 0042f2e0 f   input_win32.obj
 0001:0002e300       ??_EInputManagerWin32@@UAEPAXI@Z 0042f300 f i * CIL library *:* CIL module *
 0001:0002e300       ??_GInputManagerWin32@@UAEPAXI@Z 0042f300 f i input_win32.obj
 0001:0002e330       ??1InputManagerWin32@@UAE@XZ 0042f330 f i input_win32.obj
 0001:0002e340       ?ResetWindowHandle@InputManagerWin32@@UAEXXZ 0042f340 f   input_win32.obj
 0001:0002e360       ?BindAltTab@InputManagerWin32@@UAEXXZ 0042f360 f   input_win32.obj
 0001:0002e3a0       ?UnbindAltTab@InputManagerWin32@@UAEXXZ 0042f3a0 f   input_win32.obj
 0001:0002e3f0       ?WaitEvent@InputManagerWin32@@UAEXXZ 0042f3f0 f   input_win32.obj
 0001:0002e400       ?EventHandler@InputManagerWin32@@UAEHI_JH_N@Z 0042f400 f   input_win32.obj
 0001:0002e7e0       ??0Win32Library@@QAE@PBD@Z 0042f7e0 f   win32library.obj
 0001:0002e800       ??1Win32Library@@QAE@XZ    0042f800 f   win32library.obj
 0001:0002e810       ?GetProcAddress@Win32Library@@QAEPAXPBD@Z 0042f810 f   win32library.obj
 0001:0002e830       ??0WindowManager@@QAE@XZ   0042f830 f   window_manager.obj
 0001:0002e870       ??_EWindowManager@@UAEPAXI@Z 0042f870 f i * CIL library *:* CIL module *
 0001:0002e870       ??_GWindowManager@@UAEPAXI@Z 0042f870 f i window_manager.obj
 0001:0002e8a0       ??1WindowManager@@UAE@XZ   0042f8a0 f   window_manager.obj
 0001:0002e8b0       ?SuggestDefaultRes@WindowManager@@QAEXPAH000@Z 0042f8b0 f   window_manager.obj
 0001:0002e8e0       ?GetResolutionId@WindowManager@@QAEHHH@Z 0042f8e0 f   window_manager.obj
 0001:0002e930       ?GetResolution@WindowManager@@QAEPAVWindowResolution@@H@Z 0042f930 f   window_manager.obj
 0001:0002e960       ?GetHighDPIScaleX@WindowManager@@QBEMXZ 0042f960 f   window_manager.obj
 0001:0002e970       ?GetHighDPIScaleY@WindowManager@@QBEMXZ 0042f970 f   window_manager.obj
 0001:0002e980       ?Windowed@WindowManager@@QAE_NXZ 0042f980 f   window_manager.obj
 0001:0002e990       ?RegisterMessageHandler@WindowManager@@QAEXP6AJIJ_J@Z@Z 0042f990 f   window_manager.obj
 0001:0002e9a0       ?GetSecondaryMessageHandler@WindowManager@@QAEP6AJIJ_J@ZXZ 0042f9a0 f   window_manager.obj
 0001:0002e9b0       ??1DeleteWindowManagerOnExit@@QAE@XZ 0042f9b0 f i window_manager.obj
 0001:0002ea10       ?Create@WindowManager@@SAPAV1@XZ 0042fa10 f   window_manager.obj
 0001:0002ea60       ??0?$LList@PAVWindowResolution@@@@QAE@XZ 0042fa60 f i window_manager.obj
 0001:0002ea90       ??1?$LList@PAVWindowResolution@@@@QAE@XZ 0042fa90 f i window_manager.obj
 0001:0002eaa0       ?Empty@?$LList@PAVWindowResolution@@@@QAEXXZ 0042faa0 f i window_manager.obj
 0001:0002eaf0       ??_G?$LListItem@PAVWindowResolution@@@@QAEPAXI@Z 0042faf0 f i window_manager.obj
 0001:0002eb10       ??1?$LListItem@PAVWindowResolution@@@@QAE@XZ 0042fb10 f i window_manager.obj
 0001:0002eb20       ??0WindowResolution@@QAE@HH@Z 0042fb20 f i window_manager_win32.obj
 0001:0002eb40       ?WndProc@@YGJPAUHWND__@@IIJ@Z 0042fb40 f   window_manager_win32.obj
 0001:0002ebc0       ??0WindowManagerWin32@@QAE@XZ 0042fbc0 f   window_manager_win32.obj
 0001:0002ec50       ??_EWindowManagerWin32@@UAEPAXI@Z 0042fc50 f i * CIL library *:* CIL module *
 0001:0002ec50       ??_GWindowManagerWin32@@UAEPAXI@Z 0042fc50 f i window_manager_win32.obj
 0001:0002ec80       ??1WindowManagerWin32@@UAE@XZ 0042fc80 f i window_manager_win32.obj
 0001:0002ec90       ?SaveDesktop@WindowManagerWin32@@QAEXXZ 0042fc90 f   window_manager_win32.obj
 0001:0002ed00       ?RestoreDesktop@WindowManagerWin32@@QAEXXZ 0042fd00 f   window_manager_win32.obj
 0001:0002edc0       ?EnableOpenGL@WindowManagerWin32@@IAEXHH@Z 0042fdc0 f   window_manager_win32.obj
 0001:0002eef0       ?DisableOpenGL@WindowManagerWin32@@IAEXXZ 0042fef0 f   window_manager_win32.obj
 0001:0002ef20       ?ListAllDisplayModes@WindowManagerWin32@@IAEXXZ 0042ff20 f   window_manager_win32.obj
 0001:0002f090       ?CreateWin@WindowManagerWin32@@UAE_NHH_NHHHHPBD@Z 00430090 f   window_manager_win32.obj
 0001:0002f2c0       ?HideWin@WindowManagerWin32@@UAEXXZ 004302c0 f   window_manager_win32.obj
 0001:0002f2f0       ?DestroyWin@WindowManagerWin32@@UAEXXZ 004302f0 f   window_manager_win32.obj
 0001:0002f310       ?Flip@WindowManagerWin32@@UAEXXZ 00430310 f   window_manager_win32.obj
 0001:0002f330       ?PollForMessages@WindowManagerWin32@@UAEXXZ 00430330 f   window_manager_win32.obj
 0001:0002f390       ?SetMousePos@WindowManagerWin32@@UAEXHH@Z 00430390 f   window_manager_win32.obj
 0001:0002f410       ?GethInstance@WindowManagerWin32@@QAEPAUHINSTANCE__@@XZ 00430410 f   window_manager_win32.obj
 0001:0002f420       ?CaptureMouse@WindowManagerWin32@@UAEXXZ 00430420 f   window_manager_win32.obj
 0001:0002f440       ?UncaptureMouse@WindowManagerWin32@@UAEXXZ 00430440 f   window_manager_win32.obj
 0001:0002f450       ?HideMousePointer@WindowManagerWin32@@UAEXXZ 00430450 f   window_manager_win32.obj
 0001:0002f470       ?UnhideMousePointer@WindowManagerWin32@@UAEXXZ 00430470 f   window_manager_win32.obj
 0001:0002f490       ?OpenWebsite@WindowManagerWin32@@UAEXPBD@Z 00430490 f   window_manager_win32.obj
 0001:0002f4b0       _WinMain@16                004304b0 f   window_manager_win32.obj
 0001:0002f4e0       ?PutDataAtEnd@?$LList@PAVWindowResolution@@@@QAEXABQAVWindowResolution@@@Z 004304e0 f i window_manager_win32.obj
 0001:0002f540       ?PutDataAtIndex@?$LList@PAVWindowResolution@@@@QAEXABQAVWindowResolution@@H@Z 00430540 f i window_manager_win32.obj
 0001:0002f5e0       ?FindData@?$LList@H@@QAEHABH@Z 004305e0 f i window_manager_win32.obj
 0001:0002f630       ?PutDataAtStart@?$LList@PAVWindowResolution@@@@QAEXABQAVWindowResolution@@@Z 00430630 f i window_manager_win32.obj
 0001:0002f6a0       ??0?$LListItem@PAVWindowResolution@@@@QAE@XZ 004306a0 f i window_manager_win32.obj
 0001:0002f6c0       ?InitialiseHighResTime@@YAXXZ 004306c0 f   hi_res_time.obj
 0001:0002f700       ?GetHighResTime@@YANXZ     00430700 f   hi_res_time.obj
 0001:0002f730       ??0LanguageTable@@QAE@XZ   00430730 f   language_table.obj
 0001:0002f7c0       ??1LanguageTable@@QAE@XZ   004307c0 f   language_table.obj
 0001:0002f880       ?Initialise@LanguageTable@@QAEXXZ 00430880 f   language_table.obj
 0001:0002f890       ?SetAdditionalTranslation@LanguageTable@@QAEXPBD@Z 00430890 f   language_table.obj
 0001:0002f8e0       ?LoadLanguages@LanguageTable@@QAEXXZ 004308e0 f   language_table.obj
 0001:0002fa60       ?LoadLanguageCaption@LanguageTable@@IAE_NPAVLanguage@@@Z 00430a60 f   language_table.obj
 0001:0002fb60       ?SetDefaultLanguage@LanguageTable@@QAEXPBD_N@Z 00430b60 f   language_table.obj
 0001:0002fba0       ?LoadCurrentLanguage@LanguageTable@@QAEXPBD@Z 00430ba0 f   language_table.obj
 0001:0002fd10       ?SaveCurrentLanguage@LanguageTable@@QAE_NPAVLanguage@@@Z 00430d10 f   language_table.obj
 0001:0002fd60       ?GetLanguageSelectable@LanguageTable@@QAE_NPBD@Z 00430d60 f   language_table.obj
 0001:0002fdc0       ?LoadLanguage@LanguageTable@@IAEXPBDAAV?$BTree@PAD@@_NPAD@Z 00430dc0 f   language_table.obj
 0001:0002ff90       ?LoadBaseLanguage@LanguageTable@@IAEXPBD@Z 00430f90 f   language_table.obj
 0001:0002ffb0       ?LoadTranslation@LanguageTable@@IAEXPBD@Z 00430fb0 f   language_table.obj
 0001:0002ffd0       ?ClearBaseLanguage@LanguageTable@@QAEXXZ 00430fd0 f   language_table.obj
 0001:00030010       ?ClearTranslation@LanguageTable@@QAEXXZ 00431010 f   language_table.obj
 0001:00030080       ?DoesPhraseExist@LanguageTable@@QAE_NPBD@Z 00431080 f   language_table.obj
 0001:000300b0       ?DoesTranslationExist@LanguageTable@@QAE_NPBD@Z 004310b0 f   language_table.obj
 0001:000300e0       ?LookupBasePhrase@LanguageTable@@QAEPBDPBD@Z 004310e0 f   language_table.obj
 0001:00030130       ?LookupPhrase@LanguageTable@@QAEPBDPBD@Z 00431130 f   language_table.obj
 0001:00030180       ?LookupPhraseAdditional@LanguageTable@@QAEPBDPBD@Z 00431180 f   language_table.obj
 0001:000301b0       ?ReplaceStringFlag@LanguageTable@@QAEHDPBDPAD@Z 004311b0 f   language_table.obj
 0001:000302a0       ?ReplaceIntegerFlag@LanguageTable@@QAEHDHPAD@Z 004312a0 f   language_table.obj
 0001:000302f0       ?DoesFlagExist@LanguageTable@@QAE_NDPBD@Z 004312f0 f   language_table.obj
 0001:00030340       ?ClearLanguagePhraseErrors@LanguageTable@@IAEXXZ 00431340 f   language_table.obj
 0001:000303a0       ?DebugLookupPhrase@LanguageTable@@QAEPBDPBDH0@Z 004313a0 f   language_table.obj
 0001:000304b0       ?LanguageTableIsNewLanguagePhraseError@LanguageTable@@IAE_NPBDHDPADH@Z 004314b0 f   language_table.obj
 0001:00030560       ?DebugReplaceStringFlag@LanguageTable@@QAEHPBDHD0PAD@Z 00431560 f   language_table.obj
 0001:000305f0       ?DebugReplaceIntegerFlag@LanguageTable@@QAEHPBDHDHPAD@Z 004315f0 f   language_table.obj
 0001:00030680       ??0Language@@QAE@XZ        00431680 f   language_table.obj
 0001:000306d0       ?EmptyAndDelete@?$DArray@PAD@@QAEXXZ 004316d0 f i language_table.obj
 0001:00030710       ??0?$BTree@PAD@@QAE@XZ     00431710 f i language_table.obj
 0001:00030730       ??1?$BTree@PAD@@QAE@XZ     00431730 f i language_table.obj
 0001:00030770       ?PutData@?$BTree@PAD@@QAEXPBDABQAD@Z 00431770 f i language_table.obj
 0001:00030890       ?RemoveData@?$BTree@PAD@@QAEXPBD@Z 00431890 f i language_table.obj
 0001:00030a00       ?GetData@?$BTree@PAD@@QAEPADPBD@Z 00431a00 f i language_table.obj
 0001:00030a20       ?LookupTree@?$BTree@PAD@@QAEPAV1@PBD@Z 00431a20 f i language_table.obj
 0001:00030a70       ?Empty@?$BTree@PAD@@QAEXXZ 00431a70 f i language_table.obj
 0001:00030ad0       ?ConvertToDArray@?$BTree@PAD@@QAEPAV?$DArray@PAD@@XZ 00431ad0 f i language_table.obj
 0001:00030b00       ??0?$LList@PAVLanguage@@@@QAE@XZ 00431b00 f i language_table.obj
 0001:00030b30       ??1?$LList@PAVLanguage@@@@QAE@XZ 00431b30 f i language_table.obj
 0001:00030b40       ?PutData@?$LList@PAVLanguage@@@@QAEXABQAVLanguage@@@Z 00431b40 f i language_table.obj
 0001:00030b50       ?GetData@?$LList@PAVLanguage@@@@QBEPAVLanguage@@H@Z 00431b50 f i language_table.obj
 0001:00030b70       ?Size@?$LList@PAVLanguage@@@@QBEHXZ 00431b70 f i language_table.obj
 0001:00030b80       ?EmptyAndDelete@?$LList@PAVLanguage@@@@QAEXXZ 00431b80 f i language_table.obj
 0001:00030c60       ??_G?$BTree@PAD@@QAEPAXI@Z 00431c60 f i language_table.obj
 0001:00030c80       ?RecursiveConvertToDArray@?$BTree@PAD@@IAEXPAV?$DArray@PAD@@PAV1@@Z 00431c80 f i language_table.obj
 0001:00030ce0       ?AppendRight@?$BTree@PAD@@IAEXPAV1@@Z 00431ce0 f i language_table.obj
 0001:00030d10       ??0?$BTree@PAD@@QAE@PBDABQAD@Z 00431d10 f i language_table.obj
 0001:00030d70       ?Left@?$BTree@PAD@@QBEPAV1@XZ 00431d70 f i language_table.obj
 0001:00030d80       ?Right@?$BTree@PAD@@QBEPAV1@XZ 00431d80 f i language_table.obj
 0001:00030d90       ?GetItem@?$LList@PAVLanguage@@@@IBEPAV?$LListItem@PAVLanguage@@@@H@Z 00431d90 f i language_table.obj
 0001:00030e40       ?PutDataAtEnd@?$LList@PAVLanguage@@@@QAEXABQAVLanguage@@@Z 00431e40 f i language_table.obj
 0001:00030ea0       ?RemoveData@?$LList@PAVLanguage@@@@QAEXH@Z 00431ea0 f i language_table.obj
 0001:00030f30       ?Empty@?$LList@PAVLanguage@@@@QAEXXZ 00431f30 f i language_table.obj
 0001:00030f80       ??_G?$LListItem@PAVLanguage@@@@QAEPAXI@Z 00431f80 f i language_table.obj
 0001:00030fa0       ?ValidIndex@?$LList@PAVLanguage@@@@QBE_NH@Z 00431fa0 f i language_table.obj
 0001:00030fc0       ??0?$LListItem@PAVLanguage@@@@QAE@XZ 00431fc0 f i language_table.obj
 0001:00030fe0       ??1?$LListItem@PAVLanguage@@@@QAE@XZ 00431fe0 f i language_table.obj
 0001:00030ff0       ??0exception@std@@QAE@QBD@Z 00431ff0 f i fixed_float.obj
 0001:00031030       ?min@?$numeric_limits@H@std@@SAHXZ 00432030 f i fixed_float.obj
 0001:00031040       ?max@?$numeric_limits@H@std@@SAHXZ 00432040 f i fixed_float.obj
 0001:00031050       ?_Swap_proxy_and_iterators@_Container_base0@std@@QAEXAAU12@@Z 00432050 f i fixed_float.obj
 0001:00031060       ??0runtime_error@std@@QAE@ABV?$basic_string@DU?$char_traits@D@std@@V?$allocator@D@2@@1@@Z 00432060 f i fixed_float.obj
 0001:000310b0       ??_Eruntime_error@std@@UAEPAXI@Z 004320b0 f i * CIL library *:* CIL module *
 0001:000310b0       ??_Gruntime_error@std@@UAEPAXI@Z 004320b0 f i fixed_float.obj
 0001:000310e0       ??1runtime_error@std@@UAE@XZ 004320e0 f i fixed_float.obj
 0001:00031100       ??0runtime_error@std@@QAE@ABV01@@Z 00432100 f i fixed_float.obj
 0001:00031140       ??8error_category@std@@QBE_NABV01@@Z 00432140 f i fixed_float.obj
 0001:00031160       ??1error_category@std@@UAE@XZ 00432160 f i fixed_float.obj
 0001:00031170       ??0error_code@std@@QAE@HABVerror_category@1@@Z 00432170 f i fixed_float.obj
 0001:00031190       ?value@error_code@std@@QBEHXZ 00432190 f i fixed_float.obj
 0001:000311a0       ?category@error_code@std@@QBEABVerror_category@2@XZ 004321a0 f i fixed_float.obj
 0001:000311b0       ?message@error_code@std@@QBE?AV?$basic_string@DU?$char_traits@D@std@@V?$allocator@D@2@@2@XZ 004321b0 f i fixed_float.obj
 0001:000311d0       ??0error_condition@std@@QAE@HABVerror_category@1@@Z 004321d0 f i fixed_float.obj
 0001:000311f0       ?value@error_condition@std@@QBEHXZ 004321f0 f i fixed_float.obj
 0001:00031200       ?category@error_condition@std@@QBEABVerror_category@2@XZ 00432200 f i fixed_float.obj
 0001:00031210       ??8std@@YA_NABVerror_condition@0@0@Z 00432210 f i fixed_float.obj
 0001:00031240       ?default_error_condition@error_category@std@@UBE?AVerror_condition@2@H@Z 00432240 f i fixed_float.obj
 0001:00031260       ?equivalent@error_category@std@@UBE_NHABVerror_condition@2@@Z 00432260 f i fixed_float.obj
 0001:000312a0       ?equivalent@error_category@std@@UBE_NABVerror_code@2@H@Z 004322a0 f i fixed_float.obj
 0001:000312d0       ?make_error_code@std@@YA?AVerror_code@1@W4io_errc@1@@Z 004322d0 f i fixed_float.obj
 0001:000312f0       ?_Makestr@_System_error@std@@CA?AV?$basic_string@DU?$char_traits@D@std@@V?$allocator@D@2@@2@Verror_code@2@V32@@Z 004322f0 f i fixed_float.obj
 0001:00031400       ??0_System_error@std@@IAE@Verror_code@1@ABV?$basic_string@DU?$char_traits@D@std@@V?$allocator@D@2@@1@@Z 00432400 f i fixed_float.obj
 0001:000315b0       ??_E_System_error@std@@UAEPAXI@Z 004325b0 f i * CIL library *:* CIL module *
 0001:000315b0       ??_G_System_error@std@@UAEPAXI@Z 004325b0 f i fixed_float.obj
 0001:000315e0       ??1_System_error@std@@UAE@XZ 004325e0 f i fixed_float.obj
 0001:00031600       ??0system_error@std@@QAE@Verror_code@1@PBD@Z 00432600 f i fixed_float.obj
 0001:000316f0       ??_Esystem_error@std@@UAEPAXI@Z 004326f0 f i * CIL library *:* CIL module *
 0001:000316f0       ??_Gsystem_error@std@@UAEPAXI@Z 004326f0 f i fixed_float.obj
 0001:00031720       ??1system_error@std@@UAE@XZ 00432720 f i fixed_float.obj
 0001:00031740       ??0system_error@std@@QAE@ABV01@@Z 00432740 f i fixed_float.obj
 0001:00031790       ??0_System_error@std@@QAE@ABV01@@Z 00432790 f i fixed_float.obj
 0001:000317e0       ?name@_Iostream_error_category2@std@@UBEPBDXZ 004327e0 f i fixed_float.obj
 0001:000317f0       ?message@_Iostream_error_category2@std@@UBE?AV?$basic_string@DU?$char_traits@D@std@@V?$allocator@D@2@@2@H@Z 004327f0 f i fixed_float.obj
 0001:00031870       ??_E_Iostream_error_category2@std@@UAEPAXI@Z 00432870 f i * CIL library *:* CIL module *
 0001:00031870       ??_G_Iostream_error_category2@std@@UAEPAXI@Z 00432870 f i fixed_float.obj
 0001:00031890       ??1_Iostream_error_category2@std@@UAE@XZ 00432890 f i fixed_float.obj
 0001:000318a0       ?iostream_category@std@@YAABVerror_category@1@XZ 004328a0 f i fixed_float.obj
 0001:000318b0       ??0bad_cast@std@@QAE@XZ    004328b0 f i fixed_float.obj
 0001:000318d0       ??_Ebad_cast@std@@UAEPAXI@Z 004328d0 f i * CIL library *:* CIL module *
 0001:000318d0       ??_Gbad_cast@std@@UAEPAXI@Z 004328d0 f i fixed_float.obj
 0001:00031900       ??1bad_cast@std@@UAE@XZ    00432900 f i fixed_float.obj
 0001:00031920       ?_Throw_bad_cast@std@@YAXXZ 00432920 f i fixed_float.obj
 0001:00031940       ??0bad_cast@std@@QAE@ABV01@@Z 00432940 f i fixed_float.obj
 0001:00031980       ??1_Facet_base@std@@UAE@XZ 00432980 f i fixed_float.obj
 0001:00031990       ??_E_Facet_base@std@@UAEPAXI@Z 00432990 f i * CIL library *:* CIL module *
 0001:00031990       ??_G_Facet_base@std@@UAEPAXI@Z 00432990 f i fixed_float.obj
 0001:000319c0       ??0_Locinfo@std@@QAE@PBD@Z 004329c0 f i fixed_float.obj
 0001:00031a70       ??1_Locinfo@std@@QAE@XZ    00432a70 f i fixed_float.obj
 0001:00031b50       ?_Getctype@_Locinfo@std@@QBE?AU_Ctypevec@@XZ 00432b50 f i fixed_float.obj
 0001:00031b80       ?_Getcvt@_Locinfo@std@@QBE?AU_Cvtvec@@XZ 00432b80 f i fixed_float.obj
 0001:00031bc0       ?_Getlconv@_Locinfo@std@@QBEPBUlconv@@XZ 00432bc0 f i fixed_float.obj
 0001:00031bd0       ?_Getfalse@_Locinfo@std@@QBEPBDXZ 00432bd0 f i fixed_float.obj
 0001:00031be0       ?_Gettrue@_Locinfo@std@@QBEPBDXZ 00432be0 f i fixed_float.obj
 0001:00031bf0       ?_Incref@facet@locale@std@@UAEXXZ 00432bf0 f i fixed_float.obj
 0001:00031c00       ?_Decref@facet@locale@std@@UAEPAV_Facet_base@3@XZ 00432c00 f i fixed_float.obj
 0001:00031c20       ??0facet@locale@std@@IAE@I@Z 00432c20 f i fixed_float.obj
 0001:00031c40       ??1facet@locale@std@@MAE@XZ 00432c40 f i fixed_float.obj
 0001:00031c50       ??0locale@std@@QAE@ABV01@@Z 00432c50 f i fixed_float.obj
 0001:00031c70       ??1locale@std@@QAE@XZ      00432c70 f i fixed_float.obj
 0001:00031c90       ?_C_str@locale@std@@QBEPBDXZ 00432c90 f i fixed_float.obj
 0001:00031cb0       ?_Getfacet@locale@std@@QBEPBVfacet@12@I@Z 00432cb0 f i fixed_float.obj
 0001:00031d00       ??_Efacet@locale@std@@MAEPAXI@Z 00432d00 f i * CIL library *:* CIL module *
 0001:00031d00       ??_Gfacet@locale@std@@MAEPAXI@Z 00432d00 f i fixed_float.obj
 0001:00031d30       ??0_Facet_base@std@@QAE@XZ 00432d30 f i fixed_float.obj
 0001:00031d40       ??0ctype_base@std@@QAE@I@Z 00432d40 f i fixed_float.obj
 0001:00031d60       ??1ctype_base@std@@UAE@XZ  00432d60 f i fixed_float.obj
 0001:00031d70       ??_Ectype_base@std@@UAEPAXI@Z 00432d70 f i * CIL library *:* CIL module *
 0001:00031d70       ??_Gctype_base@std@@UAEPAXI@Z 00432d70 f i fixed_float.obj
 0001:00031da0       ?widen@?$ctype@D@std@@QBEPBDPBD0PAD@Z 00432da0 f i fixed_float.obj
 0001:00031db0       ??0?$ctype@D@std@@QAE@ABV_Locinfo@1@I@Z 00432db0 f i fixed_float.obj
 0001:00031df0       ?_Getcat@?$ctype@D@std@@SAIPAPBVfacet@locale@2@PBV42@@Z 00432df0 f i fixed_float.obj
 0001:00031fc0       ??1?$ctype@D@std@@MAE@XZ   00432fc0 f i fixed_float.obj
 0001:00032000       ?_Init@?$ctype@D@std@@IAEXABV_Locinfo@2@@Z 00433000 f i fixed_float.obj
 0001:00032030       ?_Tidy@?$ctype@D@std@@IAEXXZ 00433030 f i fixed_float.obj
 0001:00032070       ?do_tolower@?$ctype@D@std@@MBEDD@Z 00433070 f i fixed_float.obj
 0001:00032090       ?do_tolower@?$ctype@D@std@@MBEPBDPADPBD@Z 00433090 f i fixed_float.obj
 0001:000320c0       ?do_toupper@?$ctype@D@std@@MBEDD@Z 004330c0 f i fixed_float.obj
 0001:000320e0       ?do_toupper@?$ctype@D@std@@MBEPBDPADPBD@Z 004330e0 f i fixed_float.obj
 0001:00032110       ?do_widen@?$ctype@D@std@@MBEDD@Z 00433110 f i fixed_float.obj
 0001:00032120       ?do_widen@?$ctype@D@std@@MBEPBDPBD0PAD@Z 00433120 f i fixed_float.obj
 0001:00032140       ?do_narrow@?$ctype@D@std@@MBEDDD@Z 00433140 f i fixed_float.obj
 0001:00032150       ?do_narrow@?$ctype@D@std@@MBEPBDPBD0DPAD@Z 00433150 f i fixed_float.obj
 0001:00032170       ??_E?$ctype@D@std@@MAEPAXI@Z 00433170 f i * CIL library *:* CIL module *
 0001:00032170       ??_G?$ctype@D@std@@MAEPAXI@Z 00433170 f i fixed_float.obj
 0001:000321d0       ??0failure@ios_base@std@@QAE@PBDABVerror_code@2@@Z 004331d0 f i fixed_float.obj
 0001:000322d0       ?clear@ios_base@std@@QAEXH_N@Z 004332d0 f i fixed_float.obj
 0001:00032350       ?rdstate@ios_base@std@@QBEHXZ 00433350 f i fixed_float.obj
 0001:00032360       ?good@ios_base@std@@QBE_NXZ 00433360 f i fixed_float.obj
 0001:00032370       ?flags@ios_base@std@@QBEHXZ 00433370 f i fixed_float.obj
 0001:00032380       ?setf@ios_base@std@@QAEHHH@Z 00433380 f i fixed_float.obj
 0001:000323a0       ?precision@ios_base@std@@QBE_JXZ 004333a0 f i fixed_float.obj
 0001:000323b0       ?width@ios_base@std@@QBE_JXZ 004333b0 f i fixed_float.obj
 0001:000323c0       ?width@ios_base@std@@QAE_J_J@Z 004333c0 f i fixed_float.obj
 0001:000323e0       ?getloc@ios_base@std@@QBE?AVlocale@2@XZ 004333e0 f i fixed_float.obj
 0001:00032400       ??_Efailure@ios_base@std@@UAEPAXI@Z 00433400 f i * CIL library *:* CIL module *
 0001:00032400       ??_Gfailure@ios_base@std@@UAEPAXI@Z 00433400 f i fixed_float.obj
 0001:00032430       ??1failure@ios_base@std@@UAE@XZ 00433430 f i fixed_float.obj
 0001:00032450       ??0failure@ios_base@std@@QAE@ABV012@@Z 00433450 f i fixed_float.obj
 0001:000324a0       ?hex@std@@YAAAVios_base@1@AAV21@@Z 004334a0 f i fixed_float.obj
 0001:000324c0       ?CLAMP@@YANN@Z             004334c0 f i fixed_float.obj
 0001:000324e0       ??0Fixed@@AAE@N@Z          004334e0 f i fixed_float.obj
 0001:00032500       ??0Fixed@@QAE@XZ           00433500 f i fixed_float.obj
 0001:00032510       ??0Fixed@@QAE@H@Z          00433510 f i fixed_float.obj
 0001:00032540       ??0Fixed@@QAE@ABV0@@Z      00433540 f i fixed_float.obj
 0001:00032560       ?FromDouble@Fixed@@SA?AV1@N@Z 00433560 f i fixed_float.obj
 0001:00032590       ??MFixed@@QBE_NABV0@@Z     00433590 f i fixed_float.obj
 0001:000325b0       ??PFixed@@QBE_NABV0@@Z     004335b0 f i fixed_float.obj
 0001:000325d0       ??OFixed@@QBE_NABV0@@Z     004335d0 f i fixed_float.obj
 0001:000325f0       ??GFixed@@QBE?AV0@XZ       004335f0 f i fixed_float.obj
 0001:00032610       ??G@YA?AVFixed@@ABV0@0@Z   00433610 f i fixed_float.obj
 0001:00032640       ??D@YA?AVFixed@@ABV0@0@Z   00433640 f i fixed_float.obj
 0001:00032670       ?Hundredths@Fixed@@SA?AV1@H@Z 00433670 f   fixed_float.obj
 0001:000326b0       ?IntValue@Fixed@@QBEHXZ    004336b0 f   fixed_float.obj
 0001:000326d0       ?max@@YA?AVFixed@@ABV1@0@Z 004336d0 f   fixed_float.obj
 0001:00032700       ?sin@@YA?AVFixed@@ABV1@@Z  00433700 f   fixed_float.obj
 0001:000327f0       ?cos@@YA?AVFixed@@ABV1@@Z  004337f0 f   fixed_float.obj
 0001:00032820       ?asin@@YA?AVFixed@@ABV1@@Z 00433820 f   fixed_float.obj
 0001:000328e0       ?acos@@YA?AVFixed@@ABV1@@Z 004338e0 f   fixed_float.obj
 0001:00032920       ??1?$_Yarn@_W@std@@QAE@XZ  00433920 f i fixed_float.obj
 0001:00032940       ??0?$_Yarn@_W@std@@QAE@XZ  00433940 f i fixed_float.obj
 0001:00032950       ?c_str@?$_Yarn@D@std@@QBEPBDXZ 00433950 f i fixed_float.obj
 0001:00032960       ??1?$_Yarn@D@std@@QAE@XZ   00433960 f i fixed_float.obj
 0001:00032980       ??0?$_Yarn@D@std@@QAE@XZ   00433980 f i fixed_float.obj
 0001:00032990       ?append@?$basic_string@DU?$char_traits@D@std@@V?$allocator@D@2@@std@@QAEAAV12@QBD@Z 00433990 f i fixed_float.obj
 0001:000329c0       ?append@?$basic_string@DU?$char_traits@D@std@@V?$allocator@D@2@@std@@QAEAAV12@ABV12@@Z 004339c0 f i fixed_float.obj
 0001:000329e0       ??0?$basic_string@DU?$char_traits@D@std@@V?$allocator@D@2@@std@@QAE@$$QAV01@@Z 004339e0 f i fixed_float.obj
 0001:00032a30       ??0?$basic_string@DU?$char_traits@D@std@@V?$allocator@D@2@@std@@QAE@QBDI@Z 00433a30 f i fixed_float.obj
 0001:00032a60       ?do_put@?$num_put@DV?$ostreambuf_iterator@DU?$char_traits@D@std@@@std@@@std@@MBE?AV?$ostreambuf_iterator@DU?$char_traits@D@std@@@2@V32@AAVios_base@2@DPBX@Z 00433a60 f i fixed_float.obj
 0001:00032ad0       ?do_put@?$num_put@DV?$ostreambuf_iterator@DU?$char_traits@D@std@@@std@@@std@@MBE?AV?$ostreambuf_iterator@DU?$char_traits@D@std@@@2@V32@AAVios_base@2@DO@Z 00433ad0 f i fixed_float.obj
 0001:00032ce0       ?do_put@?$num_put@DV?$ostreambuf_iterator@DU?$char_traits@D@std@@@std@@@std@@MBE?AV?$ostreambuf_iterator@DU?$char_traits@D@std@@@2@V32@AAVios_base@2@DN@Z 00433ce0 f i fixed_float.obj
 0001:00032ef0       ?do_put@?$num_put@DV?$ostreambuf_iterator@DU?$char_traits@D@std@@@std@@@std@@MBE?AV?$ostreambuf_iterator@DU?$char_traits@D@std@@@2@V32@AAVios_base@2@D_K@Z 00433ef0 f i fixed_float.obj
 0001:00032fd0       ?do_put@?$num_put@DV?$ostreambuf_iterator@DU?$char_traits@D@std@@@std@@@std@@MBE?AV?$ostreambuf_iterator@DU?$char_traits@D@std@@@2@V32@AAVios_base@2@D_J@Z 00433fd0 f i fixed_float.obj
 0001:000330b0       ?do_put@?$num_put@DV?$ostreambuf_iterator@DU?$char_traits@D@std@@@std@@@std@@MBE?AV?$ostreambuf_iterator@DU?$char_traits@D@std@@@2@V32@AAVios_base@2@DK@Z 004340b0 f i fixed_float.obj
 0001:00033180       ?do_put@?$num_put@DV?$ostreambuf_iterator@DU?$char_traits@D@std@@@std@@@std@@MBE?AV?$ostreambuf_iterator@DU?$char_traits@D@std@@@2@V32@AAVios_base@2@DJ@Z 00434180 f i fixed_float.obj
 0001:00033250       ?do_put@?$num_put@DV?$ostreambuf_iterator@DU?$char_traits@D@std@@@std@@@std@@MBE?AV?$ostreambuf_iterator@DU?$char_traits@D@std@@@2@V32@AAVios_base@2@D_N@Z 00434250 f i fixed_float.obj
 0001:00033440       ??1?$num_put@DV?$ostreambuf_iterator@DU?$char_traits@D@std@@@std@@@std@@MAE@XZ 00434440 f i fixed_float.obj
 0001:00033450       ??Bsentry@?$basic_ostream@DU?$char_traits@D@std@@@std@@QBE_NXZ 00434450 f i fixed_float.obj
 0001:00033460       ??1sentry@?$basic_ostream@DU?$char_traits@D@std@@@std@@QAE@XZ 00434460 f i fixed_float.obj
 0001:000334d0       ??0sentry@?$basic_ostream@DU?$char_traits@D@std@@@std@@QAE@AAV12@@Z 004344d0 f i fixed_float.obj
 0001:00033570       ?fill@?$basic_ios@DU?$char_traits@D@std@@@std@@QBEDXZ 00434570 f i fixed_float.obj
 0001:00033580       ?rdbuf@?$basic_ios@DU?$char_traits@D@std@@@std@@QBEPAV?$basic_streambuf@DU?$char_traits@D@std@@@2@XZ 00434580 f i fixed_float.obj
 0001:00033590       ?setstate@?$basic_ios@DU?$char_traits@D@std@@@std@@QAEXH_N@Z 00434590 f i fixed_float.obj
 0001:000335c0       ?_Tidy@?$_Yarn@_W@std@@AAEXXZ 004345c0 f i fixed_float.obj
 0001:000335e0       ?_Tidy@?$_Yarn@D@std@@AAEXXZ 004345e0 f i fixed_float.obj
 0001:00033600       ?append@?$basic_string@DU?$char_traits@D@std@@V?$allocator@D@2@@std@@QAEAAV12@QBDI@Z 00434600 f i fixed_float.obj
 0001:00033790       ??R<lambda_ab246b20b9526e2ef7792587e4298a77>@@QBE@QADQBDI1I@Z 00434790 f i fixed_float.obj
 0001:000337d0       ?_Take_contents@?$basic_string@DU?$char_traits@D@std@@V?$allocator@D@2@@std@@AAEXAAV12@@Z 004347d0 f i fixed_float.obj
 0001:00033800       ??_E?$num_put@DV?$ostreambuf_iterator@DU?$char_traits@D@std@@@std@@@std@@MAEPAXI@Z 00434800 f i * CIL library *:* CIL module *
 0001:00033800       ??_G?$num_put@DV?$ostreambuf_iterator@DU?$char_traits@D@std@@@std@@@std@@MAEPAXI@Z 00434800 f i fixed_float.obj
 0001:00033830       ?do_truename@?$numpunct@D@std@@MBE?AV?$basic_string@DU?$char_traits@D@std@@V?$allocator@D@2@@2@XZ 00434830 f i fixed_float.obj
 0001:00033880       ?do_falsename@?$numpunct@D@std@@MBE?AV?$basic_string@DU?$char_traits@D@std@@V?$allocator@D@2@@2@XZ 00434880 f i fixed_float.obj
 0001:000338d0       ?do_grouping@?$numpunct@D@std@@MBE?AV?$basic_string@DU?$char_traits@D@std@@V?$allocator@D@2@@2@XZ 004348d0 f i fixed_float.obj
 0001:00033920       ?do_thousands_sep@?$numpunct@D@std@@MBEDXZ 00434920 f i fixed_float.obj
 0001:00033930       ?do_decimal_point@?$numpunct@D@std@@MBEDXZ 00434930 f i fixed_float.obj
 0001:00033940       ??1?$numpunct@D@std@@MAE@XZ 00434940 f i fixed_float.obj
 0001:00033970       ?truename@?$numpunct@D@std@@QBE?AV?$basic_string@DU?$char_traits@D@std@@V?$allocator@D@2@@2@XZ 00434970 f i fixed_float.obj
 0001:00033990       ?falsename@?$numpunct@D@std@@QBE?AV?$basic_string@DU?$char_traits@D@std@@V?$allocator@D@2@@2@XZ 00434990 f i fixed_float.obj
 0001:000339b0       ?_Rep@?$num_put@DV?$ostreambuf_iterator@DU?$char_traits@D@std@@@std@@@std@@ABA?AV?$ostreambuf_iterator@DU?$char_traits@D@std@@@2@V32@DI@Z 004349b0 f i fixed_float.obj
 0001:00033a20       ?_Put@?$num_put@DV?$ostreambuf_iterator@DU?$char_traits@D@std@@@std@@@std@@ABA?AV?$ostreambuf_iterator@DU?$char_traits@D@std@@@2@V32@PBDI@Z 00434a20 f i fixed_float.obj
 0001:00033a90       ?_Iput@?$num_put@DV?$ostreambuf_iterator@DU?$char_traits@D@std@@@std@@@std@@ABA?AV?$ostreambuf_iterator@DU?$char_traits@D@std@@@2@V32@AAVios_base@2@DPADI@Z 00434a90 f i fixed_float.obj
 0001:00033e80       ?_Ifmt@?$num_put@DV?$ostreambuf_iterator@DU?$char_traits@D@std@@@std@@@std@@ABAPADPADPBDH@Z 00434e80 f i fixed_float.obj
 0001:00033f10       ?_Ffmt@?$num_put@DV?$ostreambuf_iterator@DU?$char_traits@D@std@@@std@@@std@@ABAPADPADDH@Z 00434f10 f i fixed_float.obj
 0001:00033fd0       ??1_Sentry_base@?$basic_ostream@DU?$char_traits@D@std@@@std@@QAE@XZ 00434fd0 f i fixed_float.obj
 0001:00034020       ??0_Sentry_base@?$basic_ostream@DU?$char_traits@D@std@@@std@@QAE@AAV12@@Z 00435020 f i fixed_float.obj
 0001:00034050       ?flush@?$basic_ostream@DU?$char_traits@D@std@@@std@@QAEAAV12@XZ 00435050 f i fixed_float.obj
 0001:00034160       ?_Osfx@?$basic_ostream@DU?$char_traits@D@std@@@std@@QAEXXZ 00435160 f i fixed_float.obj
 0001:000341f0       ?tie@?$basic_ios@DU?$char_traits@D@std@@@std@@QBEPAV?$basic_ostream@DU?$char_traits@D@std@@@2@XZ 004351f0 f i fixed_float.obj
 0001:00034200       ?clear@?$basic_ios@DU?$char_traits@D@std@@@std@@QAEXH_N@Z 00435200 f i fixed_float.obj
 0001:00034220       ?_Swap_proxy_and_iterators@?$basic_string@DU?$char_traits@D@std@@V?$allocator@D@2@@std@@AAEXAAV12@@Z 00435220 f i fixed_float.obj
 0001:00034230       ?assign@?$basic_string@DU?$char_traits@D@std@@V?$allocator@D@2@@std@@QAEAAV12@$$QAV12@@Z 00435230 f i fixed_float.obj
 0001:00034250       ??_E?$numpunct@D@std@@MAEPAXI@Z 00435250 f i * CIL library *:* CIL module *
 0001:00034250       ??_G?$numpunct@D@std@@MAEPAXI@Z 00435250 f i fixed_float.obj
 0001:000342a0       ?pubsync@?$basic_streambuf@DU?$char_traits@D@std@@@std@@QAEHXZ 004352a0 f i fixed_float.obj
 0001:000342b0       ?_Tidy@?$numpunct@D@std@@AAEXXZ 004352b0 f i fixed_float.obj
 0001:000342d0       ?grouping@?$numpunct@D@std@@QBE?AV?$basic_string@DU?$char_traits@D@std@@V?$allocator@D@2@@2@XZ 004352d0 f i fixed_float.obj
 0001:000342f0       ?thousands_sep@?$numpunct@D@std@@QBEDXZ 004352f0 f i fixed_float.obj
 0001:00034300       ??E?$ostreambuf_iterator@DU?$char_traits@D@std@@@std@@QAEAAV01@XZ 00435300 f i fixed_float.obj
 0001:00034310       ??D?$ostreambuf_iterator@DU?$char_traits@D@std@@@std@@QAEAAV01@XZ 00435310 f i fixed_float.obj
 0001:00034320       ??4?$ostreambuf_iterator@DU?$char_traits@D@std@@@std@@QAEAAV01@D@Z 00435320 f i fixed_float.obj
 0001:00034370       ??A?$basic_string@DU?$char_traits@D@std@@V?$allocator@D@2@@std@@QBEABDI@Z 00435370 f i fixed_float.obj
 0001:00034390       ?insert@?$basic_string@DU?$char_traits@D@std@@V?$allocator@D@2@@std@@QAEAAV12@IID@Z 00435390 f i fixed_float.obj
 0001:00034410       ??R<lambda_6607a66f2a10a1261ff9db96cba1015b>@@QBE@QADQBDIIID@Z 00435410 f i fixed_float.obj
 0001:00034460       ??4?$basic_string@DU?$char_traits@D@std@@V?$allocator@D@2@@std@@QAEAAV01@$$QAV01@@Z 00435460 f i fixed_float.obj
 0001:000344e0       ??0?$basic_string@DU?$char_traits@D@std@@V?$allocator@D@2@@std@@QAE@ID@Z 004354e0 f i fixed_float.obj
 0001:000345c0       ?_Pnavail@?$basic_streambuf@DU?$char_traits@D@std@@@std@@IBE_JXZ 004355c0 f i fixed_float.obj
 0001:000345e0       ?sputc@?$basic_streambuf@DU?$char_traits@D@std@@@std@@QAEHD@Z 004355e0 f i fixed_float.obj
 0001:00034620       ?_Check_offset@?$_String_val@U?$_Simple_types@D@std@@@std@@QBEXI@Z 00435620 f i fixed_float.obj
 0001:00034640       ?eof@?$_Narrow_char_traits@DH@std@@SAHXZ 00435640 f i fixed_float.obj
 0001:00034650       ?eq_int_type@?$_Narrow_char_traits@DH@std@@SA_NHH@Z 00435650 f i fixed_float.obj
 0001:00034660       ?to_int_type@?$_Narrow_char_traits@DH@std@@SAHD@Z 00435660 f i fixed_float.obj
 0001:00034670       ?_Pninc@?$basic_streambuf@DU?$char_traits@D@std@@@std@@IAEPADXZ 00435670 f i fixed_float.obj
 0001:00034680       ?_Xran@?$_String_val@U?$_Simple_types@D@std@@@std@@SAXXZ 00435680 f i fixed_float.obj
 0001:00034690       ??$_Bit_cast@IT_Addr_storage@error_category@std@@$0A@@std@@YAIABT_Addr_storage@error_category@0@@Z 00435690 f i fixed_float.obj
 0001:000346a0       ??$_Immortalize_memcpy_image@V_Iostream_error_category2@std@@@std@@YAABV_Iostream_error_category2@0@XZ 004356a0 f i fixed_float.obj
 0001:000346b0       ??$_Adl_verify_range@PBDPBD@std@@YAXABQBD0@Z 004356b0 f i fixed_float.obj
 0001:000346c0       ??$use_facet@V?$ctype@D@std@@@std@@YAABV?$ctype@D@0@ABVlocale@0@@Z 004356c0 f i fixed_float.obj
 0001:000347e0       ??$_Adl_verify_range@PADPBD@std@@YAXABQADABQBD@Z 004357e0 f i fixed_float.obj
 0001:000347f0       ??$use_facet@V?$num_put@DV?$ostreambuf_iterator@DU?$char_traits@D@std@@@std@@@std@@@std@@YAABV?$num_put@DV?$ostreambuf_iterator@DU?$char_traits@D@std@@@std@@@0@ABVlocale@0@@Z 004357f0 f i fixed_float.obj
 0001:00034910       ??$move@AAV?$allocator@D@std@@@std@@YA$$QAV?$allocator@D@0@AAV10@@Z 00435910 f i fixed_float.obj
 0001:00034920       ??$_Float_put_desired_precision@O@std@@YAH_JH@Z 00435920 f i fixed_float.obj
 0001:00034960       ??$isfinite@O@@YA_NO@Z     00435960 f i fixed_float.obj
 0001:00034980       ??$_Fput_v3@$0A@@?$num_put@DV?$ostreambuf_iterator@DU?$char_traits@D@std@@@std@@@std@@ABE?AV?$ostreambuf_iterator@DU?$char_traits@D@std@@@1@V21@AAVios_base@1@DPBDI_N@Z 00435980 f i fixed_float.obj
 0001:00034dd0       ??$_Float_put_desired_precision@N@std@@YAH_JH@Z 00435dd0 f i fixed_float.obj
 0001:00034e10       ??$isfinite@N@@YA_NN@Z     00435e10 f i fixed_float.obj
 0001:00034e30       ??$use_facet@V?$numpunct@D@std@@@std@@YAABV?$numpunct@D@0@ABVlocale@0@@Z 00435e30 f i fixed_float.obj
 0001:00034f50       ??$move@AAV?$basic_string@DU?$char_traits@D@std@@V?$allocator@D@2@@std@@@std@@YA$$QAV?$basic_string@DU?$char_traits@D@std@@V?$allocator@D@2@@0@AAV10@@Z 00435f50 f i fixed_float.obj
 0001:00034f60       ??$addressof@V?$basic_ostream@DU?$char_traits@D@std@@@std@@@std@@YAPAV?$basic_ostream@DU?$char_traits@D@std@@@0@AAV10@@Z 00435f60 f i fixed_float.obj
 0001:00034f70       ??$_Reallocate_grow_by@V<lambda_ab246b20b9526e2ef7792587e4298a77>@@PBDI@?$basic_string@DU?$char_traits@D@std@@V?$allocator@D@2@@std@@AAEAAV01@IV<lambda_ab246b20b9526e2ef7792587e4298a77>@@PBDI@Z 00435f70 f i fixed_float.obj
 0001:000350b0       ??$addressof@V?$_String_val@U?$_Simple_types@D@std@@@std@@@std@@YAPAV?$_String_val@U?$_Simple_types@D@std@@@0@AAV10@@Z 004360b0 f i fixed_float.obj
 0001:000350c0       ??$_Construct_in_place@PADAAPAD@std@@YAXAAPAD0@Z 004360c0 f i fixed_float.obj
 0001:000350d0       ??$_Reallocate_grow_by@V<lambda_6607a66f2a10a1261ff9db96cba1015b>@@IID@?$basic_string@DU?$char_traits@D@std@@V?$allocator@D@2@@std@@AAEAAV01@IV<lambda_6607a66f2a10a1261ff9db96cba1015b>@@IID@Z 004360d0 f i fixed_float.obj
 0001:00035240       ??$addressof@V?$basic_string@DU?$char_traits@D@std@@V?$allocator@D@2@@std@@@std@@YAPAV?$basic_string@DU?$char_traits@D@std@@V?$allocator@D@2@@0@AAV10@@Z 00436240 f i fixed_float.obj
 0001:00035250       ??$_Pocma@V?$allocator@D@std@@@std@@YAXAAV?$allocator@D@0@0@Z 00436250 f i fixed_float.obj
 0001:00035260       ??$_Construct@$0A@D@?$basic_string@DU?$char_traits@D@std@@V?$allocator@D@2@@std@@AAEXDI@Z 00436260 f i fixed_float.obj
 0001:00035330       ?release@?$unique_ptr@V_Facet_base@std@@U?$default_delete@V_Facet_base@std@@@2@@std@@QAEPAV_Facet_base@2@XZ 00436330 f i fixed_float.obj
 0001:00035340       ??1?$unique_ptr@V_Facet_base@std@@U?$default_delete@V_Facet_base@std@@@2@@std@@QAE@XZ 00436340 f i fixed_float.obj
 0001:00035350       ?sputn@?$basic_streambuf@DU?$char_traits@D@std@@@std@@QAE_JPBD_J@Z 00436350 f i fixed_float.obj
 0001:00035370       ?_Getcat@?$numpunct@D@std@@SAIPAPBVfacet@locale@2@PBV42@@Z 00436370 f i fixed_float.obj
 0001:000355b0       ?decimal_point@?$numpunct@D@std@@QBEDXZ 004365b0 f i fixed_float.obj
 0001:000355c0       ?_Getcat@?$num_put@DV?$ostreambuf_iterator@DU?$char_traits@D@std@@@std@@@std@@SAIPAPBVfacet@locale@2@PBV42@@Z 004365c0 f i fixed_float.obj
 0001:00035760       ?_Get_first@?$_Compressed_pair@U?$default_delete@V_Facet_base@std@@@std@@PAV_Facet_base@2@$00@std@@QAEAAU?$default_delete@V_Facet_base@std@@@2@XZ 00436760 f i fixed_float.obj
 0001:00035770       ??R?$default_delete@V_Facet_base@std@@@std@@QBEXPAV_Facet_base@1@@Z 00436770 f i fixed_float.obj
 0001:00035790       ??0?$numpunct@D@std@@QAE@ABV_Locinfo@1@I_N@Z 00436790 f i fixed_float.obj
 0001:000358b0       ??0?$num_put@DV?$ostreambuf_iterator@DU?$char_traits@D@std@@@std@@@std@@QAE@ABV_Locinfo@1@I@Z 004368b0 f i fixed_float.obj
 0001:000358d0       ?_Init@?$numpunct@D@std@@IAEXABV_Locinfo@2@_N@Z 004368d0 f i fixed_float.obj
 0001:000359e0       ?_Init@?$num_put@DV?$ostreambuf_iterator@DU?$char_traits@D@std@@@std@@@std@@IAEXABV_Locinfo@2@@Z 004369e0 f i fixed_float.obj
 0001:000359f0       ??1?$_Tidy_guard@V?$numpunct@D@std@@@std@@QAE@XZ 004369f0 f i fixed_float.obj
 0001:00035a20       ??$_Get_index@$0A@@id@locale@std@@QAEIXZ 00436a20 f i fixed_float.obj
 0001:00035a60       ??$?0U?$default_delete@V_Facet_base@std@@@std@@$0A@@?$unique_ptr@V_Facet_base@std@@U?$default_delete@V_Facet_base@std@@@2@@std@@QAE@PAV_Facet_base@1@@Z 00436a60 f i fixed_float.obj
 0001:00035a70       ??$forward@AAPAD@std@@YAAAPADAAPAD@Z 00436a70 f i fixed_float.obj
 0001:00035a80       ??$exchange@PAV_Facet_base@std@@$$T@std@@YAPAV_Facet_base@0@AAPAV10@$$QA$$T@Z 00436a80 f i fixed_float.obj
 0001:00035aa0       ??$_Maklocstr@D@std@@YAPADPBDPADABU_Cvtvec@@@Z 00436aa0 f i fixed_float.obj
 0001:00035af0       ??$_Maklocchr@D@std@@YADDPADABU_Cvtvec@@@Z 00436af0 f i fixed_float.obj
 0001:00035b00       ??$?0$0A@@id@locale@std@@QAE@XZ 00436b00 f i fixed_float.obj
 0001:00035b10       ??$?0AAPAV_Facet_base@std@@@?$_Compressed_pair@U?$default_delete@V_Facet_base@std@@@std@@PAV_Facet_base@2@$00@std@@QAE@U_Zero_then_variadic_args_t@1@AAPAV_Facet_base@1@@Z 00436b10 f i fixed_float.obj
 0001:00035b20       ??$forward@AAPAV_Facet_base@std@@@std@@YAAAPAV_Facet_base@0@AAPAV10@@Z 00436b20 f i fixed_float.obj
 0001:00035b30       ?fpclassify@@YAHN@Z        00436b30 f i fixed_float.obj
 0001:00035b50       ?fpclassify@@YAHO@Z        00436b50 f i fixed_float.obj
 0001:00035b70       __vsprintf_s_l             00436b70 f i fixed_float.obj
 0001:00035bb0       _sprintf_s                 00436bb0 f i fixed_float.obj
 0001:00035bd0       _frexpl                    00436bd0 f i fixed_float.obj
 0001:00035bf0       _fabsl                     00436bf0 f i fixed_float.obj
 0001:00035c10       ?HashData@@YAXPADH0@Z      00436c10 f   hash.obj
 0001:00035cc0       ??YFixed@@QAEAAV0@ABV0@@Z  00436cc0 f i random_number.obj
 0001:00035cf0       ??XFixed@@QAEAAV0@ABV0@@Z  00436cf0 f i random_number.obj
 0001:00035d20       ?DoubleValue@Fixed@@QBENXZ 00436d20 f i random_number.obj
 0001:00035d30       ??H@YA?AVFixed@@ABV0@0@Z   00436d30 f i random_number.obj
 0001:00035d60       ??K@YA?AVFixed@@ABV0@0@Z   00436d60 f i random_number.obj
 0001:00035d90       ?AppSeedRandom@@YAXI@Z     00436d90 f   random_number.obj
 0001:00035da0       ?AppRandom@@YAHXZ          00436da0 f   random_number.obj
 0001:00035dc0       ?SyncRandLog@@YAXPBDZZ     00436dc0 f   random_number.obj
 0001:00035dd0       ?LogSyncRand@@YAXPBDHM@Z   00436dd0 f   random_number.obj
 0001:00035de0       ?DumpSyncRandLog@@YAXPBD@Z 00436de0 f   random_number.obj
 0001:00035e40       ?syncrandseed@@YAXK@Z      00436e40 f   random_number.obj
 0001:00035ec0       ?_syncrand@@YAKXZ          00436ec0 f   random_number.obj
 0001:00035fd0       ?_syncfrand@@YA?AVFixed@@V1@@Z 00436fd0 f   random_number.obj
 0001:00036020       ?_syncsfrand@@YA?AVFixed@@V1@@Z 00437020 f   random_number.obj
 0001:000360a0       ?frand@@YAMM@Z             004370a0 f   random_number.obj
 0001:000360c0       ?sfrand@@YAMM@Z            004370c0 f   random_number.obj
 0001:000360f0       ?_RandomNormalNumber@@YA?AVFixed@@V1@0@Z 004370f0 f   random_number.obj
 0001:00036220       ??8Fixed@@QBE_NABV0@@Z     00437220 f i vector3.obj
 0001:00036260       ??$?0VFixed@@@?$Vector3@M@@QAE@ABV?$Vector3@VFixed@@@@@Z 00437260 f   vector3.obj
 0001:000362a0       ??0locale@std@@QAE@XZ      004372a0 f i memory_leak.obj
 0001:000362f0       ??0codecvt_base@std@@QAE@I@Z 004372f0 f i memory_leak.obj
 0001:00036310       ?always_noconv@codecvt_base@std@@QBE_NXZ 00437310 f i memory_leak.obj
 0001:00036320       ??1codecvt_base@std@@UAE@XZ 00437320 f i memory_leak.obj
 0001:00036330       ?do_always_noconv@codecvt_base@std@@MBE_NXZ 00437330 f i memory_leak.obj
 0001:00036340       ?do_max_length@codecvt_base@std@@MBEHXZ 00437340 f i memory_leak.obj
 0001:00036350       ?do_encoding@codecvt_base@std@@MBEHXZ 00437350 f i memory_leak.obj
 0001:00036360       ??_Ecodecvt_base@std@@UAEPAXI@Z 00437360 f i * CIL library *:* CIL module *
 0001:00036360       ??_Gcodecvt_base@std@@UAEPAXI@Z 00437360 f i memory_leak.obj
 0001:00036390       ?is@?$ctype@D@std@@QBE_NFD@Z 00437390 f i memory_leak.obj
 0001:000363b0       ?widen@?$ctype@D@std@@QBEDD@Z 004373b0 f i memory_leak.obj
 0001:000363c0       ?clear@ios_base@std@@QAEXH@Z 004373c0 f i memory_leak.obj
 0001:000363d0       ??1ios_base@std@@UAE@XZ    004373d0 f i memory_leak.obj
 0001:00036420       ??0ios_base@std@@IAE@XZ    00437420 f i memory_leak.obj
 0001:00036480       ?_Init@ios_base@std@@IAEXXZ 00437480 f i memory_leak.obj
 0001:00036530       ??_Eios_base@std@@UAEPAXI@Z 00437530 f i * CIL library *:* CIL module *
 0001:00036530       ??_Gios_base@std@@UAEPAXI@Z 00437530 f i memory_leak.obj
 0001:000365a0       ??$_Fgetc@D@std@@YA_NAADPAU_iobuf@@@Z 004375a0 f i memory_leak.obj
 0001:000365c0       ??$_Fputc@D@std@@YA_NDPAU_iobuf@@@Z 004375c0 f i memory_leak.obj
 0001:000365e0       ??$_Ungetc@D@std@@YA_NABDPAU_iobuf@@@Z 004375e0 f i memory_leak.obj
 0001:00036600       ??_D?$basic_ifstream@DU?$char_traits@D@std@@@std@@QAEXXZ 00437600 f i memory_leak.obj
 0001:00036690       ?imbue@?$basic_filebuf@DU?$char_traits@D@std@@@std@@MAEXABVlocale@2@@Z 00437690 f i memory_leak.obj
 0001:000366b0       ?sync@?$basic_filebuf@DU?$char_traits@D@std@@@std@@MAEHXZ 004376b0 f i memory_leak.obj
 0001:000366e0       ?setbuf@?$basic_filebuf@DU?$char_traits@D@std@@@std@@MAEPAV?$basic_streambuf@DU?$char_traits@D@std@@@2@PAD_J@Z 004376e0 f i memory_leak.obj
 0001:00036740       ?seekpos@?$basic_filebuf@DU?$char_traits@D@std@@@std@@MAE?AV?$fpos@U_Mbstatet@@@2@V32@H@Z 00437740 f i memory_leak.obj
 0001:00036810       ?seekoff@?$basic_filebuf@DU?$char_traits@D@std@@@std@@MAE?AV?$fpos@U_Mbstatet@@@2@_JHH@Z 00437810 f i memory_leak.obj
 0001:00036920       ?xsputn@?$basic_filebuf@DU?$char_traits@D@std@@@std@@MAE_JPBD_J@Z 00437920 f i memory_leak.obj
 0001:00036ae0       ?xsgetn@?$basic_filebuf@DU?$char_traits@D@std@@@std@@MAE_JPAD_J@Z 00437ae0 f i memory_leak.obj
 0001:00036cd0       ?uflow@?$basic_filebuf@DU?$char_traits@D@std@@@std@@MAEHXZ 00437cd0 f i memory_leak.obj
 0001:00037030       ?underflow@?$basic_filebuf@DU?$char_traits@D@std@@@std@@MAEHXZ 00438030 f i memory_leak.obj
 0001:00037070       ?pbackfail@?$basic_filebuf@DU?$char_traits@D@std@@@std@@MAEHH@Z 00438070 f i memory_leak.obj
 0001:00037120       ?overflow@?$basic_filebuf@DU?$char_traits@D@std@@@std@@MAEHH@Z 00438120 f i memory_leak.obj
 0001:000372a0       ?_Unlock@?$basic_filebuf@DU?$char_traits@D@std@@@std@@UAEXXZ 004382a0 f i memory_leak.obj
 0001:000372b0       ?_Lock@?$basic_filebuf@DU?$char_traits@D@std@@@std@@UAEXXZ 004382b0 f i memory_leak.obj
 0001:000372c0       ??1?$basic_filebuf@DU?$char_traits@D@std@@@std@@UAE@XZ 004382c0 f i memory_leak.obj
 0001:00037370       ?imbue@?$basic_streambuf@DU?$char_traits@D@std@@@std@@MAEXABVlocale@2@@Z 00438370 f i memory_leak.obj
 0001:00037380       ?sync@?$basic_streambuf@DU?$char_traits@D@std@@@std@@MAEHXZ 00438380 f i memory_leak.obj
 0001:00037390       ?setbuf@?$basic_streambuf@DU?$char_traits@D@std@@@std@@MAEPAV12@PAD_J@Z 00438390 f i memory_leak.obj
 0001:000373a0       ?seekpos@?$basic_streambuf@DU?$char_traits@D@std@@@std@@MAE?AV?$fpos@U_Mbstatet@@@2@V32@H@Z 004383a0 f i memory_leak.obj
 0001:000373d0       ?seekoff@?$basic_streambuf@DU?$char_traits@D@std@@@std@@MAE?AV?$fpos@U_Mbstatet@@@2@_JHH@Z 004383d0 f i memory_leak.obj
 0001:00037400       ?xsputn@?$basic_streambuf@DU?$char_traits@D@std@@@std@@MAE_JPBD_J@Z 00438400 f i memory_leak.obj
 0001:000374e0       ?xsgetn@?$basic_streambuf@DU?$char_traits@D@std@@@std@@MAE_JPAD_J@Z 004384e0 f i memory_leak.obj
 0001:000375c0       ?uflow@?$basic_streambuf@DU?$char_traits@D@std@@@std@@MAEHXZ 004385c0 f i memory_leak.obj
 0001:000375f0       ?underflow@?$basic_streambuf@DU?$char_traits@D@std@@@std@@MAEHXZ 004385f0 f i memory_leak.obj
 0001:00037600       ?showmanyc@?$basic_streambuf@DU?$char_traits@D@std@@@std@@MAE_JXZ 00438600 f i memory_leak.obj
 0001:00037610       ?pbackfail@?$basic_streambuf@DU?$char_traits@D@std@@@std@@MAEHH@Z 00438610 f i memory_leak.obj
 0001:00037620       ?overflow@?$basic_streambuf@DU?$char_traits@D@std@@@std@@MAEHH@Z 00438620 f i memory_leak.obj
 0001:00037630       ?_Unlock@?$basic_streambuf@DU?$char_traits@D@std@@@std@@UAEXXZ 00438630 f i memory_leak.obj
 0001:00037640       ?_Lock@?$basic_streambuf@DU?$char_traits@D@std@@@std@@UAEXXZ 00438640 f i memory_leak.obj
 0001:00037650       ??1?$basic_streambuf@DU?$char_traits@D@std@@@std@@UAE@XZ 00438650 f i memory_leak.obj
 0001:00037690       ?close@?$basic_ifstream@DU?$char_traits@D@std@@@std@@QAEXXZ 00438690 f i memory_leak.obj
 0001:000376d0       ??1?$basic_ifstream@DU?$char_traits@D@std@@@std@@UAE@XZ 004386d0 f i memory_leak.obj
 0001:00037720       ??0?$basic_ifstream@DU?$char_traits@D@std@@@std@@QAE@PBDHH@Z 00438720 f i memory_leak.obj
 0001:00037820       ??1?$basic_istream@DU?$char_traits@D@std@@@std@@UAE@XZ 00438820 f i memory_leak.obj
 0001:00037840       ??1?$basic_ios@DU?$char_traits@D@std@@@std@@UAE@XZ 00438840 f i memory_leak.obj
 0001:00037890       ??_E?$basic_filebuf@DU?$char_traits@D@std@@@std@@UAEPAXI@Z 00438890 f i * CIL library *:* CIL module *
 0001:00037890       ??_G?$basic_filebuf@DU?$char_traits@D@std@@@std@@UAEPAXI@Z 00438890 f i memory_leak.obj
 0001:000378c0       ??_E?$basic_streambuf@DU?$char_traits@D@std@@@std@@UAEPAXI@Z 004388c0 f i * CIL library *:* CIL module *
 0001:000378c0       ??_G?$basic_streambuf@DU?$char_traits@D@std@@@std@@UAEPAXI@Z 004388c0 f i memory_leak.obj
 0001:00037910       ??_Glocale@std@@QAEPAXI@Z  00438910 f i memory_leak.obj
 0001:00037950       ??_E?$basic_ifstream@DU?$char_traits@D@std@@@std@@UAEPAXI@Z 00438950 f i * CIL library *:* CIL module *
 0001:00037950       ??_G?$basic_ifstream@DU?$char_traits@D@std@@@std@@UAEPAXI@Z 00438950 f i memory_leak.obj
 0001:00037980       ??_E?$basic_istream@DU?$char_traits@D@std@@@std@@UAEPAXI@Z 00438980 f i * CIL library *:* CIL module *
 0001:00037980       ??_G?$basic_istream@DU?$char_traits@D@std@@@std@@UAEPAXI@Z 00438980 f i memory_leak.obj
 0001:00037a10       ??_E?$basic_ios@DU?$char_traits@D@std@@@std@@UAEPAXI@Z 00438a10 f i * CIL library *:* CIL module *
 0001:00037a10       ??_G?$basic_ios@DU?$char_traits@D@std@@@std@@UAEPAXI@Z 00438a10 f i memory_leak.obj
 0001:00037a80       ??_D?$basic_istream@DU?$char_traits@D@std@@@std@@QAEXXZ 00438a80 f i memory_leak.obj
 0001:00037af0       ?do_length@?$codecvt@DDU_Mbstatet@@@std@@MBEHAAU_Mbstatet@@PBD1I@Z 00438af0 f i memory_leak.obj
 0001:00037b10       ?do_unshift@?$codecvt@DDU_Mbstatet@@@std@@MBEHAAU_Mbstatet@@PAD1AAPAD@Z 00438b10 f i memory_leak.obj
 0001:00037b30       ?do_out@?$codecvt@DDU_Mbstatet@@@std@@MBEHAAU_Mbstatet@@PBD1AAPBDPAD3AAPAD@Z 00438b30 f i memory_leak.obj
 0001:00037b50       ?do_in@?$codecvt@DDU_Mbstatet@@@std@@MBEHAAU_Mbstatet@@PBD1AAPBDPAD3AAPAD@Z 00438b50 f i memory_leak.obj
 0001:00037b70       ?do_always_noconv@?$codecvt@DDU_Mbstatet@@@std@@MBE_NXZ 00438b70 f i memory_leak.obj
 0001:00037b80       ??1?$codecvt@DDU_Mbstatet@@@std@@MAE@XZ 00438b80 f i memory_leak.obj
 0001:00037b90       ?out@?$codecvt@DDU_Mbstatet@@@std@@QBEHAAU_Mbstatet@@PBD1AAPBDPAD3AAPAD@Z 00438b90 f i memory_leak.obj
 0001:00037ba0       ?in@?$codecvt@DDU_Mbstatet@@@std@@QBEHAAU_Mbstatet@@PBD1AAPBDPAD3AAPAD@Z 00438ba0 f i memory_leak.obj
 0001:00037bb0       ??B?$fpos@U_Mbstatet@@@std@@QBE_JXZ 00438bb0 f i memory_leak.obj
 0001:00037bc0       ?state@?$fpos@U_Mbstatet@@@std@@QBE?AU_Mbstatet@@XZ 00438bc0 f i memory_leak.obj
 0001:00037be0       ??0?$fpos@U_Mbstatet@@@std@@QAE@U_Mbstatet@@_J@Z 00438be0 f i memory_leak.obj
 0001:00037c10       ??0?$fpos@U_Mbstatet@@@std@@QAE@_J@Z 00438c10 f i memory_leak.obj
 0001:00037c40       ?_Set_back@?$basic_filebuf@DU?$char_traits@D@std@@@std@@AAEXXZ 00438c40 f i memory_leak.obj
 0001:00037c80       ?_Reset_back@?$basic_filebuf@DU?$char_traits@D@std@@@std@@AAEXXZ 00438c80 f i memory_leak.obj
 0001:00037cb0       ?_Initcvt@?$basic_filebuf@DU?$char_traits@D@std@@@std@@IAEXABV?$codecvt@DDU_Mbstatet@@@2@@Z 00438cb0 f i memory_leak.obj
 0001:00037d40       ?_Endwrite@?$basic_filebuf@DU?$char_traits@D@std@@@std@@IAE_NXZ 00438d40 f i memory_leak.obj
 0001:00037e10       ?_Init@?$basic_filebuf@DU?$char_traits@D@std@@@std@@IAEXPAU_iobuf@@W4_Initfl@12@@Z 00438e10 f i memory_leak.obj
 0001:00037f00       ?close@?$basic_filebuf@DU?$char_traits@D@std@@@std@@QAEPAV12@XZ 00438f00 f i memory_leak.obj
 0001:00038000       ?open@?$basic_filebuf@DU?$char_traits@D@std@@@std@@QAEPAV12@PBDHH@Z 00439000 f i memory_leak.obj
 0001:000380c0       ??0?$basic_filebuf@DU?$char_traits@D@std@@@std@@QAE@XZ 004390c0 f i memory_leak.obj
 0001:00038160       ?pbump@?$basic_streambuf@DU?$char_traits@D@std@@@std@@IAEXH@Z 00439160 f i memory_leak.obj
 0001:00038180       ?_Gnavail@?$basic_streambuf@DU?$char_traits@D@std@@@std@@IBE_JXZ 00439180 f i memory_leak.obj
 0001:000381a0       ?_Gninc@?$basic_streambuf@DU?$char_traits@D@std@@@std@@IAEPADXZ 004391a0 f i memory_leak.obj
 0001:000381b0       ?_Gndec@?$basic_streambuf@DU?$char_traits@D@std@@@std@@IAEPADXZ 004391b0 f i memory_leak.obj
 0001:000381c0       ?epptr@?$basic_streambuf@DU?$char_traits@D@std@@@std@@IBEPADXZ 004391c0 f i memory_leak.obj
 0001:000381d0       ?gbump@?$basic_streambuf@DU?$char_traits@D@std@@@std@@IAEXH@Z 004391d0 f i memory_leak.obj
 0001:000381f0       ?egptr@?$basic_streambuf@DU?$char_traits@D@std@@@std@@IBEPADXZ 004391f0 f i memory_leak.obj
 0001:00038200       ?pptr@?$basic_streambuf@DU?$char_traits@D@std@@@std@@IBEPADXZ 00439200 f i memory_leak.obj
 0001:00038210       ?gptr@?$basic_streambuf@DU?$char_traits@D@std@@@std@@IBEPADXZ 00439210 f i memory_leak.obj
 0001:00038220       ?eback@?$basic_streambuf@DU?$char_traits@D@std@@@std@@IBEPADXZ 00439220 f i memory_leak.obj
 0001:00038230       ??0?$basic_istream@DU?$char_traits@D@std@@@std@@QAE@PAV?$basic_streambuf@DU?$char_traits@D@std@@@1@_N@Z 00439230 f i memory_leak.obj
 0001:00038280       ??0?$basic_ios@DU?$char_traits@D@std@@@std@@IAE@XZ 00439280 f i memory_leak.obj
 0001:000382f0       ?widen@?$basic_ios@DU?$char_traits@D@std@@@std@@QBEDD@Z 004392f0 f i memory_leak.obj
 0001:00038380       ?data@?$basic_string@DU?$char_traits@D@std@@V?$allocator@D@2@@std@@QBEPBDXZ 00439380 f i memory_leak.obj
 0001:00038390       ?front@?$basic_string@DU?$char_traits@D@std@@V?$allocator@D@2@@std@@QAEAADXZ 00439390 f i memory_leak.obj
 0001:000383a0       ?push_back@?$basic_string@DU?$char_traits@D@std@@V?$allocator@D@2@@std@@QAEXD@Z 004393a0 f i memory_leak.obj
 0001:000384e0       ??R<lambda_15711c68e099a15a58f4d77303cb286d>@@QBE@QADQBDID@Z 004394e0 f i memory_leak.obj
 0001:00038510       ?erase@?$basic_string@DU?$char_traits@D@std@@V?$allocator@D@2@@std@@QAEAAV12@II@Z 00439510 f i memory_leak.obj
 0001:00038550       ?not_eof@?$_Narrow_char_traits@DH@std@@SAHH@Z 00439550 f i memory_leak.obj
 0001:00038560       ?to_char_type@?$_Narrow_char_traits@DH@std@@SADH@Z 00439560 f i memory_leak.obj
 0001:00038570       ??_E?$codecvt@DDU_Mbstatet@@@std@@MAEPAXI@Z 00439570 f i * CIL library *:* CIL module *
 0001:00038570       ??_G?$codecvt@DDU_Mbstatet@@@std@@MAEPAXI@Z 00439570 f i memory_leak.obj
 0001:000385a0       ??1sentry@?$basic_istream@DU?$char_traits@D@std@@@std@@QAE@XZ 004395a0 f i memory_leak.obj
 0001:00038600       ??Bsentry@?$basic_istream@DU?$char_traits@D@std@@@std@@QBE_NXZ 00439600 f i memory_leak.obj
 0001:00038610       ??0sentry@?$basic_istream@DU?$char_traits@D@std@@@std@@QAE@AAV12@_N@Z 00439610 f i memory_leak.obj
 0001:00038680       ??1_Sentry_base@?$basic_istream@DU?$char_traits@D@std@@@std@@QAE@XZ 00439680 f i memory_leak.obj
 0001:000386d0       ??1?$_Null_terminator_guard@D@std@@QAE@XZ 004396d0 f i memory_leak.obj
 0001:000386e0       ?unshift@?$codecvt@DDU_Mbstatet@@@std@@QBEHAAU_Mbstatet@@PAD1AAPAD@Z 004396e0 f i memory_leak.obj
 0001:000386f0       ?_Init@?$basic_streambuf@DU?$char_traits@D@std@@@std@@IAEXPAPAD0PAH001@Z 004396f0 f i memory_leak.obj
 0001:00038720       ?_Init@?$basic_streambuf@DU?$char_traits@D@std@@@std@@IAEXXZ 00439720 f i memory_leak.obj
 0001:00038780       ?setg@?$basic_streambuf@DU?$char_traits@D@std@@@std@@IAEXPAD00@Z 00439780 f i memory_leak.obj
 0001:000387b0       ?snextc@?$basic_streambuf@DU?$char_traits@D@std@@@std@@QAEHXZ 004397b0 f i memory_leak.obj
 0001:00038820       ?sgetc@?$basic_streambuf@DU?$char_traits@D@std@@@std@@QAEHXZ 00439820 f i memory_leak.obj
 0001:00038840       ?sbumpc@?$basic_streambuf@DU?$char_traits@D@std@@@std@@QAEHXZ 00439840 f i memory_leak.obj
 0001:00038870       ?getloc@?$basic_streambuf@DU?$char_traits@D@std@@@std@@QBE?AVlocale@2@XZ 00439870 f i memory_leak.obj
 0001:00038890       ??0?$basic_streambuf@DU?$char_traits@D@std@@@std@@IAE@XZ 00439890 f i memory_leak.obj
 0001:00038950       ?init@?$basic_ios@DU?$char_traits@D@std@@@std@@IAEXPAV?$basic_streambuf@DU?$char_traits@D@std@@@2@_N@Z 00439950 f i memory_leak.obj
 0001:00038a70       ?_Erase_noexcept@?$basic_string@DU?$char_traits@D@std@@V?$allocator@D@2@@std@@AAEAAV12@II@Z 00439a70 f i memory_leak.obj
 0001:00038ab0       ??0_Sentry_base@?$basic_istream@DU?$char_traits@D@std@@@std@@QAE@AAV12@@Z 00439ab0 f i memory_leak.obj
 0001:00038ae0       ?setp@?$basic_streambuf@DU?$char_traits@D@std@@@std@@IAEXPAD0@Z 00439ae0 f i memory_leak.obj
 0001:00038b00       ?_Gnpreinc@?$basic_streambuf@DU?$char_traits@D@std@@@std@@IAEPADXZ 00439b00 f i memory_leak.obj
 0001:00038b10       ?_Ipfx@?$basic_istream@DU?$char_traits@D@std@@@std@@QAE_N_N@Z 00439b10 f i memory_leak.obj
 0001:00038ba0       ?_Clamp_suffix_size@?$_String_val@U?$_Simple_types@D@std@@@std@@QBEIII@Z 00439ba0 f i memory_leak.obj
 0001:00038bc0       ??$min@H@std@@YAABHABH0@Z  00439bc0 f i memory_leak.obj
 0001:00038be0       ??1?$BTree@H@@QAE@XZ       00439be0 f i memory_leak.obj
 0001:00038bf0       ??1?$DArray@H@@QAE@XZ      00439bf0 f i memory_leak.obj
 0001:00038c00       ??$use_facet@V?$codecvt@DDU_Mbstatet@@@std@@@std@@YAABV?$codecvt@DDU_Mbstatet@@@0@ABVlocale@0@@Z 00439c00 f i memory_leak.obj
 0001:00038d20       ??$addressof@V?$basic_filebuf@DU?$char_traits@D@std@@@std@@@std@@YAPAV?$basic_filebuf@DU?$char_traits@D@std@@@0@AAV10@@Z 00439d20 f i memory_leak.obj
 0001:00038d30       ??$addressof@$$CBV?$codecvt@DDU_Mbstatet@@@std@@@std@@YAPBV?$codecvt@DDU_Mbstatet@@@0@ABV10@@Z 00439d30 f i memory_leak.obj
 0001:00038d40       ??$_Reallocate_grow_by@V<lambda_15711c68e099a15a58f4d77303cb286d>@@D@?$basic_string@DU?$char_traits@D@std@@V?$allocator@D@2@@std@@AAEAAV01@IV<lambda_15711c68e099a15a58f4d77303cb286d>@@D@Z 00439d40 f i memory_leak.obj
 0001:00038e60       ?_Getcat@?$codecvt@DDU_Mbstatet@@@std@@SAIPAPBVfacet@locale@2@PBV42@@Z 00439e60 f i memory_leak.obj
 0001:00039000       ??0?$codecvt@DDU_Mbstatet@@@std@@QAE@ABV_Locinfo@1@I@Z 0043a000 f i memory_leak.obj
 0001:00039020       ?_Init@?$codecvt@DDU_Mbstatet@@@std@@IAEXABV_Locinfo@2@@Z 0043a020 f i memory_leak.obj
 0001:00039030       ?Empty@?$BTree@H@@QAEXXZ   0043a030 f i memory_leak.obj
 0001:00039090       ??0?$DArray@H@@QAE@XZ      0043a090 f i memory_leak.obj
 0001:000390b0       ?Empty@?$DArray@H@@QAEXXZ  0043a0b0 f i memory_leak.obj
 0001:000390e0       ??_G?$BTree@H@@QAEPAXI@Z   0043a0e0 f i memory_leak.obj
 0001:000390f9       ??_E?$basic_ifstream@DU?$char_traits@D@std@@@std@@$4PPPPPPPM@A@AEPAXI@Z 0043a0f9 f i memory_leak.obj
 0001:00039101       ??_E?$basic_istream@DU?$char_traits@D@std@@@std@@$4PPPPPPPM@A@AEPAXI@Z 0043a101 f i memory_leak.obj
 0001:00039110       __vsscanf_l                0043a110 f i memory_leak.obj
 0001:00039140       _sscanf                    0043a140 f i memory_leak.obj
 0001:00039160       ___local_stdio_scanf_options 0043a160 f i memory_leak.obj
 0001:00039170       ??0AuthenticationResult@@QAE@XZ 0043a170 f i authentication.obj
 0001:000391a0       ?Authentication_GenerateKey@@YAXPAD_N@Z 0043a1a0 f   authentication.obj
 0001:00039240       ?Authentication_SimpleKeyCheck@@YAHPAD@Z 0043a240 f   authentication.obj
 0001:000392f0       ?Authentication_SaveKey@@YAXPBD0@Z 0043a2f0 f   authentication.obj
 0001:00039330       ?Authentication_LoadKey@@YAXPADPBD@Z 0043a330 f   authentication.obj
 0001:000393d0       ?Authentication_SetKey@@YAXPAD@Z 0043a3d0 f   authentication.obj
 0001:00039490       ?Authentication_IsKeyFound@@YA_NXZ 0043a490 f   authentication.obj
 0001:000394b0       ?Authentication_GetKey@@YAXPAD@Z 0043a4b0 f   authentication.obj
 0001:000394f0       ?Authentication_SetHashToken@@YAXH@Z 0043a4f0 f   authentication.obj
 0001:00039520       ?Authentication_GetHashToken@@YAHXZ 0043a520 f   authentication.obj
 0001:00039530       ?Authentication_GetKeyHash@@YAXPAD0H@Z 0043a530 f   authentication.obj
 0001:00039550       ?Authentication_IsHashKey@@YA_NPAD@Z 0043a550 f   authentication.obj
 0001:00039570       ?Authentication_GetKeyHash@@YAXPAD@Z 0043a570 f   authentication.obj
 0001:000395c0       ?Authentication_IsDemoKey@@YA_NPAD@Z 0043a5c0 f   authentication.obj
 0001:00039890       ?Authentication_GetKeyId@@YAHPAD@Z 0043a890 f   authentication.obj
 0001:00039940       ?Authentication_RequestStatus@@YAXPADH0@Z 0043a940 f   authentication.obj
 0001:00039a70       ?Authentication_GetStatus@@YAHPAD@Z 0043aa70 f   authentication.obj
 0001:00039b20       ?Authentication_SetStatus@@YAXPADHH@Z 0043ab20 f   authentication.obj
 0001:00039c30       ?Authentication_GetStatusString@@YAPADH@Z 0043ac30 f   authentication.obj
 0001:00039cb0       ?Authentication_GetStatusStringLanguagePhrase@@YAPADH@Z 0043acb0 f   authentication.obj
 0001:00039d30       ?Authentication_Shutdown@@YAXXZ 0043ad30 f   authentication.obj
 0001:00039d60       ??0?$LList@PAVAuthenticationResult@@@@QAE@XZ 0043ad60 f i authentication.obj
 0001:00039da0       ??1?$LList@PAVAuthenticationResult@@@@QAE@XZ 0043ada0 f i authentication.obj
 0001:00039db0       ?PutData@?$LList@PAVAuthenticationResult@@@@QAEXABQAVAuthenticationResult@@@Z 0043adb0 f i authentication.obj
 0001:00039dc0       ?Size@?$LList@PAVAuthenticationResult@@@@QBEHXZ 0043adc0 f i authentication.obj
 0001:00039dd0       ?EmptyAndDelete@?$LList@PAVAuthenticationResult@@@@QAEXXZ 0043add0 f i authentication.obj
 0001:00039ec0       ??A?$LList@PAVAuthenticationResult@@@@QAEPAVAuthenticationResult@@H@Z 0043aec0 f i authentication.obj
 0001:00039ee0       ?PutDataAtEnd@?$LList@PAVAuthenticationResult@@@@QAEXABQAVAuthenticationResult@@@Z 0043aee0 f i authentication.obj
 0001:00039f50       ?GetData@?$LList@PAVAuthenticationResult@@@@QBEPAVAuthenticationResult@@H@Z 0043af50 f i authentication.obj
 0001:00039f70       ?RemoveData@?$LList@PAVAuthenticationResult@@@@QAEXH@Z 0043af70 f i authentication.obj
 0001:0003a020       ?Empty@?$LList@PAVAuthenticationResult@@@@QAEXXZ 0043b020 f i authentication.obj
 0001:0003a070       ??_G?$LListItem@PAVAuthenticationResult@@@@QAEPAXI@Z 0043b070 f i authentication.obj
 0001:0003a090       ?GetItem@?$LList@PAVAuthenticationResult@@@@IBEPAV?$LListItem@PAVAuthenticationResult@@@@H@Z 0043b090 f i authentication.obj
 0001:0003a170       ??0?$LListItem@PAVAuthenticationResult@@@@QAE@XZ 0043b170 f i authentication.obj
 0001:0003a190       ??1?$LListItem@PAVAuthenticationResult@@@@QAE@XZ 0043b190 f i authentication.obj
 0001:0003a1a0       ?ValidIndex@?$LList@PAVAuthenticationResult@@@@QBE_NH@Z 0043b1a0 f i authentication.obj
 0001:0003a1c0       __vfscanf_l                0043b1c0 f i authentication.obj
 0001:0003a1f0       _fscanf                    0043b1f0 f i authentication.obj
 0001:0003a210       ??0MatchMakerListener@@QAE@XZ 0043b210 f i matchmaker.obj
 0001:0003a240       ??1MatchMakerListener@@QAE@XZ 0043b240 f i matchmaker.obj
 0001:0003a250       ?MatchMaker_LocateService@@YAXPADH@Z 0043b250 f   matchmaker.obj
 0001:0003a530       ??_GDirectory@@QAEPAXI@Z   0043b530 f i matchmaker.obj
 0001:0003a550       ??_GMatchMakerListener@@QAEPAXI@Z 0043b550 f i matchmaker.obj
 0001:0003a590       ?MatchMaker_StartRequestingIdentity@@YAXPAVNetSocketListener@@@Z 0043b590 f   matchmaker.obj
 0001:0003a690       ?MatchMaker_StopRequestingIdentity@@YAXPAVNetSocketListener@@@Z 0043b690 f   matchmaker.obj
 0001:0003a700       ?MatchMaker_GetIdentity@@YA_NPAVNetSocketListener@@PADPAH@Z 0043b700 f   matchmaker.obj
 0001:0003a740       ?MatchMaker_RequestConnection@@YAXPADHABVDirectory@@@Z 0043b740 f   matchmaker.obj
 0001:0003a890       ?MatchMaker_ReceiveMessage@@YA_NPAVNetSocketListener@@ABVDirectory@@@Z 0043b890 f   matchmaker.obj
 0001:0003abe0       ??0?$DArray@PAUMatchMakerListener@@@@QAE@XZ 0043bbe0 f i matchmaker.obj
 0001:0003ac00       ??1?$DArray@PAUMatchMakerListener@@@@QAE@XZ 0043bc00 f i matchmaker.obj
 0001:0003ac10       ?PutData@?$DArray@PAUMatchMakerListener@@@@QAEHABQAUMatchMakerListener@@@Z 0043bc10 f i matchmaker.obj
 0001:0003ac60       ?RemoveData@?$DArray@PAUMatchMakerListener@@@@QAEXH@Z 0043bc60 f i matchmaker.obj
 0001:0003acc0       ?Size@?$DArray@PAUMatchMakerListener@@@@QBEHXZ 0043bcc0 f i matchmaker.obj
 0001:0003acd0       ?ValidIndex@?$DArray@PAUMatchMakerListener@@@@QBE_NH@Z 0043bcd0 f i matchmaker.obj
 0001:0003ad00       ??A?$DArray@PAUMatchMakerListener@@@@QAEAAPAUMatchMakerListener@@H@Z 0043bd00 f i matchmaker.obj
 0001:0003ad60       ?Grow@?$DArray@PAUMatchMakerListener@@@@IAEXXZ 0043bd60 f i matchmaker.obj
 0001:0003ad90       ?Empty@?$DArray@PAUMatchMakerListener@@@@QAEXXZ 0043bd90 f i matchmaker.obj
 0001:0003adc0       ?SetSize@?$DArray@PAUMatchMakerListener@@@@QAEXH@Z 0043bdc0 f i matchmaker.obj
 0001:0003aef0       ?IsVoid@DirectoryData@@QAE_NXZ 0043bef0 f i metaserver.obj
 0001:0003af00       ??0GameServer@@QAE@XZ      0043bf00 f i metaserver.obj
 0001:0003af30       ??0MetaServerData@@QAE@XZ  0043bf30 f i metaserver.obj
 0001:0003af60       ?MetaServer_SendDirectory@@YA_NPAVDirectory@@PAVNetSocket@@@Z 0043bf60 f   metaserver.obj
 0001:0003afd0       ?MetaServer_SendDirectory@@YA_NPAVDirectory@@PAVNetSocketSession@@@Z 0043bfd0 f   metaserver.obj
 0001:0003b040       ?MetaServer_SendToMetaServer@@YA_NPAVDirectory@@@Z 0043c040 f   metaserver.obj
 0001:0003b060       ?MetaServer_Initialise@@YAXXZ 0043c060 f   metaserver.obj
 0001:0003b0a0       ?ReceiveMetaServerData@@YAXABVDirectory@@@Z 0043c0a0 f   metaserver.obj
 0001:0003b220       ?ReceiveDirectory@@YAXABVDirectory@@@Z 0043c220 f   metaserver.obj
 0001:0003b6d0       ?MetaServer_Connect@@YAXPADHH@Z 0043c6d0 f   metaserver.obj
 0001:0003b850       ??_GNetSocketListener@@QAEPAXI@Z 0043c850 f i metaserver.obj
 0001:0003b870       ?MetaServer_Disconnect@@YAXXZ 0043c870 f   metaserver.obj
 0001:0003b8d0       ?MetaServer_IsConnected@@YA_NXZ 0043c8d0 f   metaserver.obj
 0001:0003b8e0       ?MetaServer_SetServerProperties@@YAXPAVDirectory@@@Z 0043c8e0 f   metaserver.obj
 0001:0003b980       ?MetaServer_SetClientProperties@@YAXPAVDirectory@@@Z 0043c980 f   metaserver.obj
 0001:0003ba20       ?MetaServer_GetClientProperties@@YAPAVDirectory@@XZ 0043ca20 f   metaserver.obj
 0001:0003bc30       ?MetaServer_StartRegisteringOverWAN@@YAXXZ 0043cc30 f   metaserver.obj
 0001:0003bc60       ?MetaServer_StopRegisteringOverWAN@@YAXXZ 0043cc60 f   metaserver.obj
 0001:0003bd50       ?MetaServer_StartRegisteringOverLAN@@YAXXZ 0043cd50 f   metaserver.obj
 0001:0003be10       ?MetaServer_StopRegisteringOverLAN@@YAXXZ 0043ce10 f   metaserver.obj
 0001:0003be40       ?MetaServer_IsRegisteringOverWAN@@YA_NXZ 0043ce40 f   metaserver.obj
 0001:0003be60       ?MetaServer_IsRegisteringOverLAN@@YA_NXZ 0043ce60 f   metaserver.obj
 0001:0003be70       ?MetaServer_RequestServerListWAN@@YAXXZ 0043ce70 f   metaserver.obj
 0001:0003bf60       ?MetaServer_RequestServerDetails@@YAXPADH@Z 0043cf60 f   metaserver.obj
 0001:0003c000       ?MetaServer_HasReceivedListWAN@@YA_NXZ 0043d000 f   metaserver.obj
 0001:0003c010       ?MetaServer_GetNumServers@@YAH_N0@Z 0043d010 f   metaserver.obj
 0001:0003c0b0       ?MetaServer_ClearServerList@@YAXXZ 0043d0b0 f   metaserver.obj
 0001:0003c0d0       ?MetaServer_UpdateServerList@@YAXPADH_NABVDirectory@@@Z 0043d0d0 f   metaserver.obj
 0001:0003c410       ?MetaServer_SetServerTTL@@YAXH@Z 0043d410 f   metaserver.obj
 0001:0003c420       ?MetaServer_GetServer@@YAPAVDirectory@@PADH_N@Z 0043d420 f   metaserver.obj
 0001:0003c510       ?MetaServer_PurgeServerList@@YAXXZ 0043d510 f   metaserver.obj
 0001:0003c5c0       ??_GGameServer@@QAEPAXI@Z  0043d5c0 f i metaserver.obj
 0001:0003c600       ??1GameServer@@QAE@XZ      0043d600 f i metaserver.obj
 0001:0003c620       ?MetaServer_GetServerList@@YAPAV?$LList@PAVDirectory@@@@_N00H@Z 0043d620 f   metaserver.obj
 0001:0003c750       ?MetaServer_RequestData@@YAPAVDirectory@@PBD@Z 0043d750 f   metaserver.obj
 0001:0003ca60       ?MetaServer_RemoveData@@YAXPBD@Z 0043da60 f   metaserver.obj
 0001:0003cae0       ??_GMetaServerData@@QAEPAXI@Z 0043dae0 f i metaserver.obj
 0001:0003cb20       ??1MetaServerData@@QAE@XZ  0043db20 f i metaserver.obj
 0001:0003cb40       ?MetaServer_ClearData@@YAXXZ 0043db40 f   metaserver.obj
 0001:0003cb60       ?MetaServer_GetServerTTL@@YAHXZ 0043db60 f   metaserver.obj
 0001:0003cbd0       ?reset@?$auto_ptr@VDirectory@@@std@@QAEXPAVDirectory@@@Z 0043dbd0 f i metaserver.obj
 0001:0003cc00       ?get@?$auto_ptr@VDirectory@@@std@@QBEPAVDirectory@@XZ 0043dc00 f i metaserver.obj
 0001:0003cc10       ??C?$auto_ptr@VDirectory@@@std@@QBEPAVDirectory@@XZ 0043dc10 f i metaserver.obj
 0001:0003cc20       ??1?$auto_ptr@VDirectory@@@std@@QAE@XZ 0043dc20 f i metaserver.obj
 0001:0003cc40       ??0?$auto_ptr@VDirectory@@@std@@QAE@PAVDirectory@@@Z 0043dc40 f i metaserver.obj
 0001:0003cc50       ?Size@?$DArray@PAVDirectoryData@@@@QBEHXZ 0043dc50 f i metaserver.obj
 0001:0003cc60       ?ValidIndex@?$DArray@PAVDirectoryData@@@@QBE_NH@Z 0043dc60 f i metaserver.obj
 0001:0003cc90       ??A?$DArray@PAVDirectoryData@@@@QBEABQAVDirectoryData@@H@Z 0043dc90 f i metaserver.obj
 0001:0003ccf0       ??0?$LList@PAVDirectory@@@@QAE@XZ 0043dcf0 f i metaserver.obj
 0001:0003cd20       ?PutData@?$LList@PAVDirectory@@@@QAEXABQAVDirectory@@@Z 0043dd20 f i metaserver.obj
 0001:0003cd30       ??0?$LList@PAUGameServer@@@@QAE@XZ 0043dd30 f i metaserver.obj
 0001:0003cd70       ??1?$LList@PAUGameServer@@@@QAE@XZ 0043dd70 f i metaserver.obj
 0001:0003cd80       ?PutData@?$LList@PAUGameServer@@@@QAEXABQAUGameServer@@@Z 0043dd80 f i metaserver.obj
 0001:0003cd90       ?RemoveData@?$LList@PAUGameServer@@@@QAEXH@Z 0043dd90 f i metaserver.obj
 0001:0003ce40       ?Size@?$LList@PAUGameServer@@@@QBEHXZ 0043de40 f i metaserver.obj
 0001:0003ce50       ?EmptyAndDelete@?$LList@PAUGameServer@@@@QAEXXZ 0043de50 f i metaserver.obj
 0001:0003cf60       ??A?$LList@PAUGameServer@@@@QAEPAUGameServer@@H@Z 0043df60 f i metaserver.obj
 0001:0003cf80       ??0?$LList@PAUMetaServerData@@@@QAE@XZ 0043df80 f i metaserver.obj
 0001:0003cfc0       ??1?$LList@PAUMetaServerData@@@@QAE@XZ 0043dfc0 f i metaserver.obj
 0001:0003cfd0       ?PutData@?$LList@PAUMetaServerData@@@@QAEXABQAUMetaServerData@@@Z 0043dfd0 f i metaserver.obj
 0001:0003cfe0       ?RemoveData@?$LList@PAUMetaServerData@@@@QAEXH@Z 0043dfe0 f i metaserver.obj
 0001:0003d090       ?Size@?$LList@PAUMetaServerData@@@@QBEHXZ 0043e090 f i metaserver.obj
 0001:0003d0a0       ?EmptyAndDelete@?$LList@PAUMetaServerData@@@@QAEXXZ 0043e0a0 f i metaserver.obj
 0001:0003d1b0       ??A?$LList@PAUMetaServerData@@@@QAEPAUMetaServerData@@H@Z 0043e1b0 f i metaserver.obj
 0001:0003d1d0       ??_G?$LListItem@PAUGameServer@@@@QAEPAXI@Z 0043e1d0 f i metaserver.obj
 0001:0003d1f0       ??_G?$LListItem@PAUMetaServerData@@@@QAEPAXI@Z 0043e1f0 f i metaserver.obj
 0001:0003d210       ?PutDataAtEnd@?$LList@PAVDirectory@@@@QAEXABQAVDirectory@@@Z 0043e210 f i metaserver.obj
 0001:0003d270       ?GetItem@?$LList@PAUGameServer@@@@IBEPAV?$LListItem@PAUGameServer@@@@H@Z 0043e270 f i metaserver.obj
 0001:0003d350       ?PutDataAtEnd@?$LList@PAUGameServer@@@@QAEXABQAUGameServer@@@Z 0043e350 f i metaserver.obj
 0001:0003d3c0       ?GetData@?$LList@PAUGameServer@@@@QBEPAUGameServer@@H@Z 0043e3c0 f i metaserver.obj
 0001:0003d3e0       ?Empty@?$LList@PAUGameServer@@@@QAEXXZ 0043e3e0 f i metaserver.obj
 0001:0003d430       ??0?$LListItem@PAUGameServer@@@@QAE@XZ 0043e430 f i metaserver.obj
 0001:0003d450       ??1?$LListItem@PAUGameServer@@@@QAE@XZ 0043e450 f i metaserver.obj
 0001:0003d460       ?GetItem@?$LList@PAUMetaServerData@@@@IBEPAV?$LListItem@PAUMetaServerData@@@@H@Z 0043e460 f i metaserver.obj
 0001:0003d540       ?PutDataAtEnd@?$LList@PAUMetaServerData@@@@QAEXABQAUMetaServerData@@@Z 0043e540 f i metaserver.obj
 0001:0003d5b0       ?GetData@?$LList@PAUMetaServerData@@@@QBEPAUMetaServerData@@H@Z 0043e5b0 f i metaserver.obj
 0001:0003d5d0       ?Empty@?$LList@PAUMetaServerData@@@@QAEXXZ 0043e5d0 f i metaserver.obj
 0001:0003d620       ??1?$LListItem@PAUMetaServerData@@@@QAE@XZ 0043e620 f i metaserver.obj
 0001:0003d630       ?ValidIndex@?$LList@PAUGameServer@@@@QBE_NH@Z 0043e630 f i metaserver.obj
 0001:0003d650       ?ValidIndex@?$LList@PAUMetaServerData@@@@QBE_NH@Z 0043e650 f i metaserver.obj
 0001:0003d670       ??0?$LListItem@PAUMetaServerData@@@@QAE@XZ 0043e670 f i metaserver.obj
 0001:0003d690       ??0?$LListItem@PAVDirectory@@@@QAE@XZ 0043e690 f i metaserver.obj
 0001:0003d6b0       ?Initialise@@YAXXZ         0043e6b0 f   condition_win32.obj
 0001:0003d720       ??0ConditionVariable@@QAE@XZ 0043e720 f   condition_win32.obj
 0001:0003d7b0       ??1ConditionVariable@@QAE@XZ 0043e7b0 f   condition_win32.obj
 0001:0003d7e0       ??_GConditionVariableWinXP@@QAEPAXI@Z 0043e7e0 f i condition_win32.obj
 0001:0003d800       ?Wait@ConditionVariable@@QAEXPAVNetMutex@@H@Z 0043e800 f   condition_win32.obj
 0001:0003d830       ?SignalOne@ConditionVariable@@QAEXXZ 0043e830 f   condition_win32.obj
 0001:0003d850       ??0MutexLock@@QAE@PAVNetMutex@@@Z 0043e850 f i condition_winxp.obj
 0001:0003d870       ??1MutexLock@@QAE@XZ       0043e870 f i condition_winxp.obj
 0001:0003d880       ??0_Container_proxy@std@@QAE@PAU_Container_base12@1@@Z 0043e880 f i condition_winxp.obj
 0001:0003d8a0       ?_Orphan_all@_Container_base12@std@@QAEXXZ 0043e8a0 f i condition_winxp.obj
 0001:0003d8b0       ?_Swap_proxy_and_iterators_unlocked@_Container_base12@std@@AAEXAAU12@@Z 0043e8b0 f i condition_winxp.obj
 0001:0003d8e0       ?_Swap_proxy_and_iterators@_Container_base12@std@@QAEXAAU12@@Z 0043e8e0 f i condition_winxp.obj
 0001:0003d910       ??0ConditionVariableWinXP@@QAE@XZ 0043e910 f   condition_winxp.obj
 0001:0003d9e0       ??0?$queue@PAXV?$deque@PAXV?$allocator@PAX@std@@@std@@@std@@QAE@XZ 0043e9e0 f i condition_winxp.obj
 0001:0003da30       ??1?$queue@PAXV?$deque@PAXV?$allocator@PAX@std@@@std@@@std@@QAE@XZ 0043ea30 f i condition_winxp.obj
 0001:0003da40       ??1ConditionVariableWinXP@@QAE@XZ 0043ea40 f   condition_winxp.obj
 0001:0003db00       ?Wait@ConditionVariableWinXP@@QAEXPAVNetMutex@@H@Z 0043eb00 f   condition_winxp.obj
 0001:0003dd30       ?SignalOne@ConditionVariableWinXP@@QAEXXZ 0043ed30 f   condition_winxp.obj
 0001:0003dd90       ?pop@?$queue@PAXV?$deque@PAXV?$allocator@PAX@std@@@std@@@std@@QAEXXZ 0043ed90 f i condition_winxp.obj
 0001:0003ddb0       ?push@?$queue@PAXV?$deque@PAXV?$allocator@PAX@std@@@std@@@std@@QAEXABQAX@Z 0043edb0 f i condition_winxp.obj
 0001:0003de40       ?front@?$queue@PAXV?$deque@PAXV?$allocator@PAX@std@@@std@@@std@@QAEAAPAXXZ 0043ee40 f i condition_winxp.obj
 0001:0003de60       ?empty@?$queue@PAXV?$deque@PAXV?$allocator@PAX@std@@@std@@@std@@QBE_NXZ 0043ee60 f i condition_winxp.obj
 0001:0003de70       ??1?$deque@PAXV?$allocator@PAX@std@@@std@@QAE@XZ 0043ee70 f i condition_winxp.obj
 0001:0003df20       ??0?$deque@PAXV?$allocator@PAX@std@@@std@@QAE@XZ 0043ef20 f i condition_winxp.obj
 0001:0003df60       ?_Get_data@?$deque@PAXV?$allocator@PAX@std@@@std@@AAEAAV?$_Deque_val@U?$_Deque_simple_types@PAX@std@@@2@XZ 0043ef60 f i condition_winxp.obj
 0001:0003df70       ?_Getal@?$deque@PAXV?$allocator@PAX@std@@@std@@AAEAAV?$allocator@PAX@2@XZ 0043ef70 f i condition_winxp.obj
 0001:0003df80       ?_Tidy@?$deque@PAXV?$allocator@PAX@std@@@std@@AAEXXZ 0043ef80 f i condition_winxp.obj
 0001:0003e010       ?pop_front@?$deque@PAXV?$allocator@PAX@std@@@std@@QAEXXZ 0043f010 f i condition_winxp.obj
 0001:0003e030       ?push_back@?$deque@PAXV?$allocator@PAX@std@@@std@@QAEXABQAX@Z 0043f030 f i condition_winxp.obj
 0001:0003e0c0       ?front@?$deque@PAXV?$allocator@PAX@std@@@std@@QAEAAPAXXZ 0043f0c0 f i condition_winxp.obj
 0001:0003e0e0       ?empty@?$deque@PAXV?$allocator@PAX@std@@@std@@QBE_NXZ 0043f0e0 f i condition_winxp.obj
 0001:0003e0f0       ?_Get_first@?$_Compressed_pair@V?$allocator@PAX@std@@V?$_Deque_val@U?$_Deque_simple_types@PAX@std@@@2@$00@std@@QAEAAV?$allocator@PAX@2@XZ 0043f0f0 f i condition_winxp.obj
 0001:0003e100       ?_Subscript@?$deque@PAXV?$allocator@PAX@std@@@std@@AAEAAPAXI@Z 0043f100 f i condition_winxp.obj
 0001:0003e120       ?_Mysize@?$deque@PAXV?$allocator@PAX@std@@@std@@ABEABIXZ 0043f120 f i condition_winxp.obj
 0001:0003e130       ?_Mysize@?$deque@PAXV?$allocator@PAX@std@@@std@@AAEAAIXZ 0043f130 f i condition_winxp.obj
 0001:0003e140       ?_Myoff@?$deque@PAXV?$allocator@PAX@std@@@std@@AAEAAIXZ 0043f140 f i condition_winxp.obj
 0001:0003e150       ?_Map@?$deque@PAXV?$allocator@PAX@std@@@std@@AAEAAPAPAPAXXZ 0043f150 f i condition_winxp.obj
 0001:0003e160       ?_Orphan_all@?$deque@PAXV?$allocator@PAX@std@@@std@@AAEXXZ 0043f160 f i condition_winxp.obj
 0001:0003e170       ?_Reset_map@?$deque@PAXV?$allocator@PAX@std@@@std@@AAEXXZ 0043f170 f i condition_winxp.obj
 0001:0003e200       ?pop_back@?$deque@PAXV?$allocator@PAX@std@@@std@@QAEXXZ 0043f200 f i condition_winxp.obj
 0001:0003e220       ?_Address_subscript@?$_Deque_val@U?$_Deque_simple_types@PAX@std@@@std@@QAEPAPAXI@Z 0043f220 f i condition_winxp.obj
 0001:0003e250       ?_Map_distance@?$deque@PAXV?$allocator@PAX@std@@@std@@ABEHXZ 0043f250 f i condition_winxp.obj
 0001:0003e260       ?_Mapsize@?$deque@PAXV?$allocator@PAX@std@@@std@@AAEAAIXZ 0043f260 f i condition_winxp.obj
 0001:0003e270       ?_Get_data@?$deque@PAXV?$allocator@PAX@std@@@std@@ABEABV?$_Deque_val@U?$_Deque_simple_types@PAX@std@@@2@XZ 0043f270 f i condition_winxp.obj
 0001:0003e280       ?_Subscript@?$_Deque_val@U?$_Deque_simple_types@PAX@std@@@std@@QAEAAPAXI@Z 0043f280 f i condition_winxp.obj
 0001:0003e2b0       ?_Getblock@?$_Deque_val@U?$_Deque_simple_types@PAX@std@@@std@@QBEHI@Z 0043f2b0 f i condition_winxp.obj
 0001:0003e2d0       ?deallocate@?$allocator@PAPAX@std@@QAEXQAPAPAXI@Z 0043f2d0 f i condition_winxp.obj
 0001:0003e310       ?deallocate@?$allocator@PAX@std@@QAEXQAPAXI@Z 0043f310 f i condition_winxp.obj
 0001:0003e330       ??$swap@PAXV?$deque@PAXV?$allocator@PAX@std@@@std@@$0A@@std@@YAXAAV?$queue@PAXV?$deque@PAXV?$allocator@PAX@std@@@std@@@0@0@Z 0043f330 f i condition_winxp.obj
 0001:0003e340       ??$?0PAX@?$allocator@U_Container_proxy@std@@@std@@QAE@ABV?$allocator@PAX@1@@Z 0043f340 f i condition_winxp.obj
 0001:0003e350       ??$exchange@PAU_Container_proxy@std@@$$T@std@@YAPAU_Container_proxy@0@AAPAU10@$$QA$$T@Z 0043f350 f i condition_winxp.obj
 0001:0003e360       ??$_Delete_plain_internal@V?$allocator@U_Container_proxy@std@@@std@@@std@@YAXAAV?$allocator@U_Container_proxy@std@@@0@QAU_Container_proxy@0@@Z 0043f360 f i condition_winxp.obj
 0001:0003e370       ??$?0$$V@?$_Compressed_pair@V?$allocator@PAX@std@@V?$_Deque_val@U?$_Deque_simple_types@PAX@std@@@2@$00@std@@QAE@U_Zero_then_variadic_args_t@1@@Z 0043f370 f i condition_winxp.obj
 0001:0003e3a0       ??$_Alloc_proxy@V?$allocator@U_Container_proxy@std@@@std@@@_Container_base12@std@@QAEX$$QAV?$allocator@U_Container_proxy@std@@@1@@Z 0043f3a0 f i condition_winxp.obj
 0001:0003e3c0       ??$destroy@PAX@?$_Default_allocator_traits@V?$allocator@PAX@std@@@std@@SAXAAV?$allocator@PAX@1@QAPAX@Z 0043f3c0 f i condition_winxp.obj
 0001:0003e3d0       ??$_Emplace_back_internal@ABQAX@?$deque@PAXV?$allocator@PAX@std@@@std@@AAEXABQAX@Z 0043f3d0 f i condition_winxp.obj
 0001:0003e460       ??$_Destroy_in_place@PAPAX@std@@YAXAAPAPAX@Z 0043f460 f i condition_winxp.obj
 0001:0003e470       ??$?0PAX@?$allocator@PAPAX@std@@QAE@ABV?$allocator@PAX@1@@Z 0043f470 f i condition_winxp.obj
 0001:0003e480       ??$_Unfancy@PAX@std@@YAPAPAXPAPAX@Z 0043f480 f i condition_winxp.obj
 0001:0003e490       ?allocate@?$allocator@U_Container_proxy@std@@@std@@QAEPAU_Container_proxy@2@I@Z 0043f490 f i condition_winxp.obj
 0001:0003e4a0       ?swap@?$queue@PAXV?$deque@PAXV?$allocator@PAX@std@@@std@@@std@@QAEXAAV12@@Z 0043f4a0 f i condition_winxp.obj
 0001:0003e4b0       ?_Getblock@?$deque@PAXV?$allocator@PAX@std@@@std@@ABEHI@Z 0043f4b0 f i condition_winxp.obj
 0001:0003e4d0       ?_Growmap@?$deque@PAXV?$allocator@PAX@std@@@std@@AAEXI@Z 0043f4d0 f i condition_winxp.obj
 0001:0003e620       ??0?$_Deque_val@U?$_Deque_simple_types@PAX@std@@@std@@QAE@XZ 0043f620 f i condition_winxp.obj
 0001:0003e650       ?allocate@?$allocator@PAX@std@@QAEPAPAXI@Z 0043f650 f i condition_winxp.obj
 0001:0003e660       ??0?$allocator@PAX@std@@QAE@XZ 0043f660 f i condition_winxp.obj
 0001:0003e670       ??0_Container_base12@std@@QAE@XZ 0043f670 f i condition_winxp.obj
 0001:0003e680       ?_Xlen@?$deque@PAXV?$allocator@PAX@std@@@std@@CAXXZ 0043f680 f i condition_winxp.obj
 0001:0003e690       ?max_size@?$deque@PAXV?$allocator@PAX@std@@@std@@QBEIXZ 0043f690 f i condition_winxp.obj
 0001:0003e6a0       ?_Getal@?$deque@PAXV?$allocator@PAX@std@@@std@@ABEABV?$allocator@PAX@2@XZ 0043f6a0 f i condition_winxp.obj
 0001:0003e6b0       ?max_size@?$_Default_allocator_traits@V?$allocator@PAX@std@@@std@@SAIABV?$allocator@PAX@2@@Z 0043f6b0 f i condition_winxp.obj
 0001:0003e6c0       ?_Get_first@?$_Compressed_pair@V?$allocator@PAX@std@@V?$_Deque_val@U?$_Deque_simple_types@PAX@std@@@2@$00@std@@QBEABV?$allocator@PAX@2@XZ 0043f6c0 f i condition_winxp.obj
 0001:0003e6d0       ??$swap@PAXV?$allocator@PAX@std@@@std@@YAXAAV?$deque@PAXV?$allocator@PAX@std@@@0@0@Z 0043f6d0 f i condition_winxp.obj
 0001:0003e730       ??$_Deallocate_plain@V?$allocator@U_Container_proxy@std@@@std@@@std@@YAXAAV?$allocator@U_Container_proxy@std@@@0@QAU_Container_proxy@0@@Z 0043f730 f i condition_winxp.obj
 0001:0003e740       ??$_Unfancy@U_Container_proxy@std@@@std@@YAPAU_Container_proxy@0@PAU10@@Z 0043f740 f i condition_winxp.obj
 0001:0003e750       ??$_Construct_in_place@U_Container_proxy@std@@PAU_Container_base12@2@@std@@YAXAAU_Container_proxy@0@$$QAPAU_Container_base12@0@@Z 0043f750 f i condition_winxp.obj
 0001:0003e760       ??$forward@ABQAX@std@@YAABQAXABQAX@Z 0043f760 f i condition_winxp.obj
 0001:0003e770       ??$construct@PAXABQAX@?$_Default_allocator_traits@V?$allocator@PAX@std@@@std@@SAXAAV?$allocator@PAX@1@QAPAXABQAX@Z 0043f770 f i condition_winxp.obj
 0001:0003e780       ??$_Get_size_of_n@$07@std@@YAII@Z 0043f780 f i condition_winxp.obj
 0001:0003e790       ??$_Allocate_at_least_helper@V?$allocator@PAPAX@std@@@std@@YAPAPAPAXAAV?$allocator@PAPAX@0@AAI@Z 0043f790 f i condition_winxp.obj
 0001:0003e7c0       ??$uninitialized_copy@PAPAPAXPAPAPAX@std@@YAPAPAPAXQAPAPAX0PAPAPAX@Z 0043f7c0 f i condition_winxp.obj
 0001:0003e7e0       ??$_Get_unwrapped@ABQAPAPAX@std@@YA?A_TABQAPAPAX@Z 0043f7e0 f i condition_winxp.obj
 0001:0003e7f0       ??$_Idl_distance@PAPAPAXPAPAPAX@std@@YA?A_PABQAPAPAX0@Z 0043f7f0 f i condition_winxp.obj
 0001:0003e800       ??$_Get_unwrapped_n@AAPAPAPAXH@std@@YA?A_TAAPAPAPAXH@Z 0043f800 f i condition_winxp.obj
 0001:0003e810       ??$_Uninitialized_value_construct_n_unchecked1@PAPAPAXI@std@@YAPAPAPAXPAPAPAXI@Z 0043f810 f i condition_winxp.obj
 0001:0003e820       ??$_Destroy_range@PAPAPAXPAPAPAX@std@@YAXPAPAPAXQAPAPAX@Z 0043f820 f i condition_winxp.obj
 0001:0003e830       ??$_Get_size_of_n@$03@std@@YAII@Z 0043f830 f i condition_winxp.obj
 0001:0003e850       ?deallocate@?$_Default_allocator_traits@V?$allocator@U_Container_proxy@std@@@std@@@std@@SAXAAV?$allocator@U_Container_proxy@std@@@2@QAU_Container_proxy@2@I@Z 0043f850 f i condition_winxp.obj
 0001:0003e860       ?swap@?$deque@PAXV?$allocator@PAX@std@@@std@@QAEXAAV12@@Z 0043f860 f i condition_winxp.obj
 0001:0003e8c0       ?allocate@?$allocator@PAPAX@std@@QAEPAPAPAXI@Z 0043f8c0 f i condition_winxp.obj
 0001:0003e900       ??$addressof@U_Container_proxy@std@@@std@@YAPAU_Container_proxy@0@AAU10@@Z 0043f900 f i condition_winxp.obj
 0001:0003e910       ??$forward@PAU_Container_base12@std@@@std@@YA$$QAPAU_Container_base12@0@AAPAU10@@Z 0043f910 f i condition_winxp.obj
 0001:0003e920       ??$_Adl_verify_range@PAPAPAXPAPAPAX@std@@YAXABQAPAPAX0@Z 0043f920 f i condition_winxp.obj
 0001:0003e930       ??$_Uninitialized_copy_unchecked@PAPAPAXPAPAPAX@std@@YAPAPAPAXPAPAPAXQAPAPAX0@Z 0043f930 f i condition_winxp.obj
 0001:0003e940       ??$_Seek_wrapped@PAPAPAXPAPAPAX@std@@YAXAAPAPAPAX$$QAPAPAPAX@Z 0043f940 f i condition_winxp.obj
 0001:0003e950       ??$_Zero_range@PAPAPAX@std@@YAPAPAPAXQAPAPAX0@Z 0043f950 f i condition_winxp.obj
 0001:0003e970       ??$_To_address@PAPAPAX@std@@YA?A_PABQAPAPAX@Z 0043f970 f i condition_winxp.obj
 0001:0003e980       ??$addressof@V?$deque@PAXV?$allocator@PAX@std@@@std@@@std@@YAPAV?$deque@PAXV?$allocator@PAX@std@@@0@AAV10@@Z 0043f980 f i condition_winxp.obj
 0001:0003e990       ??$_Pocs@V?$allocator@PAX@std@@@std@@YAXAAV?$allocator@PAX@0@0@Z 0043f990 f i condition_winxp.obj
 0001:0003e9a0       ??$swap@PAPAPAX$0A@@std@@YAXAAPAPAPAX0@Z 0043f9a0 f i condition_winxp.obj
 0001:0003e9b0       ??$swap@I$0A@@std@@YAXAAI0@Z 0043f9b0 f i condition_winxp.obj
 0001:0003e9c0       ?_Release@?$_Uninitialized_backout@PAPAPAX@std@@QAEPAPAPAXXZ 0043f9c0 f i condition_winxp.obj
 0001:0003e9d0       ??1?$_Uninitialized_backout@PAPAPAX@std@@QAE@XZ 0043f9d0 f i condition_winxp.obj
 0001:0003e9e0       ??0?$_Uninitialized_backout@PAPAPAX@std@@QAE@PAPAPAX@Z 0043f9e0 f i condition_winxp.obj
 0001:0003ea00       ??$_Copy_memmove@PAPAPAXPAPAPAX@std@@YAPAPAPAXPAPAPAX00@Z 0043fa00 f i condition_winxp.obj
 0001:0003ea20       ??$_Emplace_back@AAPAPAX@?$_Uninitialized_backout@PAPAPAX@std@@QAEXAAPAPAX@Z 0043fa20 f i condition_winxp.obj
 0001:0003ea40       ??$forward@PAPAPAX@std@@YA$$QAPAPAPAXAAPAPAPAX@Z 0043fa40 f i condition_winxp.obj
 0001:0003ea50       ??$move@AAPAPAPAX@std@@YA$$QAPAPAPAXAAPAPAPAX@Z 0043fa50 f i condition_winxp.obj
 0001:0003ea60       ??$move@AAI@std@@YA$$QAIAAI@Z 0043fa60 f i condition_winxp.obj
 0001:0003ea70       ??$_Copy_memmove_tail@PAPAPAX@std@@YAPAPAPAXQBDQAPAPAXII@Z 0043fa70 f i condition_winxp.obj
 0001:0003ea90       ??$forward@AAPAPAX@std@@YAAAPAPAXAAPAPAX@Z 0043fa90 f i condition_winxp.obj
 0001:0003eaa0       ??$_Construct_in_place@PAPAXAAPAPAX@std@@YAXAAPAPAX0@Z 0043faa0 f i condition_winxp.obj
 0001:0003eab0       ??$addressof@PAPAX@std@@YAPAPAPAXAAPAPAX@Z 0043fab0 f i condition_winxp.obj
 0001:0003eac0       ??0NetLib@@QAE@XZ          0043fac0 f   net_lib.obj
 0001:0003ead0       ??1NetLib@@QAE@XZ          0043fad0 f   net_lib.obj
 0001:0003eae0       ?Initialise@NetLib@@QAE_NXZ 0043fae0 f   net_lib.obj
 0001:0003eb70       ?GetLocalHostIP@@YAXPADH@Z 0043fb70 f   net_lib.obj
 0001:0003ec90       ?IpAddressToStr@@YAXABUsockaddr_in@@PAD@Z 0043fc90 f   net_lib.obj
 0001:0003ecc0       ??0NetMutex@@QAE@XZ        0043fcc0 f   net_mutex_win32.obj
 0001:0003ece0       ??1NetMutex@@QAE@XZ        0043fce0 f   net_mutex_win32.obj
 0001:0003ed00       ?Lock@NetMutex@@QAEXXZ     0043fd00 f   net_mutex_win32.obj
 0001:0003ed20       ?Unlock@NetMutex@@QAEXXZ   0043fd20 f   net_mutex_win32.obj
 0001:0003ed40       ??0NetSocket@@QAE@XZ       0043fd40 f   net_socket.obj
 0001:0003edb0       ??1NetSocket@@QAE@XZ       0043fdb0 f   net_socket.obj
 0001:0003edd0       ?CheckTimeout@NetSocket@@IAE?AW4NetRetCode@@PAI0H@Z 0043fdd0 f   net_socket.obj
 0001:0003ee20       ?Connect@NetSocket@@QAE?AW4NetRetCode@@PBDG@Z 0043fe20 f   net_socket.obj
 0001:0003eeb0       ?Connect@NetSocket@@IAE?AW4NetRetCode@@XZ 0043feb0 f   net_socket.obj
 0001:0003f010       ?WriteData@NetSocket@@QAE?AW4NetRetCode@@PAXHPAH@Z 00440010 f   net_socket.obj
 0001:0003f1a0       ??0NetSocketListener@@QAE@G@Z 004401a0 f   net_socket_listener.obj
 0001:0003f1c0       ??1NetSocketListener@@QAE@XZ 004401c0 f   net_socket_listener.obj
 0001:0003f1d0       ?GetBoundSocketHandle@NetSocketListener@@QAEIXZ 004401d0 f   net_socket_listener.obj
 0001:0003f1f0       ?GetPort@NetSocketListener@@QBEHXZ 004401f0 f   net_socket_listener.obj
 0001:0003f200       ?Bind@NetSocketListener@@QAE?AW4NetRetCode@@XZ 00440200 f   net_socket_listener.obj
 0001:0003f360       ?EnableBroadcast@NetSocketListener@@QAE?AW4NetRetCode@@XZ 00440360 f   net_socket_listener.obj
 0001:0003f390       ?DebugOutNetSocketError@@YAXH@Z 00440390 f   net_socket_listener.obj
 0001:0003f3c0       ?StartListening@NetSocketListener@@QAE?AW4NetRetCode@@P6AXABVNetUdpPacket@@@ZPAVThreadFunctions@@@Z 004403c0 f   net_socket_listener.obj
 0001:0003f4a0       ?StopListening@NetSocketListener@@QAEXPAVThreadController@@@Z 004404a0 f   net_socket_listener.obj
 0001:0003f4e0       ??0NetSocketSession@@QAE@AAVNetSocketListener@@PBDI@Z 004404e0 f   net_socket_session.obj
 0001:0003f610       ?WriteData@NetSocketSession@@QAE?AW4NetRetCode@@PAXHPAH@Z 00440610 f   net_socket_session.obj
 0001:0003f680       _WspiapiFreeAddrInfo@4     00440680 f i net_socket_session.obj
 0001:0003f6a0       _gai_strerrorA             004406a0 f i net_socket_session.obj
 0001:0003f6d0       _WspiapiParseV4Address@8   004406d0 f i net_socket_session.obj
 0001:0003f730       _WspiapiQueryDNS@24        00440730 f i net_socket_session.obj
 0001:0003f880       _WspiapiStrdup@4           00440880 f i net_socket_session.obj
 0001:0003f8d0       _WspiapiLookupNode@24      004408d0 f i net_socket_session.obj
 0001:0003fb10       _WspiapiNewAddrInfo@16     00440b10 f i net_socket_session.obj
 0001:0003fb90       _WspiapiClone@8            00440b90 f i net_socket_session.obj
 0001:0003fc30       _WspiapiLegacyGetAddrInfo@16 00440c30 f i net_socket_session.obj
 0001:00040060       _WspiapiLegacyGetNameInfo@28 00441060 f i net_socket_session.obj
 0001:000402a0       _WspiapiLegacyFreeAddrInfo@4 004412a0 f i net_socket_session.obj
 0001:000402f0       _WspiapiLoad@4             004412f0 f i net_socket_session.obj
 0001:000404b0       _WspiapiGetAddrInfo@16     004414b0 f i net_socket_session.obj
 0001:000404f0       ?NetStartThread@@YA?AW4NetRetCode@@P6GKPAX@Z0@Z 004414f0 f   net_thread_win32.obj
 0001:00040530       ??0NetUdpPacket@@QAE@XZ    00441530 f   net_udp_packet.obj
 0001:00040560       ?GetPort@NetUdpPacket@@QBEHXZ 00441560 f   net_udp_packet.obj
 0001:00040570       ??0ThreadController@@QAE@XZ 00441570 f   thread_controller.obj
 0001:00040580       ??1ThreadController@@QAE@XZ 00441580 f   thread_controller.obj
 0001:000405c0       ?Start@ThreadController@@QAEXP6AXPAVThreadFunctions@@@ZPAX@Z 004415c0 f   thread_controller.obj
 0001:00040640       ?IsRunning@ThreadController@@QBE_NXZ 00441640 f   thread_controller.obj
 0001:00040650       ?Stop@ThreadController@@QAEXXZ 00441650 f   thread_controller.obj
 0001:00040690       ??_GThreadFunctions@@QAEPAXI@Z 00441690 f i thread_controller.obj
 0001:000406c0       ??1ThreadFunctions@@QAE@XZ 004416c0 f i thread_controller.obj
 0001:000406e0       ?Start@ThreadFunctions@@CGKPAX@Z 004416e0 f   thread_controller.obj
 0001:00040700       ?Run@ThreadFunctions@@AAEXXZ 00441700 f   thread_controller.obj
 0001:00040730       ?Stop@ThreadFunctions@@AAEXXZ 00441730 f   thread_controller.obj
 0001:00040770       ??0ThreadFunctions@@QAE@P6AXPAV0@@ZPAX@Z 00441770 f   thread_controller.obj
 0001:000407e0       ?Argument@ThreadFunctions@@QAEPAXXZ 004417e0 f   thread_controller.obj
 0001:000407f0       ?StopRequested@ThreadFunctions@@QAE_NXZ 004417f0 f   thread_controller.obj
 0001:00040810       ?Wait@ThreadFunctions@@QAE_NN@Z 00441810 f   thread_controller.obj
 0001:000408b0       ??0PreferencesItem@@QAE@PAD@Z 004418b0 f   preferences.obj
 0001:00040a10       ??0PreferencesItem@@QAE@PBD0@Z 00441a10 f   preferences.obj
 0001:00040a40       ??0PreferencesItem@@QAE@PBDM@Z 00441a40 f   preferences.obj
 0001:00040a70       ??0PreferencesItem@@QAE@PBDH@Z 00441a70 f   preferences.obj
 0001:00040aa0       ??1PreferencesItem@@QAE@XZ 00441aa0 f   preferences.obj
 0001:00040ad0       ??0Preferences@@QAE@XZ     00441ad0 f   preferences.obj
 0001:00040b00       ??1?$FastDArray@PAD@@QAE@XZ 00441b00 f i preferences.obj
 0001:00040b10       ??1Preferences@@QAE@XZ     00441b10 f   preferences.obj
 0001:00040c10       ?IsLineEmpty@Preferences@@IAE_NPBD@Z 00441c10 f   preferences.obj
 0001:00040c50       ?Load@Preferences@@QAEXPBD@Z 00441c50 f   preferences.obj
 0001:00040ce0       ?SaveItem@Preferences@@IAEXPAU_iobuf@@PAVPreferencesItem@@@Z 00441ce0 f   preferences.obj
 0001:00040d60       ?Save@Preferences@@QAEXXZ  00441d60 f   preferences.obj
 0001:00040fc0       ?GetFloat@Preferences@@QAEMPBDM@Z 00441fc0 f   preferences.obj
 0001:00041010       ?GetInt@Preferences@@QAEHPBDH@Z 00442010 f   preferences.obj
 0001:00041050       ?GetString@Preferences@@QAEPBDPBD0@Z 00442050 f   preferences.obj
 0001:00041090       ?SetString@Preferences@@QAEXPBD0@Z 00442090 f   preferences.obj
 0001:00041150       ?SetFloat@Preferences@@QAEXPBDM@Z 00442150 f   preferences.obj
 0001:00041200       ?SetInt@Preferences@@QAEXPBDH@Z 00442200 f   preferences.obj
 0001:000412a0       ?AddLine@Preferences@@QAEXPBD@Z 004422a0 f   preferences.obj
 0001:000414b0       ?DoesKeyExist@Preferences@@QAE_NPBD@Z 004424b0 f   preferences.obj
 0001:000414d0       ??A?$DArray@PAD@@QAEAAPADH@Z 004424d0 f i preferences.obj
 0001:00041530       ??0?$HashTable@PAVPreferencesItem@@@@QAE@XZ 00442530 f i preferences.obj
 0001:000415b0       ??1?$HashTable@PAVPreferencesItem@@@@QAE@XZ 004425b0 f i preferences.obj
 0001:000415d0       ?GetIndex@?$HashTable@PAVPreferencesItem@@@@QBEHPBD@Z 004425d0 f i preferences.obj
 0001:00041630       ?PutData@?$HashTable@PAVPreferencesItem@@@@QAEHPBDABQAVPreferencesItem@@@Z 00442630 f i preferences.obj
 0001:000416b0       ?GetData@?$HashTable@PAVPreferencesItem@@@@QBEPAVPreferencesItem@@I@Z 004426b0 f i preferences.obj
 0001:000416c0       ?EmptyAndDelete@?$HashTable@PAVPreferencesItem@@@@QAEXXZ 004426c0 f i preferences.obj
 0001:00041710       ?ValidIndex@?$HashTable@PAVPreferencesItem@@@@QBE_NI@Z 00442710 f i preferences.obj
 0001:00041730       ?Size@?$HashTable@PAVPreferencesItem@@@@QBEIXZ 00442730 f i preferences.obj
 0001:00041740       ??A?$HashTable@PAVPreferencesItem@@@@QBEPAVPreferencesItem@@I@Z 00442740 f i preferences.obj
 0001:00041750       ??0?$FastDArray@PAD@@QAE@XZ 00442750 f i preferences.obj
 0001:00041770       ?PutData@?$FastDArray@PAD@@QAEHABQAD@Z 00442770 f i preferences.obj
 0001:000417e0       ?RemoveData@?$FastDArray@PAD@@QAEXH@Z 004427e0 f i preferences.obj
 0001:00041850       ?EmptyAndDelete@?$FastDArray@PAD@@QAEXXZ 00442850 f i preferences.obj
 0001:00041880       ??_GPreferencesItem@@QAEPAXI@Z 00442880 f i preferences.obj
 0001:000418a0       ?HashFunc@?$HashTable@PAVPreferencesItem@@@@IBEIPBD@Z 004428a0 f i preferences.obj
 0001:00041920       ?Grow@?$HashTable@PAVPreferencesItem@@@@IAEXXZ 00442920 f i preferences.obj
 0001:00041a30       ?GetInsertPos@?$HashTable@PAVPreferencesItem@@@@IBEIPBD@Z 00442a30 f i preferences.obj
 0001:00041ab0       ?Empty@?$HashTable@PAVPreferencesItem@@@@QAEXXZ 00442ab0 f i preferences.obj
 0001:00041b00       ?Grow@?$FastDArray@PAD@@IAEXXZ 00442b00 f i preferences.obj
 0001:00041b30       ?DumpKeys@?$HashTable@PAVPreferencesItem@@@@QBEXXZ 00442b30 f i preferences.obj
 0001:00041ba0       ?SetSize@?$FastDArray@PAD@@QAEXH@Z 00442ba0 f i preferences.obj
 0001:00041d90       ?RebuildFreeList@?$FastDArray@PAD@@IAEXXZ 00442d90 f i preferences.obj
 0001:00041e20       ?RebuildNumUsed@?$FastDArray@PAD@@IAEXXZ 00442e20 f i preferences.obj
 0001:00041e50       ??0ProfiledElement@@QAE@PBDPAV0@@Z 00442e50 f   profiler.obj
 0001:00041ec0       ??1ProfiledElement@@QAE@XZ 00442ec0 f   profiler.obj
 0001:00041ed0       ?Start@ProfiledElement@@QAEXXZ 00442ed0 f   profiler.obj
 0001:00041ee0       ?End@ProfiledElement@@QAEXXZ 00442ee0 f   profiler.obj
 0001:00041f30       ?Advance@ProfiledElement@@QAEXXZ 00442f30 f   profiler.obj
 0001:00041fc0       ?ResetHistory@ProfiledElement@@QAEXXZ 00442fc0 f   profiler.obj
 0001:00042020       ?GetMaxChildTime@ProfiledElement@@QAENXZ 00443020 f   profiler.obj
 0001:00042080       ??0Profiler@@QAE@XZ        00443080 f   profiler.obj
 0001:00042130       ??1Profiler@@QAE@XZ        00443130 f   profiler.obj
 0001:00042140       ?Start@Profiler@@SAXXZ     00443140 f   profiler.obj
 0001:000421a0       ?Stop@Profiler@@SAXXZ      004431a0 f   profiler.obj
 0001:000421d0       ??_GProfiler@@QAEPAXI@Z    004431d0 f i profiler.obj
 0001:000421f0       ?Advance@Profiler@@QAEXXZ  004431f0 f   profiler.obj
 0001:000422a0       ?ResetHistory@Profiler@@QAEXXZ 004432a0 f   profiler.obj
 0001:000422b0       ?StartProfile@Profiler@@QAEXPBD@Z 004432b0 f   profiler.obj
 0001:00042390       ?EndProfile@Profiler@@QAEXPBD@Z 00443390 f   profiler.obj
 0001:000423e0       ??0?$SortingHashTable@PAVProfiledElement@@@@QAE@XZ 004433e0 f i profiler.obj
 0001:00042460       ??1?$SortingHashTable@PAVProfiledElement@@@@QAE@XZ 00443460 f i profiler.obj
 0001:00042480       ?PutData@?$SortingHashTable@PAVProfiledElement@@@@QAEHPBDABQAVProfiledElement@@@Z 00443480 f i profiler.obj
 0001:00042520       ?StartOrderedWalk@?$SortingHashTable@PAVProfiledElement@@@@QAEFXZ 00443520 f i profiler.obj
 0001:00042540       ?GetNextOrderedIndex@?$SortingHashTable@PAVProfiledElement@@@@QAEFXZ 00443540 f i profiler.obj
 0001:00042560       ?GetData@?$HashTable@PAVProfiledElement@@@@QBEPAVProfiledElement@@PBDABQAV2@@Z 00443560 f i profiler.obj
 0001:00042590       ?ValidIndex@?$HashTable@PAVProfiledElement@@@@QBE_NI@Z 00443590 f i profiler.obj
 0001:000425b0       ?Size@?$HashTable@PAVProfiledElement@@@@QBEIXZ 004435b0 f i profiler.obj
 0001:000425c0       ??A?$HashTable@PAVProfiledElement@@@@QBEPAVProfiledElement@@I@Z 004435c0 f i profiler.obj
 0001:000425d0       ?Grow@?$SortingHashTable@PAVProfiledElement@@@@IAEXXZ 004435d0 f i profiler.obj
 0001:00042750       ?FindPrevKey@?$SortingHashTable@PAVProfiledElement@@@@IBEFPBD@Z 00443750 f i profiler.obj
 0001:000427b0       ?GetInsertPos@?$HashTable@PAVProfiledElement@@@@IBEIPBD@Z 004437b0 f i profiler.obj
 0001:00042830       ??0?$HashTable@PAVProfiledElement@@@@QAE@XZ 00443830 f i profiler.obj
 0001:000428b0       ??1?$HashTable@PAVProfiledElement@@@@QAE@XZ 004438b0 f i profiler.obj
 0001:000428d0       ?GetIndex@?$HashTable@PAVProfiledElement@@@@QBEHPBD@Z 004438d0 f i profiler.obj
 0001:00042930       ?HashFunc@?$HashTable@PAVProfiledElement@@@@IBEIPBD@Z 00443930 f i profiler.obj
 0001:000429b0       ?Empty@?$HashTable@PAVProfiledElement@@@@QAEXXZ 004439b0 f i profiler.obj
 0001:00042a00       ?DumpKeys@?$HashTable@PAVProfiledElement@@@@QBEXXZ 00443a00 f i profiler.obj
 0001:00042a70       ??0Colour@@QAE@XZ          00443a70 f   colour.obj
 0001:00042a90       ??0Colour@@QAE@EEEE@Z      00443a90 f   colour.obj
 0001:00042ab0       ?Set@Colour@@QAEXEEEE@Z    00443ab0 f   colour.obj
 0001:00042ad0       ??HColour@@QBE?AV0@ABV0@@Z 00443ad0 f   colour.obj
 0001:00042b10       ??DColour@@QBE?AV0@M@Z     00443b10 f   colour.obj
 0001:00042b80       ??4Colour@@QAEABV0@ABV0@@Z 00443b80 f   colour.obj
 0001:00042bb0       ??XColour@@QAEABV0@M@Z     00443bb0 f   colour.obj
 0001:00042c10       ??YColour@@QAEABV0@ABV0@@Z 00443c10 f   colour.obj
 0001:00042c40       ??8Colour@@QBE_NABV0@@Z    00443c40 f   colour.obj
 0001:00042c70       ?GetHexValue@Colour@@QAEXPAD@Z 00443c70 f   colour.obj
 0001:00042ca0       ?LoadFromHex@Colour@@QAEXPAD@Z 00443ca0 f   colour.obj
 0001:00042d70       ?cos@@YAMM@Z               00443d70 f i renderer.obj
 0001:00042d80       ?sin@@YAMM@Z               00443d80 f i renderer.obj
 0001:00042d90       ??0Matrix4f@@QAE@XZ        00443d90 f   renderer.obj
 0001:00042da0       ?LoadIdentity@Matrix4f@@QAEXXZ 00443da0 f   renderer.obj
 0001:00042dd0       ?Ortho@Matrix4f@@QAEXMMMMMM@Z 00443dd0 f   renderer.obj
 0001:00042f10       ??0Renderer@@QAE@XZ        00443f10 f   renderer.obj
 0001:000432e0       ??_ERenderer@@UAEPAXI@Z    004442e0 f i * CIL library *:* CIL module *
 0001:000432e0       ??_GRenderer@@UAEPAXI@Z    004442e0 f i renderer.obj
 0001:00043310       ??1Renderer@@UAE@XZ        00444310 f   renderer.obj
 0001:00043430       ??_GRenderer3D@@QAEPAXI@Z  00444430 f i renderer.obj
 0001:00043450       ?Set2DViewport@Renderer@@QAEXMMMMHHHH@Z 00444450 f   renderer.obj
 0001:00043510       ?Reset2DViewport@Renderer@@QAEXXZ 00444510 f   renderer.obj
 0001:00043550       ?BeginScene@Renderer@@QAEXXZ 00444550 f   renderer.obj
 0001:00043590       ?ClearScreen@Renderer@@QAEX_N0@Z 00444590 f   renderer.obj
 0001:000435a0       ?Shutdown@Renderer@@QAEXXZ 004445a0 f   renderer.obj
 0001:000435b0       ?SetBlendMode@Renderer@@QAEXH@Z 004445b0 f   renderer.obj
 0001:00043640       ?SetBlendFunc@Renderer@@QAEXHH@Z 00444640 f   renderer.obj
 0001:00043670       ?SetDepthBuffer@Renderer@@QAEX_N0@Z 00444670 f   renderer.obj
 0001:000436b0       ?SetDefaultFont@Renderer@@QAEXPBD0@Z 004446b0 f   renderer.obj
 0001:00043750       ?SetFontSpacing@Renderer@@QAEXPBDM@Z 00444750 f   renderer.obj
 0001:000437a0       ?GetFontSpacing@Renderer@@QAEMPBD@Z 004447a0 f   renderer.obj
 0001:000437d0       ?SetFont@Renderer@@QAEXPBD_N110@Z 004447d0 f   renderer.obj
 0001:00043890       ?SetFont@Renderer@@QAEXPBD0@Z 00444890 f   renderer.obj
 0001:000438c0       ?IsFontLanguageSpecific@Renderer@@QAE_NXZ 004448c0 f   renderer.obj
 0001:00043900       ?GetBitmapFont@Renderer@@QAEPAVBitmapFont@@XZ 00444900 f   renderer.obj
 0001:00043970       ?Text@Renderer@@QAAXMMABVColour@@MPBDZZ 00444970 f   renderer.obj
 0001:000439e0       ?TextCentre@Renderer@@QAAXMMABVColour@@MPBDZZ 004449e0 f   renderer.obj
 0001:00043a70       ?TextRight@Renderer@@QAAXMMABVColour@@MPBDZZ 00444a70 f   renderer.obj
 0001:00043af0       ?TextCentreSimple@Renderer@@QAEXMMABVColour@@MPBD@Z 00444af0 f   renderer.obj
 0001:00043b50       ?TextRightSimple@Renderer@@QAEXMMABVColour@@MPBD@Z 00444b50 f   renderer.obj
 0001:00043bb0       ?TextSimple@Renderer@@QAEXMMABVColour@@MPBD@Z 00444bb0 f   renderer.obj
 0001:00043c90       ?TextSimpleBatch@Renderer@@QAEXMMABVColour@@MPBD@Z 00444c90 f   renderer.obj
 0001:00043d10       ?TextCentreSimpleBatch@Renderer@@QAEXMMABVColour@@MPBD@Z 00444d10 f   renderer.obj
 0001:00043d70       ?TextWidth@Renderer@@QAEMPBDM@Z 00444d70 f   renderer.obj
 0001:00043df0       ?TextWidth@Renderer@@QAEMPBDIMPAVBitmapFont@@@Z 00444df0 f   renderer.obj
 0001:00043e20       ?Rect@Renderer@@QAEXMMMMABVColour@@M@Z 00444e20 f   renderer.obj
 0001:000441a0       ?RectFill@Renderer@@QAEXMMMMABVColour@@@Z 004451a0 f   renderer.obj
 0001:000441d0       ?RectFill@Renderer@@QAEXMMMMABVColour@@0_N@Z 004451d0 f   renderer.obj
 0001:00044210       ?RectFill@Renderer@@QAEXMMMMABVColour@@000@Z 00445210 f   renderer.obj
 0001:00044610       ?Line@Renderer@@QAEXMMMMABVColour@@M@Z 00445610 f   renderer.obj
 0001:00044770       ?Circle@Renderer@@QAEXMMMHABVColour@@M@Z 00445770 f   renderer.obj
 0001:000449f0       ?CircleFill@Renderer@@QAEXMMMHABVColour@@@Z 004459f0 f   renderer.obj
 0001:00044ce0       ?TriangleFill@Renderer@@QAEXMMMMMMABVColour@@@Z 00445ce0 f   renderer.obj
 0001:00044ea0       ?BeginLines@Renderer@@QAEXABVColour@@M@Z 00445ea0 f   renderer.obj
 0001:00044ec0       ?Line@Renderer@@QAEXMM@Z   00445ec0 f   renderer.obj
 0001:00044fb0       ?EndLines@Renderer@@QAEXXZ 00445fb0 f   renderer.obj
 0001:000450c0       ?BeginLineStrip2D@Renderer@@QAEXABVColour@@M@Z 004460c0 f   renderer.obj
 0001:00045100       ?LineStripVertex2D@Renderer@@QAEXMM@Z 00446100 f   renderer.obj
 0001:00045210       ?EndLineStrip2D@Renderer@@QAEXXZ 00446210 f   renderer.obj
 0001:00045330       ?SetClip@Renderer@@QAEXHHHH@Z 00446330 f   renderer.obj
 0001:000453b0       ?ResetClip@Renderer@@QAEXXZ 004463b0 f   renderer.obj
 0001:000453c0       ?Blit@Renderer@@QAEXPAVImage@@MMABVColour@@@Z 004463c0 f   renderer.obj
 0001:00045430       ?Blit@Renderer@@QAEXPAVImage@@MMMMABVColour@@@Z 00446430 f   renderer.obj
 0001:000457c0       ?Blit@Renderer@@QAEXPAVImage@@MMMMABVColour@@M@Z 004467c0 f   renderer.obj
 0001:00045e40       ?BlitChar@Renderer@@QAEXIMMMMMMMMABVColour@@@Z 00446e40 f   renderer.obj
 0001:000461b0       ?BatchBlitChar@Renderer@@QAEXIMMMMMMMMABVColour@@@Z 004471b0 f   renderer.obj
 0001:000464e0       ?SaveScreenshot@Renderer@@QAEXXZ 004474e0 f   renderer.obj
 0001:000467b0       ?ScreenshotsDirectory@Renderer@@IAEPADXZ 004477b0 f   renderer.obj
 0001:000467c0       ?CreateShader@Renderer@@QAEIPBD0@Z 004477c0 f   renderer.obj
 0001:00046930       ?InitializeShaders@Renderer@@IAEXXZ 00447930 f   renderer.obj
 0001:00046960       ?SetupVertexArrays@Renderer@@IAEXXZ 00447960 f   renderer.obj
 0001:00046a20       ?FlushIfTextureChanged@Renderer@@IAEXI_N@Z 00447a20 f   renderer.obj
 0001:00046a70       ?FlushVertices@Renderer@@QAEXI_N@Z 00447a70 f   renderer.obj
 0001:00046a90       ?FlushTriangles@Renderer@@IAEX_N@Z 00447a90 f   renderer.obj
 0001:00046ba0       ?FlushLines@Renderer@@IAEXXZ 00447ba0 f   renderer.obj
 0001:00046c80       ?ResetFrameCounters@Renderer@@QAEXXZ 00447c80 f   renderer.obj
 0001:00046df0       ?IncrementDrawCall@Renderer@@QAEXPBD@Z 00447df0 f   renderer.obj
 0001:000471c0       ?BeginFrame@Renderer@@QAEXXZ 004481c0 f   renderer.obj
 0001:000471d0       ?RotateAroundZ@?$Vector3@M@@QAEXM@Z 004481d0 f i renderer.obj
 0001:000472e0       ??Y?$Vector3@M@@QAEABV0@ABV0@@Z 004482e0 f i renderer.obj
 0001:00047320       ?FastRotateAround@?$Vector3@M@@QAEXABV1@M@Z 00448320 f i renderer.obj
 0001:00047480       ??D?$Vector3@M@@QBE?AV0@M@Z 00448480 f i renderer.obj
 0001:000474b0       ??G?$Vector3@M@@QBE?AV0@ABV0@@Z 004484b0 f i renderer.obj
 0001:000474f0       ??H?$Vector3@M@@QBE?AV0@ABV0@@Z 004484f0 f i renderer.obj
 0001:00047530       ??D?$Vector3@M@@QBEMABV0@@Z 00448530 f i renderer.obj
 0001:00047560       ??T?$Vector3@M@@QBE?AV0@ABV0@@Z 00448560 f i renderer.obj
 0001:000475d0       ??0?$BTree@M@@QAE@XZ       004485d0 f i renderer.obj
 0001:000475f0       ??1?$BTree@M@@QAE@XZ       004485f0 f i renderer.obj
 0001:00047600       ?PutData@?$BTree@M@@QAEXPBDABM@Z 00448600 f i renderer.obj
 0001:00047720       ?LookupTree@?$BTree@M@@QAEPAV1@PBD@Z 00448720 f i renderer.obj
 0001:00047770       ??0?$BTree@PAUCachedVBO@Renderer@@@@QAE@XZ 00448770 f i renderer.obj
 0001:00047790       ??1?$BTree@PAUCachedVBO@Renderer@@@@QAE@XZ 00448790 f i renderer.obj
 0001:000477a0       ??$?DM@@YA?AV?$Vector3@M@@MABV0@@Z 004487a0 f i renderer.obj
 0001:000477d0       ??0?$BTree@M@@QAE@PBDABM@Z 004487d0 f i renderer.obj
 0001:00047830       ?Empty@?$BTree@M@@QAEXXZ   00448830 f i renderer.obj
 0001:00047890       ?Empty@?$BTree@PAUCachedVBO@Renderer@@@@QAEXXZ 00448890 f i renderer.obj
 0001:000478f0       ??_G?$BTree@M@@QAEPAXI@Z   004488f0 f i renderer.obj
 0001:00047910       ??_G?$BTree@PAUCachedVBO@Renderer@@@@QAEPAXI@Z 00448910 f i renderer.obj
 0001:00047930       _sinf                      00448930 f i renderer.obj
 0001:00047950       _cosf                      00448950 f i renderer.obj
 0001:00047970       ??0Vertex3D@@QAE@XZ        00448970 f i renderer_3d.obj
 0001:000479b0       ??0Vertex3D@@QAE@MMMMMMM@Z 004489b0 f i renderer_3d.obj
 0001:000479f0       ??0Matrix4f3D@@QAE@XZ      004489f0 f   renderer_3d.obj
 0001:00047a00       ?LoadIdentity@Matrix4f3D@@QAEXXZ 00448a00 f   renderer_3d.obj
 0001:00047a70       ?Perspective@Matrix4f3D@@QAEXMMMM@Z 00448a70 f   renderer_3d.obj
 0001:00047b10       ?LookAt@Matrix4f3D@@QAEXMMMMMMMMM@Z 00448b10 f   renderer_3d.obj
 0001:00047d20       ?Normalize@Matrix4f3D@@AAEXAAM00@Z 00448d20 f   renderer_3d.obj
 0001:00047db0       ?Cross@Matrix4f3D@@AAEXMMMMMMAAM00@Z 00448db0 f   renderer_3d.obj
 0001:00047e10       ??0Renderer3D@@QAE@PAVRenderer@@@Z 00448e10 f   renderer_3d.obj
 0001:00047fd0       ??_H@YGXPAXIIP6EPAX0@Z@Z   00448fd0 f i renderer_3d.obj
 0001:00048000       ??1Renderer3D@@QAE@XZ      00449000 f   renderer_3d.obj
 0001:00048050       ?Shutdown@Renderer3D@@QAEXXZ 00449050 f   renderer_3d.obj
 0001:000481b0       ?Initialize3DShaders@Renderer3D@@AAEXXZ 004491b0 f   renderer_3d.obj
 0001:000481e0       ?Setup3DVertexArrays@Renderer3D@@AAEXXZ 004491e0 f   renderer_3d.obj
 0001:00048290       ?SetPerspective@Renderer3D@@QAEXMMMM@Z 00449290 f   renderer_3d.obj
 0001:000482c0       ?SetLookAt@Renderer3D@@QAEXMMMMMMMMM@Z 004492c0 f   renderer_3d.obj
 0001:00048320       ?BeginMegaVBO3D@Renderer3D@@QAEXPBDABVColour@@@Z 00449320 f   renderer_3d.obj
 0001:000483a0       ?AddLineStripToMegaVBO3D@Renderer3D@@QAEXPBV?$Vector3@M@@H@Z 004493a0 f   renderer_3d.obj
 0001:00048500       ?EndMegaVBO3D@Renderer3D@@QAEXXZ 00449500 f   renderer_3d.obj
 0001:00048680       ??0Cached3DVBO@Renderer3D@@QAE@XZ 00449680 f i renderer_3d.obj
 0001:00048690       ?RenderMegaVBO3D@Renderer3D@@QAEXPBD@Z 00449690 f   renderer_3d.obj
 0001:000487f0       ?IsMegaVBO3DValid@Renderer3D@@QAE_NPBD@Z 004497f0 f   renderer_3d.obj
 0001:00048830       ?EnableFog@Renderer3D@@QAEXMMMMMMM@Z 00449830 f   renderer_3d.obj
 0001:000488a0       ?DisableFog@Renderer3D@@QAEXXZ 004498a0 f   renderer_3d.obj
 0001:000488b0       ??0?$BTree@PAUCached3DVBO@Renderer3D@@@@QAE@XZ 004498b0 f i renderer_3d.obj
 0001:000488d0       ??1?$BTree@PAUCached3DVBO@Renderer3D@@@@QAE@XZ 004498d0 f i renderer_3d.obj
 0001:000488e0       ?PutData@?$BTree@PAUCached3DVBO@Renderer3D@@@@QAEXPBDABQAUCached3DVBO@Renderer3D@@@Z 004498e0 f i renderer_3d.obj
 0001:00048a00       ?GetData@?$BTree@PAUCached3DVBO@Renderer3D@@@@QAEPAUCached3DVBO@Renderer3D@@PBD@Z 00449a00 f i renderer_3d.obj
 0001:00048a20       ?LookupTree@?$BTree@PAUCached3DVBO@Renderer3D@@@@QAEPAV1@PBD@Z 00449a20 f i renderer_3d.obj
 0001:00048a70       ?Empty@?$BTree@PAUCached3DVBO@Renderer3D@@@@QAEXXZ 00449a70 f i renderer_3d.obj
 0001:00048ad0       ?ConvertIndexToDArray@?$BTree@PAUCached3DVBO@Renderer3D@@@@QAEPAV?$DArray@PAD@@XZ 00449ad0 f i renderer_3d.obj
 0001:00048b00       ??_G?$BTree@PAUCached3DVBO@Renderer3D@@@@QAEPAXI@Z 00449b00 f i renderer_3d.obj
 0001:00048b20       ?RecursiveConvertIndexToDArray@?$BTree@PAUCached3DVBO@Renderer3D@@@@IAEXPAV?$DArray@PAD@@PAV1@@Z 00449b20 f i renderer_3d.obj
 0001:00048b80       ??0?$BTree@PAUCached3DVBO@Renderer3D@@@@QAE@PBDABQAUCached3DVBO@Renderer3D@@@Z 00449b80 f i renderer_3d.obj
 0001:00048be0       ?Left@?$BTree@PAUCached3DVBO@Renderer3D@@@@QBEPAV1@XZ 00449be0 f i renderer_3d.obj
 0001:00048bf0       ?Right@?$BTree@PAUCached3DVBO@Renderer3D@@@@QBEPAV1@XZ 00449bf0 f i renderer_3d.obj
 0001:00048c00       _tanf                      00449c00 f i renderer_3d.obj
 0001:00048c20       ?GetAtlasCoord@AtlasImage@@QBEPBUAtlasCoord@@XZ 00449c20 f i renderer_buffers.obj
 0001:00048c30       ?GetImageUVCoords@Renderer@@QAEXPAVImage@@AAM111@Z 00449c30 f   renderer_buffers.obj
 0001:00048ce0       ?GetEffectiveTextureID@Renderer@@QAEIPAVImage@@@Z 00449ce0 f   renderer_buffers.obj
 0001:00048d20       ?FlushTextBuffer@Renderer@@IAEXXZ 00449d20 f   renderer_buffers.obj
 0001:00048eb0       ?BeginTextBatch@Renderer@@QAEXXZ 00449eb0 f   renderer_buffers.obj
 0001:00048ec0       ?EndTextBatch@Renderer@@QAEXXZ 00449ec0 f   renderer_buffers.obj
 0001:00048ee0       ?FlushTextContext@Renderer@@QAEXXZ 00449ee0 f   renderer_buffers.obj
 0001:00048ef0       ?UnitTrailLine@Renderer@@QAEXMMMMABVColour@@@Z 00449ef0 f   renderer_buffers.obj
 0001:00049030       ?BeginUnitTrailBatch@Renderer@@QAEXXZ 0044a030 f   renderer_buffers.obj
 0001:00049040       ?EndUnitTrailBatch@Renderer@@QAEXXZ 0044a040 f   renderer_buffers.obj
 0001:00049050       ?FlushUnitTrailsIfFull@Renderer@@QAEXH@Z 0044a050 f   renderer_buffers.obj
 0001:00049070       ?FlushUnitTrails@Renderer@@IAEXXZ 0044a070 f   renderer_buffers.obj
 0001:00049150       ?UnitMainSprite@Renderer@@QAEXPAVImage@@MMMMABVColour@@@Z 0044a150 f   renderer_buffers.obj
 0001:000494f0       ?BeginUnitMainBatch@Renderer@@QAEXXZ 0044a4f0 f   renderer_buffers.obj
 0001:00049520       ?EndUnitMainBatch@Renderer@@QAEXXZ 0044a520 f   renderer_buffers.obj
 0001:00049540       ?FlushUnitMainSpritesIfFull@Renderer@@QAEXH@Z 0044a540 f   renderer_buffers.obj
 0001:00049560       ?FlushUnitMainSprites@Renderer@@IAEXXZ 0044a560 f   renderer_buffers.obj
 0001:00049690       ?UnitRotating@Renderer@@QAEXPAVImage@@MMMMABVColour@@M@Z 0044a690 f   renderer_buffers.obj
 0001:00049cd0       ?BeginUnitRotatingBatch@Renderer@@QAEXXZ 0044acd0 f   renderer_buffers.obj
 0001:00049d00       ?EndUnitRotatingBatch@Renderer@@QAEXXZ 0044ad00 f   renderer_buffers.obj
 0001:00049d20       ?FlushUnitRotatingIfFull@Renderer@@IAEXH@Z 0044ad20 f   renderer_buffers.obj
 0001:00049d40       ?FlushUnitRotating@Renderer@@IAEXXZ 0044ad40 f   renderer_buffers.obj
 0001:00049e70       ?UnitStateIcon@Renderer@@QAEXPAVImage@@MMMMABVColour@@@Z 0044ae70 f   renderer_buffers.obj
 0001:0004a210       ?BeginUnitStateBatch@Renderer@@QAEXXZ 0044b210 f   renderer_buffers.obj
 0001:0004a240       ?EndUnitStateBatch@Renderer@@QAEXXZ 0044b240 f   renderer_buffers.obj
 0001:0004a260       ?FlushUnitStateIconsIfFull@Renderer@@IAEXH@Z 0044b260 f   renderer_buffers.obj
 0001:0004a280       ?FlushUnitStateIcons@Renderer@@IAEXXZ 0044b280 f   renderer_buffers.obj
 0001:0004a380       ?UnitNukeIcon@Renderer@@QAEXMMMMABVColour@@@Z 0044b380 f   renderer_buffers.obj
 0001:0004a6f0       ?UnitNukeIcon@Renderer@@QAEXMMMMABVColour@@M@Z 0044b6f0 f   renderer_buffers.obj
 0001:0004adb0       ?BeginUnitNukeBatch@Renderer@@QAEXXZ 0044bdb0 f   renderer_buffers.obj
 0001:0004ade0       ?EndUnitNukeBatch@Renderer@@QAEXXZ 0044bde0 f   renderer_buffers.obj
 0001:0004ae00       ?FlushUnitNukeIconsIfFull@Renderer@@IAEXH@Z 0044be00 f   renderer_buffers.obj
 0001:0004ae20       ?FlushUnitNukeIcons@Renderer@@IAEXXZ 0044be20 f   renderer_buffers.obj
 0001:0004af20       ?EffectsLine@Renderer@@QAEXMMMMABVColour@@@Z 0044bf20 f   renderer_buffers.obj
 0001:0004b060       ?BeginEffectsLineBatch@Renderer@@QAEXXZ 0044c060 f   renderer_buffers.obj
 0001:0004b070       ?EndEffectsLineBatch@Renderer@@QAEXXZ 0044c070 f   renderer_buffers.obj
 0001:0004b080       ?FlushEffectsLinesIfFull@Renderer@@IAEXH@Z 0044c080 f   renderer_buffers.obj
 0001:0004b0a0       ?FlushEffectsLines@Renderer@@IAEXXZ 0044c0a0 f   renderer_buffers.obj
 0001:0004b180       ?EffectsSprite@Renderer@@QAEXPAVImage@@MMMMABVColour@@@Z 0044c180 f   renderer_buffers.obj
 0001:0004b530       ?BeginEffectsSpriteBatch@Renderer@@QAEXXZ 0044c530 f   renderer_buffers.obj
 0001:0004b560       ?EndEffectsSpriteBatch@Renderer@@QAEXXZ 0044c560 f   renderer_buffers.obj
 0001:0004b580       ?FlushEffectsSprites@Renderer@@IAEXXZ 0044c580 f   renderer_buffers.obj
 0001:0004b6b0       ?BeginUnitHighlightBatch@Renderer@@QAEXXZ 0044c6b0 f   renderer_buffers.obj
 0001:0004b6e0       ?EndUnitHighlightBatch@Renderer@@QAEXXZ 0044c6e0 f   renderer_buffers.obj
 0001:0004b700       ?FlushUnitHighlights@Renderer@@IAEXXZ 0044c700 f   renderer_buffers.obj
 0001:0004b800       ?BeginMapTextBatch@Renderer@@QAEXXZ 0044c800 f   renderer_buffers.obj
 0001:0004b810       ?EndMapTextBatch@Renderer@@QAEXXZ 0044c810 f   renderer_buffers.obj
 0001:0004b820       ?BeginFrameTextBatch@Renderer@@QAEXXZ 0044c820 f   renderer_buffers.obj
 0001:0004b850       ?EndFrameTextBatch@Renderer@@QAEXXZ 0044c850 f   renderer_buffers.obj
 0001:0004b860       ?GetTotalDrawCalls@Renderer@@QBEHXZ 0044c860 f i renderer_debug_menu.obj
 0001:0004b870       ?GetLegacyTriangleCalls@Renderer@@QBEHXZ 0044c870 f i renderer_debug_menu.obj
 0001:0004b880       ?GetLegacyLineCalls@Renderer@@QBEHXZ 0044c880 f i renderer_debug_menu.obj
 0001:0004b890       ?GetUITriangleCalls@Renderer@@QBEHXZ 0044c890 f i renderer_debug_menu.obj
 0001:0004b8a0       ?GetUILineCalls@Renderer@@QBEHXZ 0044c8a0 f i renderer_debug_menu.obj
 0001:0004b8b0       ?GetTextCalls@Renderer@@QBEHXZ 0044c8b0 f i renderer_debug_menu.obj
 0001:0004b8c0       ?GetSpriteCalls@Renderer@@QBEHXZ 0044c8c0 f i renderer_debug_menu.obj
 0001:0004b8d0       ?GetUnitTrailCalls@Renderer@@QBEHXZ 0044c8d0 f i renderer_debug_menu.obj
 0001:0004b8e0       ?GetUnitMainSpriteCalls@Renderer@@QBEHXZ 0044c8e0 f i renderer_debug_menu.obj
 0001:0004b8f0       ?GetUnitRotatingCalls@Renderer@@QBEHXZ 0044c8f0 f i renderer_debug_menu.obj
 0001:0004b900       ?GetUnitHighlightCalls@Renderer@@QBEHXZ 0044c900 f i renderer_debug_menu.obj
 0001:0004b910       ?GetUnitStateIconCalls@Renderer@@QBEHXZ 0044c910 f i renderer_debug_menu.obj
 0001:0004b920       ?GetUnitCounterCalls@Renderer@@QBEHXZ 0044c920 f i renderer_debug_menu.obj
 0001:0004b930       ?GetUnitNukeIconCalls@Renderer@@QBEHXZ 0044c930 f i renderer_debug_menu.obj
 0001:0004b940       ?GetEffectsLineCalls@Renderer@@QBEHXZ 0044c940 f i renderer_debug_menu.obj
 0001:0004b950       ?GetEffectsSpriteCalls@Renderer@@QBEHXZ 0044c950 f i renderer_debug_menu.obj
 0001:0004b960       ?GetTotalUnitCalls@Renderer@@QBEHXZ 0044c960 f i renderer_debug_menu.obj
 0001:0004b990       ?GetTotalEffectCalls@Renderer@@QBEHXZ 0044c990 f i renderer_debug_menu.obj
 0001:0004b9a0       ?GetTotalSpecializedCalls@Renderer@@QBEHXZ 0044c9a0 f i renderer_debug_menu.obj
 0001:0004b9f0       ??0RendererDebugMenu@@QAE@PAVRenderer@@@Z 0044c9f0 f   renderer_debug_menu.obj
 0001:0004ba30       ??1RendererDebugMenu@@QAE@XZ 0044ca30 f   renderer_debug_menu.obj
 0001:0004ba40       ?Update@RendererDebugMenu@@QAEXN@Z 0044ca40 f   renderer_debug_menu.obj
 0001:0004bac0       ?RenderDebugMenu@RendererDebugMenu@@QAEXXZ 0044cac0 f   renderer_debug_menu.obj
 0001:0004bb00       ?RenderBufferStatistics@RendererDebugMenu@@AAEXAAM@Z 0044cb00 f   renderer_debug_menu.obj
 0001:0004c120       ?RenderSystemInformation@RendererDebugMenu@@AAEXAAM@Z 0044d120 f   renderer_debug_menu.obj
 0001:0004c4b0       ?GetMemoryUsage@RendererDebugMenu@@AAEIXZ 0044d4b0 f   renderer_debug_menu.obj
 0001:0004c4c0       ?EstimateBufferVertexCount@RendererDebugMenu@@AAEHXZ 0044d4c0 f   renderer_debug_menu.obj
 0001:0004c530       ??0CachedVBO@Renderer@@QAE@XZ 0044d530 f i renderer_vbo.obj
 0001:0004c540       ?BeginMegaVBO@Renderer@@QAEXPBDABVColour@@M@Z 0044d540 f   renderer_vbo.obj
 0001:0004c5d0       ?AddLineStripToMegaVBO@Renderer@@QAEXPAMH@Z 0044d5d0 f   renderer_vbo.obj
 0001:0004c740       ?EndMegaVBO@Renderer@@QAEXXZ 0044d740 f   renderer_vbo.obj
 0001:0004c8e0       ?RenderMegaVBO@Renderer@@QAEXPBD@Z 0044d8e0 f   renderer_vbo.obj
 0001:0004c9a0       ?PutData@?$BTree@PAUCachedVBO@Renderer@@@@QAEXPBDABQAUCachedVBO@Renderer@@@Z 0044d9a0 f i renderer_vbo.obj
 0001:0004cac0       ?LookupTree@?$BTree@PAUCachedVBO@Renderer@@@@QAEPAV1@PBD@Z 0044dac0 f i renderer_vbo.obj
 0001:0004cb10       ??0?$BTree@PAUCachedVBO@Renderer@@@@QAE@PBDABQAUCachedVBO@Renderer@@@Z 0044db10 f i renderer_vbo.obj
 0001:0004cb70       ??0AtlasCoord@@QAE@HHHH@Z  0044db70 f i sprite_atlas.obj
 0001:0004cc00       ?IsAtlasSprite@SpriteAtlas@@SA_NPBD@Z 0044dc00 f   sprite_atlas.obj
 0001:0004cc60       ?GetSpriteCoord@SpriteAtlas@@SAPBUAtlasCoord@@PBD@Z 0044dc60 f   sprite_atlas.obj
 0001:0004ccc0       ??0StyleTable@@QAE@XZ      0044dcc0 f   styletable.obj
 0001:0004cce0       ?Load@StyleTable@@QAE_NPBD@Z 0044dce0 f   styletable.obj
 0001:0004cf90       ?Save@StyleTable@@QAE_NPBD@Z 0044df90 f   styletable.obj
 0001:0004d170       ?GetStyle@StyleTable@@QAEPAVStyle@@PBD@Z 0044e170 f   styletable.obj
 0001:0004d1f0       ?GetPrimaryColour@StyleTable@@QAE?AVColour@@PBD@Z 0044e1f0 f   styletable.obj
 0001:0004d270       ?GetSecondaryColour@StyleTable@@QAE?AVColour@@PBD@Z 0044e270 f   styletable.obj
 0001:0004d2f0       ??0Style@@QAE@PBD@Z        0044e2f0 f   styletable.obj
 0001:0004d380       ??0?$LList@PAVStyle@@@@QAE@XZ 0044e380 f i styletable.obj
 0001:0004d3b0       ??1?$LList@PAVStyle@@@@QAE@XZ 0044e3b0 f i styletable.obj
 0001:0004d3c0       ?PutData@?$LList@PAVStyle@@@@QAEXABQAVStyle@@@Z 0044e3c0 f i styletable.obj
 0001:0004d3d0       ?PutDataAtEnd@?$LList@PAVStyle@@@@QAEXABQAVStyle@@@Z 0044e3d0 f i styletable.obj
 0001:0004d430       ?Empty@?$LList@PAVStyle@@@@QAEXXZ 0044e430 f i styletable.obj
 0001:0004d480       ??_G?$LListItem@PAVStyle@@@@QAEPAXI@Z 0044e480 f i styletable.obj
 0001:0004d4a0       ??0?$LListItem@PAVStyle@@@@QAE@XZ 0044e4a0 f i styletable.obj
 0001:0004d4c0       ??1?$LListItem@PAVStyle@@@@QAE@XZ 0044e4c0 f i styletable.obj
 0001:0004d4d0       ?ReadBMPFileHeader@Bitmap@@AAEXPAVBinaryReader@@PAVBitmapFileHeader@@@Z 0044e4d0 f   bitmap.obj
 0001:0004d540       ?ReadWinBMPInfoHeader@Bitmap@@AAEXPAVBinaryReader@@PAVBitmapInfoHeader@@@Z 0044e540 f   bitmap.obj
 0001:0004d5c0       ?ReadOS2BMPInfoHeader@Bitmap@@AAEXPAVBinaryReader@@PAVBitmapInfoHeader@@@Z 0044e5c0 f   bitmap.obj
 0001:0004d610       ?ReadBMPPalette@Bitmap@@AAEXHQAVColour@@PAVBinaryReader@@H@Z 0044e610 f   bitmap.obj
 0001:0004d6b0       ?Read4BitLine@Bitmap@@AAEXHPAVBinaryReader@@PAVColour@@H@Z 0044e6b0 f   bitmap.obj
 0001:0004d720       ?Read8BitLine@Bitmap@@AAEXHPAVBinaryReader@@PAVColour@@H@Z 0044e720 f   bitmap.obj
 0001:0004d770       ?Read24BitLine@Bitmap@@AAEXHPAVBinaryReader@@H@Z 0044e770 f   bitmap.obj
 0001:0004d800       ?LoadBmp@Bitmap@@AAEXPAVBinaryReader@@@Z 0044e800 f   bitmap.obj
 0001:0004da30       ?WriteBMPFileHeader@Bitmap@@AAEXPAU_iobuf@@@Z 0044ea30 f   bitmap.obj
 0001:0004da80       ?WriteWinBMPInfoHeader@Bitmap@@AAEXPAU_iobuf@@@Z 0044ea80 f   bitmap.obj
 0001:0004db10       ?Write24BitLine@Bitmap@@AAEXPAU_iobuf@@H@Z 0044eb10 f   bitmap.obj
 0001:0004db90       ?SaveBmp@Bitmap@@QAEXPAD@Z 0044eb90 f   bitmap.obj
 0001:0004dc10       ??0Bitmap@@QAE@HH@Z        0044ec10 f   bitmap.obj
 0001:0004dc50       ??0Bitmap@@QAE@PAVBinaryReader@@PAD@Z 0044ec50 f   bitmap.obj
 0001:0004dc90       ??1Bitmap@@QAE@XZ          0044ec90 f   bitmap.obj
 0001:0004dcd0       ?Initialise@Bitmap@@QAEXHH@Z 0044ecd0 f   bitmap.obj
 0001:0004def0       ?Initialise@Bitmap@@QAEXPAVBinaryReader@@PAD@Z 0044eef0 f   bitmap.obj
 0001:0004df40       ?PutPixel@Bitmap@@QAEXHHABVColour@@@Z 0044ef40 f   bitmap.obj
 0001:0004df60       ?GetPixel@Bitmap@@QAEAAVColour@@HH@Z 0044ef60 f   bitmap.obj
 0001:0004df80       ?GetPixelClipped@Bitmap@@QAEAAVColour@@HH@Z 0044ef80 f   bitmap.obj
 0001:0004e010       ?ConvertPinkToTransparent@Bitmap@@QAEXXZ 0044f010 f   bitmap.obj
 0001:0004e0a0       ?Clear@Bitmap@@QAEXABVColour@@@Z 0044f0a0 f   bitmap.obj
 0001:0004e100       ?ConvertToTexture@Bitmap@@QAEH_N@Z 0044f100 f   bitmap.obj
 0001:0004e1b0       ??0BitmapFont@@QAE@PAD@Z   0044f1b0 f   bitmapfont.obj
 0001:0004e400       ?GetTexCoordX@BitmapFont@@IAEME@Z 0044f400 f   bitmapfont.obj
 0001:0004e430       ?GetTexCoordY@BitmapFont@@IAEME@Z 0044f430 f   bitmapfont.obj
 0001:0004e470       ?GetTexWidth@BitmapFont@@IAEME@Z 0044f470 f   bitmapfont.obj
 0001:0004e4a0       ?SetHoriztonalFlip@BitmapFont@@IAEX_N@Z 0044f4a0 f   bitmapfont.obj
 0001:0004e4b0       ?SetFixedWidth@BitmapFont@@IAEX_N@Z 0044f4b0 f   bitmapfont.obj
 0001:0004e4c0       ?SetSpacing@BitmapFont@@IAEXM@Z 0044f4c0 f   bitmapfont.obj
 0001:0004e4d0       ?DrawText2DSimple@BitmapFont@@QAEXMMMPBDABVColour@@@Z 0044f4d0 f   bitmapfont.obj
 0001:0004e610       ?DrawText2DSimpleBatch@BitmapFont@@QAEXMMMPBDABVColour@@@Z 0044f610 f   bitmapfont.obj
 0001:0004e740       ?GetTextWidth@BitmapFont@@QAEMPBDM@Z 0044f740 f   bitmapfont.obj
 0001:0004e770       ?GetTextWidth@BitmapFont@@QAEMPBDIM@Z 0044f770 f   bitmapfont.obj
 0001:0004e830       ?GetAtlasTexturePath@SpriteAtlas@@SAPBDXZ 0044f830 f i image.obj
 0001:0004e840       ??0Image@@QAE@PAD@Z        0044f840 f   image.obj
 0001:0004ea60       ??_EImage@@UAEPAXI@Z       0044fa60 f i * CIL library *:* CIL module *
 0001:0004ea60       ??_GImage@@UAEPAXI@Z       0044fa60 f i image.obj
 0001:0004ea90       ??0Image@@QAE@PAVBitmap@@@Z 0044fa90 f   image.obj
 0001:0004eab0       ??1Image@@UAE@XZ           0044fab0 f   image.obj
 0001:0004eac0       ?Width@Image@@UAEHXZ       0044fac0 f   image.obj
 0001:0004ead0       ?Height@Image@@UAEHXZ      0044fad0 f   image.obj
 0001:0004eae0       ?MakeTexture@Image@@QAEX_N0@Z 0044fae0 f   image.obj
 0001:0004eb20       ?GetColour@Image@@QAE?AVColour@@HH@Z 0044fb20 f   image.obj
 0001:0004eb40       ??0AtlasImage@@QAE@PBUAtlasCoord@@@Z 0044fb40 f   image.obj
 0001:0004ebd0       ??_EAtlasImage@@UAEPAXI@Z  0044fbd0 f i * CIL library *:* CIL module *
 0001:0004ebd0       ??_GAtlasImage@@UAEPAXI@Z  0044fbd0 f i image.obj
 0001:0004ec00       ??1AtlasImage@@UAE@XZ      0044fc00 f   image.obj
 0001:0004ec30       ?Width@AtlasImage@@UAEHXZ  0044fc30 f   image.obj
 0001:0004ec40       ?Height@AtlasImage@@UAEHXZ 0044fc40 f   image.obj
 0001:0004ec50       ?GetAtlasTextureID@AtlasImage@@QBEIXZ 0044fc50 f   image.obj
 0001:0004ec60       ?InitializeAtlasTexture@AtlasImage@@SAXXZ 0044fc60 f   image.obj
 0001:0004ed30       ?CleanupAtlasTexture@AtlasImage@@SAXXZ 0044fd30 f   image.obj
 0001:0004ed60       ??0Resource@@QAE@XZ        0044fd60 f   resource.obj
 0001:0004ed90       ?Restart@Resource@@QAEXXZ  0044fd90 f   resource.obj
 0001:0004eda0       ?Shutdown@Resource@@QAEXXZ 0044fda0 f   resource.obj
 0001:0004eeb0       ??_G?$DArray@PAVImage@@@@QAEPAXI@Z 0044feb0 f i resource.obj
 0001:0004eed0       ??_G?$DArray@PAVBitmapFont@@@@QAEPAXI@Z 0044fed0 f i resource.obj
 0001:0004eef0       ?GetImage@Resource@@QAEPAVImage@@PBD@Z 0044fef0 f   resource.obj
 0001:0004f030       ?GetBitmapFont@Resource@@QAEPAVBitmapFont@@PBD@Z 00450030 f   resource.obj
 0001:0004f110       ?TestBitmapFont@Resource@@QAE_NPBD@Z 00450110 f   resource.obj
 0001:0004f1d0       ?GetDisplayList@Resource@@QAE_NPBDAAI@Z 004501d0 f   resource.obj
 0001:0004f220       ?DeleteDisplayList@Resource@@QAEXPBD@Z 00450220 f   resource.obj
 0001:0004f250       ??0?$BTree@PAVImage@@@@QAE@XZ 00450250 f i resource.obj
 0001:0004f270       ??1?$BTree@PAVImage@@@@QAE@XZ 00450270 f i resource.obj
 0001:0004f280       ?PutData@?$BTree@PAVImage@@@@QAEXPBDABQAVImage@@@Z 00450280 f i resource.obj
 0001:0004f3a0       ?GetData@?$BTree@PAVImage@@@@QAEPAVImage@@PBD@Z 004503a0 f i resource.obj
 0001:0004f3c0       ?Empty@?$BTree@PAVImage@@@@QAEXXZ 004503c0 f i resource.obj
 0001:0004f420       ?ConvertToDArray@?$BTree@PAVImage@@@@QAEPAV?$DArray@PAVImage@@@@XZ 00450420 f i resource.obj
 0001:0004f450       ??1?$DArray@PAVImage@@@@QAE@XZ 00450450 f i resource.obj
 0001:0004f460       ?GetData@?$DArray@PAVImage@@@@QBEPAVImage@@H@Z 00450460 f i resource.obj
 0001:0004f4c0       ?Size@?$DArray@PAVImage@@@@QBEHXZ 004504c0 f i resource.obj
 0001:0004f4d0       ??0?$BTree@PAVBitmapFont@@@@QAE@XZ 004504d0 f i resource.obj
 0001:0004f4f0       ??1?$BTree@PAVBitmapFont@@@@QAE@XZ 004504f0 f i resource.obj
 0001:0004f500       ?PutData@?$BTree@PAVBitmapFont@@@@QAEXPBDABQAVBitmapFont@@@Z 00450500 f i resource.obj
 0001:0004f620       ?GetData@?$BTree@PAVBitmapFont@@@@QAEPAVBitmapFont@@PBD@Z 00450620 f i resource.obj
 0001:0004f640       ?Empty@?$BTree@PAVBitmapFont@@@@QAEXXZ 00450640 f i resource.obj
 0001:0004f6a0       ?ConvertToDArray@?$BTree@PAVBitmapFont@@@@QAEPAV?$DArray@PAVBitmapFont@@@@XZ 004506a0 f i resource.obj
 0001:0004f6d0       ??1?$DArray@PAVBitmapFont@@@@QAE@XZ 004506d0 f i resource.obj
 0001:0004f6e0       ?GetData@?$DArray@PAVBitmapFont@@@@QBEPAVBitmapFont@@H@Z 004506e0 f i resource.obj
 0001:0004f740       ?Size@?$DArray@PAVBitmapFont@@@@QBEHXZ 00450740 f i resource.obj
 0001:0004f750       ??0?$BTree@_N@@QAE@XZ      00450750 f i resource.obj
 0001:0004f770       ??1?$BTree@_N@@QAE@XZ      00450770 f i resource.obj
 0001:0004f780       ?PutData@?$BTree@_N@@QAEXPBDAB_N@Z 00450780 f i resource.obj
 0001:0004f8a0       ?GetData@?$BTree@_N@@QAE_NPBD@Z 004508a0 f i resource.obj
 0001:0004f8c0       ?Empty@?$BTree@_N@@QAEXXZ  004508c0 f i resource.obj
 0001:0004f920       ??0?$BTree@I@@QAE@XZ       00450920 f i resource.obj
 0001:0004f940       ??1?$BTree@I@@QAE@XZ       00450940 f i resource.obj
 0001:0004f950       ?PutData@?$BTree@I@@QAEXPBDABI@Z 00450950 f i resource.obj
 0001:0004fa70       ?RemoveData@?$BTree@I@@QAEXPBD@Z 00450a70 f i resource.obj
 0001:0004fbf0       ?LookupTree@?$BTree@I@@QAEPAV1@PBD@Z 00450bf0 f i resource.obj
 0001:0004fc40       ?Empty@?$BTree@I@@QAEXXZ   00450c40 f i resource.obj
 0001:0004fca0       ??_G?$BTree@PAVImage@@@@QAEPAXI@Z 00450ca0 f i resource.obj
 0001:0004fcc0       ??_G?$BTree@PAVBitmapFont@@@@QAEPAXI@Z 00450cc0 f i resource.obj
 0001:0004fce0       ??_G?$BTree@_N@@QAEPAXI@Z  00450ce0 f i resource.obj
 0001:0004fd00       ??_G?$BTree@I@@QAEPAXI@Z   00450d00 f i resource.obj
 0001:0004fd20       ?RecursiveConvertToDArray@?$BTree@PAVImage@@@@IAEXPAV?$DArray@PAVImage@@@@PAV1@@Z 00450d20 f i resource.obj
 0001:0004fd80       ??0?$BTree@PAVImage@@@@QAE@PBDABQAVImage@@@Z 00450d80 f i resource.obj
 0001:0004fde0       ?LookupTree@?$BTree@PAVImage@@@@QAEPAV1@PBD@Z 00450de0 f i resource.obj
 0001:0004fe30       ??0?$DArray@PAVImage@@@@QAE@XZ 00450e30 f i resource.obj
 0001:0004fe50       ?Empty@?$DArray@PAVImage@@@@QAEXXZ 00450e50 f i resource.obj
 0001:0004fe80       ?RecursiveConvertToDArray@?$BTree@PAVBitmapFont@@@@IAEXPAV?$DArray@PAVBitmapFont@@@@PAV1@@Z 00450e80 f i resource.obj
 0001:0004fee0       ??0?$BTree@PAVBitmapFont@@@@QAE@PBDABQAVBitmapFont@@@Z 00450ee0 f i resource.obj
 0001:0004ff40       ?LookupTree@?$BTree@PAVBitmapFont@@@@QAEPAV1@PBD@Z 00450f40 f i resource.obj
 0001:0004ff90       ??0?$DArray@PAVBitmapFont@@@@QAE@XZ 00450f90 f i resource.obj
 0001:0004ffb0       ?Empty@?$DArray@PAVBitmapFont@@@@QAEXXZ 00450fb0 f i resource.obj
 0001:0004ffe0       ??0?$BTree@_N@@QAE@PBDAB_N@Z 00450fe0 f i resource.obj
 0001:00050040       ?LookupTree@?$BTree@_N@@QAEPAV1@PBD@Z 00451040 f i resource.obj
 0001:00050090       ?AppendRight@?$BTree@I@@IAEXPAV1@@Z 00451090 f i resource.obj
 0001:000500c0       ??0?$BTree@I@@QAE@PBDABI@Z 004510c0 f i resource.obj
 0001:00050120       ?Left@?$BTree@I@@QBEPAV1@XZ 00451120 f i resource.obj
 0001:00050130       ?Right@?$BTree@I@@QBEPAV1@XZ 00451130 f i resource.obj
 0001:00050140       ?Left@?$BTree@PAVImage@@@@QBEPAV1@XZ 00451140 f i resource.obj
 0001:00050150       ?Right@?$BTree@PAVImage@@@@QBEPAV1@XZ 00451150 f i resource.obj
 0001:00050160       ?PutData@?$DArray@PAVImage@@@@QAEHABQAVImage@@@Z 00451160 f i resource.obj
 0001:000501b0       ?Left@?$BTree@PAVBitmapFont@@@@QBEPAV1@XZ 004511b0 f i resource.obj
 0001:000501c0       ?Right@?$BTree@PAVBitmapFont@@@@QBEPAV1@XZ 004511c0 f i resource.obj
 0001:000501d0       ?PutData@?$DArray@PAVBitmapFont@@@@QAEHABQAVBitmapFont@@@Z 004511d0 f i resource.obj
 0001:00050220       ?Grow@?$DArray@PAVImage@@@@IAEXXZ 00451220 f i resource.obj
 0001:00050250       ?Grow@?$DArray@PAVBitmapFont@@@@IAEXXZ 00451250 f i resource.obj
 0001:00050280       ?SetSize@?$DArray@PAVImage@@@@QAEXH@Z 00451280 f i resource.obj
 0001:000503a0       ?SetSize@?$DArray@PAVBitmapFont@@@@QAEXH@Z 004513a0 f i resource.obj
 0001:000504c0       ??0SoundSystem@@QAE@XZ     004514c0 f   soundsystem.obj
 0001:00050590       ??1?$FastDArray@PAVSoundInstance@@@@QAE@XZ 00451590 f i soundsystem.obj
 0001:000505a0       ??1SoundSystem@@QAE@XZ     004515a0 f   soundsystem.obj
 0001:00050610       ??_GNetMutex@@QAEPAXI@Z    00451610 f i soundsystem.obj
 0001:00050630       ?Initialise@SoundSystem@@QAEXPAVSoundSystemInterface@@@Z 00451630 f   soundsystem.obj
 0001:000506b0       ?RestartSoundLibrary@SoundSystem@@QAEXXZ 004516b0 f   soundsystem.obj
 0001:00050830       ?StopAllDSPEffects@SoundSystem@@QAEXXZ 00451830 f   soundsystem.obj
 0001:00050980       ?IsMusicChannel@SoundSystem@@IAE_NH@Z 00451980 f   soundsystem.obj
 0001:000509a0       ?SoundLibraryMainCallback@SoundSystem@@KA_NIPAFIPAH@Z 004519a0 f   soundsystem.obj
 0001:00050af0       ?InitialiseSound@SoundSystem@@QAE_NPAVSoundInstance@@@Z 00451af0 f   soundsystem.obj
 0001:00050c40       ?FindBestAvailableChannel@SoundSystem@@IAEH_N@Z 00451c40 f   soundsystem.obj
 0001:00050cd0       ?ShutdownSound@SoundSystem@@QAEXPAVSoundInstance@@@Z 00451cd0 f   soundsystem.obj
 0001:00050d60       ?GetSoundInstance@SoundSystem@@QAEPAVSoundInstance@@VSoundInstanceId@@@Z 00451d60 f   soundsystem.obj
 0001:00050db0       ?LockSoundInstance@SoundSystem@@QAEPAVSoundInstance@@VSoundInstanceId@@@Z 00451db0 f   soundsystem.obj
 0001:00050e00       ?UnlockSoundInstance@SoundSystem@@QAEXPAVSoundInstance@@@Z 00451e00 f   soundsystem.obj
 0001:00050e30       ?TriggerEvent@SoundSystem@@QAEXVSoundObjectId@@PBD@Z 00451e30 f   soundsystem.obj
 0001:00050f80       ?TriggerEvent@SoundSystem@@QAEXPBD0@Z 00451f80 f   soundsystem.obj
 0001:00050fc0       ?TriggerEvent@SoundSystem@@QAEXPBD0ABV?$Vector3@M@@@Z 00451fc0 f   soundsystem.obj
 0001:000510b0       ?TriggerDuplicateSound@SoundSystem@@QAEXPAVSoundInstance@@@Z 004520b0 f   soundsystem.obj
 0001:000511b0       ?StopAllSounds@SoundSystem@@QAEXVSoundObjectId@@PBD@Z 004521b0 f   soundsystem.obj
 0001:00051240       ?NumInstancesPlaying@SoundSystem@@QAEHPBD@Z 00452240 f   soundsystem.obj
 0001:000512a0       ?NumSoundInstances@SoundSystem@@QAEHXZ 004522a0 f   soundsystem.obj
 0001:000512b0       ?NumChannelsUsed@SoundSystem@@QAEHXZ 004522b0 f   soundsystem.obj
 0001:000512f0       ?NumSoundsDiscarded@SoundSystem@@QAEHXZ 004522f0 f   soundsystem.obj
 0001:00051320       ?SoundInstanceCompare@@YAHPBX0@Z 00452320 f   soundsystem.obj
 0001:00051390       ?Advance@SoundSystem@@QAEXXZ 00452390 f   soundsystem.obj
 0001:00051aa0       ?PropagateBlueprints@SoundSystem@@QAEX_N@Z 00452aa0 f   soundsystem.obj
 0001:00051af0       ?EnableCallback@SoundSystem@@QAEX_N@Z 00452af0 f   soundsystem.obj
 0001:00051b00       ??X?$Vector3@M@@QAEABV0@M@Z 00452b00 f i soundsystem.obj
 0001:00051b30       ??0?$Vector3@M@@QAE@XZ     00452b30 f i soundsystem.obj
 0001:00051b50       ?PutData@?$LList@VSoundObjectId@@@@QAEXABVSoundObjectId@@@Z 00452b50 f i soundsystem.obj
 0001:00051b60       ?GetPointer@?$LList@VSoundObjectId@@@@QBEPAVSoundObjectId@@H@Z 00452b60 f i soundsystem.obj
 0001:00051b70       ?Size@?$LList@VSoundObjectId@@@@QBEHXZ 00452b70 f i soundsystem.obj
 0001:00051b80       ??0?$FastDArray@PAVSoundInstance@@@@QAE@XZ 00452b80 f i soundsystem.obj
 0001:00051ba0       ?PutData@?$FastDArray@PAVSoundInstance@@@@QAEHABQAVSoundInstance@@@Z 00452ba0 f i soundsystem.obj
 0001:00051c10       ?RemoveData@?$FastDArray@PAVSoundInstance@@@@QAEXH@Z 00452c10 f i soundsystem.obj
 0001:00051c80       ?NumUsed@?$FastDArray@PAVSoundInstance@@@@QBEHXZ 00452c80 f i soundsystem.obj
 0001:00051c90       ?EmptyAndDelete@?$FastDArray@PAVSoundInstance@@@@QAEXXZ 00452c90 f i soundsystem.obj
 0001:00051cc0       ??1?$DArray@PAVSoundInstance@@@@QAE@XZ 00452cc0 f i soundsystem.obj
 0001:00051cd0       ??0?$LList@PAVSoundInstance@@@@QAE@XZ 00452cd0 f i soundsystem.obj
 0001:00051d00       ??1?$LList@PAVSoundInstance@@@@QAE@XZ 00452d00 f i soundsystem.obj
 0001:00051d10       ?PutData@?$LList@PAVSoundInstance@@@@QAEXABQAVSoundInstance@@@Z 00452d10 f i soundsystem.obj
 0001:00051d20       ?RemoveData@?$LList@PAVSoundInstance@@@@QAEXH@Z 00452d20 f i soundsystem.obj
 0001:00051de0       ?Size@?$LList@PAVSoundInstance@@@@QBEHXZ 00452de0 f i soundsystem.obj
 0001:00051df0       ??A?$LList@PAVSoundInstance@@@@QAEPAVSoundInstance@@H@Z 00452df0 f i soundsystem.obj
 0001:00051e10       ??_G?$LListItem@PAVSoundInstance@@@@QAEPAXI@Z 00452e10 f i soundsystem.obj
 0001:00051e30       ?GetItem@?$LList@VSoundObjectId@@@@IBEPAV?$LListItem@VSoundObjectId@@@@H@Z 00452e30 f i soundsystem.obj
 0001:00051ee0       ?PutDataAtEnd@?$LList@VSoundObjectId@@@@QAEXABVSoundObjectId@@@Z 00452ee0 f i soundsystem.obj
 0001:00051f40       ?Grow@?$FastDArray@PAVSoundInstance@@@@IAEXXZ 00452f40 f i soundsystem.obj
 0001:00051f70       ??0?$DArray@PAVSoundInstance@@@@QAE@XZ 00452f70 f i soundsystem.obj
 0001:00051f90       ?Empty@?$DArray@PAVSoundInstance@@@@QAEXXZ 00452f90 f i soundsystem.obj
 0001:00051fc0       ?EmptyAndDelete@?$DArray@PAVSoundInstance@@@@QAEXXZ 00452fc0 f i soundsystem.obj
 0001:00052010       ?GetItem@?$LList@PAVSoundInstance@@@@IBEPAV?$LListItem@PAVSoundInstance@@@@H@Z 00453010 f i soundsystem.obj
 0001:000520c0       ?PutDataAtEnd@?$LList@PAVSoundInstance@@@@QAEXABQAVSoundInstance@@@Z 004530c0 f i soundsystem.obj
 0001:00052120       ?GetData@?$LList@PAVSoundInstance@@@@QBEPAVSoundInstance@@H@Z 00453120 f i soundsystem.obj
 0001:00052140       ?Empty@?$LList@PAVSoundInstance@@@@QAEXXZ 00453140 f i soundsystem.obj
 0001:00052190       ??1?$LListItem@PAVSoundInstance@@@@QAE@XZ 00453190 f i soundsystem.obj
 0001:000521a0       ?ValidIndex@?$LList@VSoundObjectId@@@@QBE_NH@Z 004531a0 f i soundsystem.obj
 0001:000521c0       ??0?$LListItem@VSoundObjectId@@@@QAE@XZ 004531c0 f i soundsystem.obj
 0001:000521e0       ?SetSize@?$FastDArray@PAVSoundInstance@@@@QAEXH@Z 004531e0 f i soundsystem.obj
 0001:000523d0       ?ValidIndex@?$LList@PAVSoundInstance@@@@QBE_NH@Z 004533d0 f i soundsystem.obj
 0001:000523f0       ??0?$LListItem@PAVSoundInstance@@@@QAE@XZ 004533f0 f i soundsystem.obj
 0001:00052410       ?RebuildFreeList@?$FastDArray@PAVSoundInstance@@@@IAEXXZ 00453410 f i soundsystem.obj
 0001:000524a0       ?RebuildNumUsed@?$FastDArray@PAVSoundInstance@@@@IAEXXZ 004534a0 f i soundsystem.obj
 0001:000524d0       ??0SoundObjectId@@QAE@XZ   004534d0 f   soundsystem_interface.obj
 0001:000524e0       ??0SoundObjectId@@QAE@H@Z  004534e0 f   soundsystem_interface.obj
 0001:000524f0       ?IsValid@SoundObjectId@@QAE_NXZ 004534f0 f   soundsystem_interface.obj
 0001:00052500       ??8SoundObjectId@@QAE_NABV0@@Z 00453500 f   soundsystem_interface.obj
 0001:00052520       ?ListObjectTypes@SoundSystemInterface@@UAE_NPAV?$LList@PAD@@@Z 00453520 f   soundsystem_interface.obj
 0001:00052530       ?ListObjectEvents@SoundSystemInterface@@UAE_NPAV?$LList@PAD@@PAD@Z 00453530 f   soundsystem_interface.obj
 0001:00052540       ?GetCameraPosition@SoundSystemInterface@@UAE_NAAV?$Vector3@M@@000@Z 00453540 f   soundsystem_interface.obj
 0001:00052550       ?DoesObjectExist@SoundSystemInterface@@UAE_NVSoundObjectId@@@Z 00453550 f   soundsystem_interface.obj
 0001:00052560       ?GetObjectType@SoundSystemInterface@@UAEPADVSoundObjectId@@@Z 00453560 f   soundsystem_interface.obj
 0001:00052570       ?ListProperties@SoundSystemInterface@@UAE_NPAV?$LList@PAD@@@Z 00453570 f   soundsystem_interface.obj
 0001:00052580       ?GetPropertyValue@SoundSystemInterface@@UAEMPBDVSoundObjectId@@@Z 00453580 f   soundsystem_interface.obj
 0001:00052590       ?GetPropertyRange@SoundSystemInterface@@UAE_NPBDPAM1@Z 00453590 f   soundsystem_interface.obj
 0001:000525b0       ?GetObjectPosition@SoundSystemInterface@@UAE_NVSoundObjectId@@AAV?$Vector3@M@@1@Z 004535b0 f   soundsystem_interface.obj
 0001:000525c0       ??0SoundBlueprintManager@@QAE@XZ 004535c0 f   sound_blueprint_manager.obj
 0001:000525f0       ??1SoundBlueprintManager@@QAE@XZ 004535f0 f   sound_blueprint_manager.obj
 0001:00052620       ?GetBlueprint@SoundBlueprintManager@@QAEPAVSoundEventBlueprint@@PBD@Z 00453620 f   sound_blueprint_manager.obj
 0001:00052680       ??0SoundEventBlueprint@@QAE@XZ 00453680 f i sound_blueprint_manager.obj
 0001:00052690       ?GetDspBlueprint@SoundBlueprintManager@@QAEPAVDspBlueprint@@H@Z 00453690 f   sound_blueprint_manager.obj
 0001:000526c0       ?ClearAll@SoundBlueprintManager@@QAEXXZ 004536c0 f   sound_blueprint_manager.obj
 0001:00052720       ?LoadEffects@SoundBlueprintManager@@QAEXXZ 00453720 f   sound_blueprint_manager.obj
 0001:000528f0       ??0DspBlueprint@@QAE@XZ    004538f0 f i sound_blueprint_manager.obj
 0001:00052900       ?LoadBlueprints@SoundBlueprintManager@@QAEXXZ 00453900 f   sound_blueprint_manager.obj
 0001:00052a50       ?SaveBlueprints@SoundBlueprintManager@@QAEXXZ 00453a50 f   sound_blueprint_manager.obj
 0001:00052bc0       ?ParseSoundInstanceBlueprint@SoundBlueprintManager@@IAEXPAVTextReader@@PADPAVSoundEventBlueprint@@@Z 00453bc0 f   sound_blueprint_manager.obj
 0001:00052f00       ?ParseSoundEffect@SoundBlueprintManager@@IAEXPAVTextReader@@PAVSoundInstance@@@Z 00453f00 f   sound_blueprint_manager.obj
 0001:00053030       ?ParseSampleGroup@SoundBlueprintManager@@IAEXPAVTextReader@@PAVSampleGroup@@@Z 00454030 f   sound_blueprint_manager.obj
 0001:000530b0       ?WriteSoundInstanceBlueprint@SoundBlueprintManager@@IAEXPAVTextFileWriter@@PAVSoundInstanceBlueprint@@@Z 004540b0 f   sound_blueprint_manager.obj
 0001:00053320       ?WriteSampleGroup@SoundBlueprintManager@@IAEXPAVTextFileWriter@@PAVSampleGroup@@@Z 00454320 f   sound_blueprint_manager.obj
 0001:00053380       ?GetSampleGroup@SoundBlueprintManager@@QAEPAVSampleGroup@@PBD@Z 00454380 f   sound_blueprint_manager.obj
 0001:000533d0       ?NewSampleGroup@SoundBlueprintManager@@QAEPAVSampleGroup@@PBD@Z 004543d0 f   sound_blueprint_manager.obj
 0001:000534c0       ??0SampleGroup@@QAE@XZ     004544c0 f i sound_blueprint_manager.obj
 0001:000534d0       ?RenameSampleGroup@SoundBlueprintManager@@QAE_NPBD0@Z 004544d0 f   sound_blueprint_manager.obj
 0001:000535f0       ?IsSampleUsed@SoundBlueprintManager@@QAE_NPBD@Z 004545f0 f   sound_blueprint_manager.obj
 0001:00053730       ?GetParameter@DspBlueprint@@QAEPADHPAM00PAH@Z 00454730 f   sound_blueprint_manager.obj
 0001:000537a0       ?SetName@SampleGroup@@QAEXPBD@Z 004547a0 f   sound_blueprint_manager.obj
 0001:000537d0       ?AddSample@SampleGroup@@QAEXPBD@Z 004547d0 f   sound_blueprint_manager.obj
 0001:00053800       ??0?$HashTable@PAVSoundEventBlueprint@@@@QAE@XZ 00454800 f i sound_blueprint_manager.obj
 0001:00053880       ??1?$HashTable@PAVSoundEventBlueprint@@@@QAE@XZ 00454880 f i sound_blueprint_manager.obj
 0001:000538a0       ?PutData@?$HashTable@PAVSoundEventBlueprint@@@@QAEHPBDABQAVSoundEventBlueprint@@@Z 004548a0 f i sound_blueprint_manager.obj
 0001:00053920       ?GetData@?$HashTable@PAVSoundEventBlueprint@@@@QBEPAVSoundEventBlueprint@@I@Z 00454920 f i sound_blueprint_manager.obj
 0001:00053930       ?GetData@?$HashTable@PAVSoundEventBlueprint@@@@QBEPAVSoundEventBlueprint@@PBDABQAV2@@Z 00454930 f i sound_blueprint_manager.obj
 0001:00053960       ?EmptyAndDelete@?$HashTable@PAVSoundEventBlueprint@@@@QAEXXZ 00454960 f i sound_blueprint_manager.obj
 0001:000539b0       ?ValidIndex@?$HashTable@PAVSoundEventBlueprint@@@@QBE_NI@Z 004549b0 f i sound_blueprint_manager.obj
 0001:000539d0       ?Size@?$HashTable@PAVSoundEventBlueprint@@@@QBEIXZ 004549d0 f i sound_blueprint_manager.obj
 0001:000539e0       ??A?$HashTable@PAVSoundEventBlueprint@@@@QBEPAVSoundEventBlueprint@@I@Z 004549e0 f i sound_blueprint_manager.obj
 0001:000539f0       ?GetName@?$HashTable@PAVSoundEventBlueprint@@@@QBEPBDI@Z 004549f0 f i sound_blueprint_manager.obj
 0001:00053a00       ??0?$DArray@PAVDspBlueprint@@@@QAE@XZ 00454a00 f i sound_blueprint_manager.obj
 0001:00053a20       ??1?$DArray@PAVDspBlueprint@@@@QAE@XZ 00454a20 f i sound_blueprint_manager.obj
 0001:00053a30       ?SetSize@?$DArray@PAVDspBlueprint@@@@QAEXH@Z 00454a30 f i sound_blueprint_manager.obj
 0001:00053b50       ?PutData@?$DArray@PAVDspBlueprint@@@@QAEHABQAVDspBlueprint@@@Z 00454b50 f i sound_blueprint_manager.obj
 0001:00053ba0       ?ValidIndex@?$DArray@PAVDspBlueprint@@@@QBE_NH@Z 00454ba0 f i sound_blueprint_manager.obj
 0001:00053bd0       ?EmptyAndDelete@?$DArray@PAVDspBlueprint@@@@QAEXXZ 00454bd0 f i sound_blueprint_manager.obj
 0001:00053c30       ??0?$LList@PAVSampleGroup@@@@QAE@XZ 00454c30 f i sound_blueprint_manager.obj
 0001:00053c60       ??1?$LList@PAVSampleGroup@@@@QAE@XZ 00454c60 f i sound_blueprint_manager.obj
 0001:00053c70       ?PutData@?$LList@PAVSampleGroup@@@@QAEXABQAVSampleGroup@@@Z 00454c70 f i sound_blueprint_manager.obj
 0001:00053c80       ?EmptyAndDelete@?$LList@PAVSampleGroup@@@@QAEXXZ 00454c80 f i sound_blueprint_manager.obj
 0001:00053d50       ??0?$LList@PAVSoundInstanceBlueprint@@@@QAE@XZ 00454d50 f i sound_blueprint_manager.obj
 0001:00053d80       ??1?$LList@PAVSoundInstanceBlueprint@@@@QAE@XZ 00454d80 f i sound_blueprint_manager.obj
 0001:00053d90       ?PutData@?$LList@PAVSoundInstanceBlueprint@@@@QAEXABQAVSoundInstanceBlueprint@@@Z 00454d90 f i sound_blueprint_manager.obj
 0001:00053da0       ?EmptyAndDelete@?$LList@PAVSoundInstanceBlueprint@@@@QAEXXZ 00454da0 f i sound_blueprint_manager.obj
 0001:00053e80       ??0?$DArray@PAVDspParameterBlueprint@@@@QAE@XZ 00454e80 f i sound_blueprint_manager.obj
 0001:00053ea0       ??1?$DArray@PAVDspParameterBlueprint@@@@QAE@XZ 00454ea0 f i sound_blueprint_manager.obj
 0001:00053eb0       ?PutData@?$DArray@PAVDspParameterBlueprint@@@@QAEHABQAVDspParameterBlueprint@@@Z 00454eb0 f i sound_blueprint_manager.obj
 0001:00053f00       ?ValidIndex@?$DArray@PAVDspParameterBlueprint@@@@QBE_NH@Z 00454f00 f i sound_blueprint_manager.obj
 0001:00053f30       ??A?$DArray@PAVDspParameterBlueprint@@@@QAEAAPAVDspParameterBlueprint@@H@Z 00454f30 f i sound_blueprint_manager.obj
 0001:00053f90       ??_GSoundEventBlueprint@@QAEPAXI@Z 00454f90 f i sound_blueprint_manager.obj
 0001:00053fb0       ??_GDspBlueprint@@QAEPAXI@Z 00454fb0 f i sound_blueprint_manager.obj
 0001:00053fe0       ??_GSampleGroup@@QAEPAXI@Z 00454fe0 f i sound_blueprint_manager.obj
 0001:00054010       ??1SoundEventBlueprint@@QAE@XZ 00455010 f i sound_blueprint_manager.obj
 0001:00054020       ??1DspBlueprint@@QAE@XZ    00455020 f i sound_blueprint_manager.obj
 0001:00054030       ??1SampleGroup@@QAE@XZ     00455030 f i sound_blueprint_manager.obj
 0001:00054040       ?Grow@?$HashTable@PAVSoundEventBlueprint@@@@IAEXXZ 00455040 f i sound_blueprint_manager.obj
 0001:00054150       ?GetInsertPos@?$HashTable@PAVSoundEventBlueprint@@@@IBEIPBD@Z 00455150 f i sound_blueprint_manager.obj
 0001:000541d0       ?GetIndex@?$HashTable@PAVSoundEventBlueprint@@@@QBEHPBD@Z 004551d0 f i sound_blueprint_manager.obj
 0001:00054230       ?Empty@?$HashTable@PAVSoundEventBlueprint@@@@QAEXXZ 00455230 f i sound_blueprint_manager.obj
 0001:00054280       ?Grow@?$DArray@PAVDspBlueprint@@@@IAEXXZ 00455280 f i sound_blueprint_manager.obj
 0001:000542b0       ?Empty@?$DArray@PAVDspBlueprint@@@@QAEXXZ 004552b0 f i sound_blueprint_manager.obj
 0001:000542e0       ?PutDataAtEnd@?$LList@PAVSampleGroup@@@@QAEXABQAVSampleGroup@@@Z 004552e0 f i sound_blueprint_manager.obj
 0001:00054340       ?RemoveData@?$LList@PAVSampleGroup@@@@QAEXH@Z 00455340 f i sound_blueprint_manager.obj
 0001:000543d0       ?Empty@?$LList@PAVSampleGroup@@@@QAEXXZ 004553d0 f i sound_blueprint_manager.obj
 0001:00054420       ?Empty@?$LList@PAVSoundInstanceBlueprint@@@@QAEXXZ 00455420 f i sound_blueprint_manager.obj
 0001:00054470       ?Grow@?$DArray@PAVDspParameterBlueprint@@@@IAEXXZ 00455470 f i sound_blueprint_manager.obj
 0001:000544a0       ?Empty@?$DArray@PAVDspParameterBlueprint@@@@QAEXXZ 004554a0 f i sound_blueprint_manager.obj
 0001:000544d0       ??_G?$LListItem@PAVSampleGroup@@@@QAEPAXI@Z 004554d0 f i sound_blueprint_manager.obj
 0001:000544f0       ?HashFunc@?$HashTable@PAVSoundEventBlueprint@@@@IBEIPBD@Z 004554f0 f i sound_blueprint_manager.obj
 0001:00054570       ?DumpKeys@?$HashTable@PAVSoundEventBlueprint@@@@QBEXXZ 00455570 f i sound_blueprint_manager.obj
 0001:000545e0       ??0?$LListItem@PAVSampleGroup@@@@QAE@XZ 004555e0 f i sound_blueprint_manager.obj
 0001:00054600       ??1?$LListItem@PAVSampleGroup@@@@QAE@XZ 00455600 f i sound_blueprint_manager.obj
 0001:00054610       ?SetSize@?$DArray@PAVDspParameterBlueprint@@@@QAEXH@Z 00455610 f i sound_blueprint_manager.obj
 0001:00054730       ??0DspEffect@@QAE@H@Z      00455730 f i sound_filter.obj
 0001:00054750       ??1DspEffect@@UAE@XZ       00455750 f i sound_filter.obj
 0001:00054760       ??_EDspEffect@@UAEPAXI@Z   00455760 f i * CIL library *:* CIL module *
 0001:00054760       ??_GDspEffect@@UAEPAXI@Z   00455760 f i sound_filter.obj
 0001:00054790       ??0DspResLowPass@@QAE@H@Z  00455790 f   sound_filter.obj
 0001:00054800       ??_EDspResLowPass@@UAEPAXI@Z 00455800 f i * CIL library *:* CIL module *
 0001:00054800       ??_GDspResLowPass@@UAEPAXI@Z 00455800 f i sound_filter.obj
 0001:00054830       ??1DspResLowPass@@UAE@XZ   00455830 f i sound_filter.obj
 0001:00054840       ?CalcCoefs@DspResLowPass@@IAEXMMM@Z 00455840 f   sound_filter.obj
 0001:00054930       ?SetParameters@DspResLowPass@@UAEXPBM@Z 00455930 f   sound_filter.obj
 0001:000549b0       ?Process@DspResLowPass@@UAEXPAFI@Z 004559b0 f   sound_filter.obj
 0001:00054af0       ??0DspBitCrusher@@QAE@H@Z  00455af0 f   sound_filter.obj
 0001:00054b10       ??_EDspBitCrusher@@UAEPAXI@Z 00455b10 f i * CIL library *:* CIL module *
 0001:00054b10       ??_GDspBitCrusher@@UAEPAXI@Z 00455b10 f i sound_filter.obj
 0001:00054b40       ??1DspBitCrusher@@UAE@XZ   00455b40 f i sound_filter.obj
 0001:00054b50       ?SetParameters@DspBitCrusher@@UAEXPBM@Z 00455b50 f   sound_filter.obj
 0001:00054b60       ?Process@DspBitCrusher@@UAEXPAFI@Z 00455b60 f   sound_filter.obj
 0001:00054cc0       ??0DspGargle@@QAE@H@Z      00455cc0 f   sound_filter.obj
 0001:00054d00       ??_EDspGargle@@UAEPAXI@Z   00455d00 f i * CIL library *:* CIL module *
 0001:00054d00       ??_GDspGargle@@UAEPAXI@Z   00455d00 f i sound_filter.obj
 0001:00054d30       ??1DspGargle@@UAE@XZ       00455d30 f i sound_filter.obj
 0001:00054d40       ?ProcessTriangle@DspGargle@@IAEXPAFI@Z 00455d40 f   sound_filter.obj
 0001:00054e40       ?ProcessSquare@DspGargle@@IAEXPAFI@Z 00455e40 f   sound_filter.obj
 0001:00054ed0       ?Process@DspGargle@@UAEXPAFI@Z 00455ed0 f   sound_filter.obj
 0001:00054ef0       ?SetParameters@DspGargle@@UAEXPBM@Z 00455ef0 f   sound_filter.obj
 0001:00054f10       ??0DspEcho@@QAE@H@Z        00455f10 f   sound_filter.obj
 0001:00054fd0       ??_EDspEcho@@UAEPAXI@Z     00455fd0 f i * CIL library *:* CIL module *
 0001:00054fd0       ??_GDspEcho@@UAEPAXI@Z     00455fd0 f i sound_filter.obj
 0001:00055000       ??1DspEcho@@UAE@XZ         00456000 f   sound_filter.obj
 0001:00055030       ?SetParameters@DspEcho@@UAEXPBM@Z 00456030 f   sound_filter.obj
 0001:000550a0       ?Process@DspEcho@@UAEXPAFI@Z 004560a0 f   sound_filter.obj
 0001:000551b0       ??0DspReverb@@QAE@H@Z      004561b0 f   sound_filter.obj
 0001:000552e0       ??_EDspReverb@@UAEPAXI@Z   004562e0 f i * CIL library *:* CIL module *
 0001:000552e0       ??_GDspReverb@@UAEPAXI@Z   004562e0 f i sound_filter.obj
 0001:00055310       ??1DspReverb@@UAE@XZ       00456310 f   sound_filter.obj
 0001:00055340       ?SetParameters@DspReverb@@UAEXPBM@Z 00456340 f   sound_filter.obj
 0001:00055350       ?Process@DspReverb@@UAEXPAFI@Z 00456350 f   sound_filter.obj
 0001:00055470       ??0DspSmoother@@QAE@H@Z    00456470 f   sound_filter.obj
 0001:00055490       ??_EDspSmoother@@UAEPAXI@Z 00456490 f i * CIL library *:* CIL module *
 0001:00055490       ??_GDspSmoother@@UAEPAXI@Z 00456490 f i sound_filter.obj
 0001:000554c0       ??1DspSmoother@@UAE@XZ     004564c0 f i sound_filter.obj
 0001:000554d0       ?SetParameters@DspSmoother@@UAEXPBM@Z 004564d0 f   sound_filter.obj
 0001:000554e0       ?Process@DspSmoother@@UAEXPAFI@Z 004564e0 f   sound_filter.obj
 0001:000555b0       _powf                      004565b0 f i sound_filter.obj
 0001:000555d0       _expf                      004565d0 f i sound_filter.obj
 0001:000555e0       ?sqrt@@YAMM@Z              004565e0 f i sound_instance.obj
 0001:000555f0       ??0DspHandle@@QAE@XZ       004565f0 f   sound_instance.obj
 0001:00055620       ?Copy@DspHandle@@QAEXPAV1@@Z 00456620 f   sound_instance.obj
 0001:00055680       ?Initialise@DspHandle@@QAEXPAVSoundInstance@@@Z 00456680 f   sound_instance.obj
 0001:00055690       ?Advance@DspHandle@@QAEXXZ 00456690 f   sound_instance.obj
 0001:00055760       ??0SoundInstanceId@@QAE@XZ 00456760 f   sound_instance.obj
 0001:00055770       ?GenerateUniqueId@SoundInstanceId@@SAHXZ 00456770 f   sound_instance.obj
 0001:00055780       ?SetInvalid@SoundInstanceId@@QAEXXZ 00456780 f   sound_instance.obj
 0001:00055790       ??8SoundInstanceId@@QBE_NABV0@@Z 00456790 f   sound_instance.obj
 0001:000557b0       ??4SoundInstanceId@@QAEABV0@ABV0@@Z 004567b0 f   sound_instance.obj
 0001:000557d0       ??0SoundInstance@@QAE@XZ   004567d0 f   sound_instance.obj
 0001:000559c0       ??1SoundInstance@@QAE@XZ   004569c0 f   sound_instance.obj
 0001:00055a90       ?SetSoundName@SoundInstance@@QAEXPBD@Z 00456a90 f   sound_instance.obj
 0001:00055ac0       ?SetEventName@SoundInstance@@QAEXPBD0@Z 00456ac0 f   sound_instance.obj
 0001:00055b80       ?GetPositionTypeName@SoundInstance@@SAPBDH@Z 00456b80 f   sound_instance.obj
 0001:00055b90       ?GetInstanceTypeName@SoundInstance@@SAPBDH@Z 00456b90 f   sound_instance.obj
 0001:00055ba0       ?GetLoopTypeName@SoundInstance@@SAPBDH@Z 00456ba0 f   sound_instance.obj
 0001:00055bb0       ?GetSourceTypeName@SoundInstance@@SAPBDH@Z 00456bb0 f   sound_instance.obj
 0001:00055bc0       ?Copy@SoundInstance@@QAEXPAV1@@Z 00456bc0 f   sound_instance.obj
 0001:00055da0       ?PropagateBlueprints@SoundInstance@@QAEX_N@Z 00456da0 f   sound_instance.obj
 0001:000560d0       ?UpdateChannelVolume@SoundInstance@@QAE_NXZ 004570d0 f   sound_instance.obj
 0001:00056350       ?BeginRelease@SoundInstance@@QAEX_N@Z 00457350 f   sound_instance.obj
 0001:00056400       ?OpenStream@SoundInstance@@QAEX_N@Z 00457400 f   sound_instance.obj
 0001:00056530       ?IsPlayable@SoundInstance@@QAE_NXZ 00457530 f   sound_instance.obj
 0001:00056560       ?AdvanceLoop@SoundInstance@@QAE_NXZ 00457560 f   sound_instance.obj
 0001:000566b0       ?StartPlaying@SoundInstance@@QAE_NH@Z 004576b0 f   sound_instance.obj
 0001:000568e0       ?Advance@SoundInstance@@QAE_NXZ 004578e0 f   sound_instance.obj
 0001:000569a0       ?Update3DPosition@SoundInstance@@QAE_NXZ 004579a0 f   sound_instance.obj
 0001:00056b40       ?ForceParameter@SoundInstance@@QAEXAAVSoundParameter@@M@Z 00457b40 f   sound_instance.obj
 0001:00056b50       ?UpdateParameter@SoundInstance@@QAE_NAAVSoundParameter@@@Z 00457b50 f   sound_instance.obj
 0001:00056bd0       ?StopPlaying@SoundInstance@@QAEXXZ 00457bd0 f   sound_instance.obj
 0001:00056c60       ?IsPlaying@SoundInstance@@QAE_NXZ 00457c60 f   sound_instance.obj
 0001:00056c70       ?Lock@SoundInstance@@QAEXXZ 00457c70 f   sound_instance.obj
 0001:00056c80       ?Unlock@SoundInstance@@QAEXXZ 00457c80 f   sound_instance.obj
 0001:00056c90       ?IsLocked@SoundInstance@@QAE_NXZ 00457c90 f   sound_instance.obj
 0001:00056ca0       ?GetChannelIndex@SoundInstance@@QAEHXZ 00457ca0 f   sound_instance.obj
 0001:00056ce0       ?CalculatePerceivedVolume@SoundInstance@@QAEXXZ 00457ce0 f   sound_instance.obj
 0001:00056e40       ?GetAttachedObject@SoundInstance@@QAE?AVSoundObjectId@@XZ 00457e40 f   sound_instance.obj
 0001:00057100       ?GetTimeRemaining@SoundInstance@@QAEMXZ 00458100 f   sound_instance.obj
 0001:00057140       ?GetDescriptor@SoundInstance@@QAEPADXZ 00458140 f   sound_instance.obj
 0001:00057310       ?MagSquared@?$Vector3@M@@QBEMXZ 00458310 f i sound_instance.obj
 0001:00057340       ?Mag@?$Vector3@M@@QBEMXZ   00458340 f i sound_instance.obj
 0001:00057370       ??0?$LList@VSoundObjectId@@@@QAE@XZ 00458370 f i sound_instance.obj
 0001:000573a0       ??1?$LList@VSoundObjectId@@@@QAE@XZ 004583a0 f i sound_instance.obj
 0001:000573b0       ?RemoveData@?$LList@VSoundObjectId@@@@QAEXH@Z 004583b0 f i sound_instance.obj
 0001:00057470       ?Empty@?$LList@VSoundObjectId@@@@QAEXXZ 00458470 f i sound_instance.obj
 0001:000574c0       ??0?$LList@PAVDspHandle@@@@QAE@XZ 004584c0 f i sound_instance.obj
 0001:000574f0       ??1?$LList@PAVDspHandle@@@@QAE@XZ 004584f0 f i sound_instance.obj
 0001:00057500       ?EmptyAndDelete@?$LList@PAVDspHandle@@@@QAEXXZ 00458500 f i sound_instance.obj
 0001:000575e0       ??_G?$LListItem@VSoundObjectId@@@@QAEPAXI@Z 004585e0 f i sound_instance.obj
 0001:00057600       ??1?$LListItem@VSoundObjectId@@@@QAE@XZ 00458600 f i sound_instance.obj
 0001:00057610       ?Empty@?$LList@PAVDspHandle@@@@QAEXXZ 00458610 f i sound_instance.obj
 0001:00057660       ??_ESoundLibrary2d@@UAEPAXI@Z 00458660 f i * CIL library *:* CIL module *
 0001:00057660       ??_GSoundLibrary2d@@UAEPAXI@Z 00458660 f i sound_library_2d.obj
 0001:00057690       ??1SoundLibrary2d@@UAE@XZ  00458690 f   sound_library_2d.obj
 0001:000576a0       ?StartRecordToFile@SoundLibrary3d@@UAEXPBD@Z 004586a0 f i sound_library_3d.obj
 0001:000576b0       ?EndRecordToFile@SoundLibrary3d@@UAEXXZ 004586b0 f i sound_library_3d.obj
 0001:000576c0       ??0SoundLibrary3d@@QAE@XZ  004586c0 f   sound_library_3d.obj
 0001:00057710       ??_ESoundLibrary3d@@UAEPAXI@Z 00458710 f i * CIL library *:* CIL module *
 0001:00057710       ??_GSoundLibrary3d@@UAEPAXI@Z 00458710 f i sound_library_3d.obj
 0001:00057740       ??1SoundLibrary3d@@UAE@XZ  00458740 f   sound_library_3d.obj
 0001:00057750       ?EnableCallback@SoundLibrary3d@@UAEX_N@Z 00458750 f   sound_library_3d.obj
 0001:00057760       ?SetMainCallback@SoundLibrary3d@@QAEXP6A_NIPAFIPAH@Z@Z 00458760 f   sound_library_3d.obj
 0001:00057770       ?GetNumChannels@SoundLibrary3d@@QBEHXZ 00458770 f   sound_library_3d.obj
 0001:00057780       ?GetNumMusicChannels@SoundLibrary3d@@QBEHXZ 00458780 f   sound_library_3d.obj
 0001:00057790       ?SetMasterVolume@SoundLibrary3d@@UAEXH@Z 00458790 f   sound_library_3d.obj
 0001:000577c0       ?GetMasterVolume@SoundLibrary3d@@UBEHXZ 004587c0 f   sound_library_3d.obj
 0001:000577e0       ?SetDopplerFactor@SoundLibrary3d@@UAEXM@Z 004587e0 f   sound_library_3d.obj
 0001:000577f0       ?WriteSilence@SoundLibrary3d@@QAEXPAFI@Z 004587f0 f   sound_library_3d.obj
 0001:00057810       ??0DirectSoundData@@QAE@XZ 00458810 f i sound_library_3d_dsound.obj
 0001:00057820       ??0SoundLibFilter@@QAE@XZ  00458820 f i sound_library_3d_dsound.obj
 0001:00057830       ??0DirectSoundChannel@@QAE@XZ 00458830 f   sound_library_3d_dsound.obj
 0001:000578c0       ?UpdateSimulatedPlayCursor@DirectSoundChannel@@QAEXJ@Z 004588c0 f   sound_library_3d_dsound.obj
 0001:00057940       ??0SoundLibrary3dDirectSound@@QAE@XZ 00458940 f   sound_library_3d_dsound.obj
 0001:000579c0       ??_ESoundLibrary3dDirectSound@@UAEPAXI@Z 004589c0 f i * CIL library *:* CIL module *
 0001:000579c0       ??_GSoundLibrary3dDirectSound@@UAEPAXI@Z 004589c0 f i sound_library_3d_dsound.obj
 0001:000579f0       ??1SoundLibrary3dDirectSound@@UAE@XZ 004589f0 f   sound_library_3d_dsound.obj
 0001:00057b90       ?CreateSecondaryBuffer@SoundLibrary3dDirectSound@@IAEPAUIDirectSoundBuffer@@HH@Z 00458b90 f   sound_library_3d_dsound.obj
 0001:00057d70       ?Initialise@SoundLibrary3dDirectSound@@UAEXHHH_N@Z 00458d70 f   sound_library_3d_dsound.obj
 0001:000580d0       ?RefreshCapabilities@SoundLibrary3dDirectSound@@IAEXXZ 004590d0 f   sound_library_3d_dsound.obj
 0001:00058160       ?Hardware3DSupport@SoundLibrary3dDirectSound@@UAE_NXZ 00459160 f   sound_library_3d_dsound.obj
 0001:00058170       ?GetMaxChannels@SoundLibrary3dDirectSound@@UAEHXZ 00459170 f   sound_library_3d_dsound.obj
 0001:000581a0       ?GetCPUOverhead@SoundLibrary3dDirectSound@@UAEHXZ 004591a0 f   sound_library_3d_dsound.obj
 0001:00058280       ?GetChannelHealth@SoundLibrary3dDirectSound@@UAEMH@Z 00459280 f   sound_library_3d_dsound.obj
 0001:000582c0       ?GetChannelBufSize@SoundLibrary3dDirectSound@@UBEHH@Z 004592c0 f   sound_library_3d_dsound.obj
 0001:000582e0       ?GetChannelVolume@SoundLibrary3dDirectSound@@UBEMH@Z 004592e0 f   sound_library_3d_dsound.obj
 0001:00058330       ?SetChannel3DMode@SoundLibrary3dDirectSound@@UAEXHH@Z 00459330 f   sound_library_3d_dsound.obj
 0001:000583e0       ?SetChannelPosition@SoundLibrary3dDirectSound@@UAEXHABV?$Vector3@M@@0@Z 004593e0 f   sound_library_3d_dsound.obj
 0001:00058550       ?GetChannelRelFreq@SoundLibrary3dDirectSound@@UBEMH@Z 00459550 f   sound_library_3d_dsound.obj
 0001:00058560       ?SetChannelFrequency@SoundLibrary3dDirectSound@@UAEXHH@Z 00459560 f   sound_library_3d_dsound.obj
 0001:000585f0       ?SetChannelMinDistance@SoundLibrary3dDirectSound@@UAEXHM@Z 004595f0 f   sound_library_3d_dsound.obj
 0001:000586e0       ?SetChannelVolume@SoundLibrary3dDirectSound@@UAEXHM@Z 004596e0 f   sound_library_3d_dsound.obj
 0001:000587e0       ?SetListenerPosition@SoundLibrary3dDirectSound@@UAEXABV?$Vector3@M@@000@Z 004597e0 f   sound_library_3d_dsound.obj
 0001:00058990       ?SetDopplerFactor@SoundLibrary3dDirectSound@@UAEXM@Z 00459990 f   sound_library_3d_dsound.obj
 0001:00058a40       ?CommitChanges@SoundLibrary3dDirectSound@@IAEXXZ 00459a40 f   sound_library_3d_dsound.obj
 0001:00058ae0       ?PopulateBuffer@SoundLibrary3dDirectSound@@IAEXHHH@Z 00459ae0 f   sound_library_3d_dsound.obj
 0001:00058cd0       ?CalcWrappedDelta@SoundLibrary3dDirectSound@@IAEJJJK@Z 00459cd0 f   sound_library_3d_dsound.obj
 0001:00058d00       ?AdvanceChannel@SoundLibrary3dDirectSound@@IAEXHH@Z 00459d00 f   sound_library_3d_dsound.obj
 0001:00058e70       ?GetNumFilters@SoundLibrary3dDirectSound@@IAEHH@Z 00459e70 f   sound_library_3d_dsound.obj
 0001:00058ee0       ?Advance@SoundLibrary3dDirectSound@@UAEXXZ 00459ee0 f   sound_library_3d_dsound.obj
 0001:00058fd0       ?ResetChannel@SoundLibrary3dDirectSound@@UAEXH@Z 00459fd0 f   sound_library_3d_dsound.obj
 0001:000590c0       ?EnableDspFX@SoundLibrary3dDirectSound@@UAEXHHPBH@Z 0045a0c0 f   sound_library_3d_dsound.obj
 0001:00059420       ?UpdateDspFX@SoundLibrary3dDirectSound@@UAEXHHHPBM@Z 0045a420 f   sound_library_3d_dsound.obj
 0001:00059580       ?DisableDspFX@SoundLibrary3dDirectSound@@UAEXH@Z 0045a580 f   sound_library_3d_dsound.obj
 0001:00059660       ??0SoundParameter@@QAE@XZ  0045a660 f   sound_parameter.obj
 0001:000596b0       ??0SoundParameter@@QAE@M@Z 0045a6b0 f   sound_parameter.obj
 0001:00059700       ?Copy@SoundParameter@@QAEXPAV1@@Z 0045a700 f   sound_parameter.obj
 0001:00059740       ?Recalculate@SoundParameter@@QAEXM@Z 0045a740 f   sound_parameter.obj
 0001:00059840       ?GetOutput@SoundParameter@@QAEMXZ 0045a840 f   sound_parameter.obj
 0001:00059850       ?Read@SoundParameter@@QAEXPAVTextReader@@@Z 0045a850 f   sound_parameter.obj
 0001:00059970       ?Write@SoundParameter@@QAEXPAVTextFileWriter@@PBDH@Z 0045a970 f   sound_parameter.obj
 0001:00059af0       ?IsFixedValue@SoundParameter@@QAE_NM@Z 0045aaf0 f   sound_parameter.obj
 0001:00059b10       ?GetSmooth@SoundParameter@@QAEMXZ 0045ab10 f   sound_parameter.obj
 0001:00059b20       ?GetParameterTypeName@SoundParameter@@SAPBDH@Z 0045ab20 f   sound_parameter.obj
 0001:00059b50       ?GetParameterType@SoundParameter@@SAHPBD@Z 0045ab50 f   sound_parameter.obj
 0001:00059b80       ?GetUpdateTypeName@SoundParameter@@SAPBDH@Z 0045ab80 f   sound_parameter.obj
 0001:00059ba0       ?GetUpdateType@SoundParameter@@SAHPBD@Z 0045aba0 f   sound_parameter.obj
 0001:00059bd0       ?GetLinkName@SoundParameter@@SAPBDH@Z 0045abd0 f   sound_parameter.obj
 0001:00059c60       ?GetLinkType@SoundParameter@@SAHPBD@Z 0045ac60 f   sound_parameter.obj
 0001:00059d00       ??0SoundSampleHandle@@QAE@PAVSoundSampleDecoder@@@Z 0045ad00 f   sound_sample_bank.obj
 0001:00059d20       ??1SoundSampleHandle@@QAE@XZ 0045ad20 f   sound_sample_bank.obj
 0001:00059d30       ?Read@SoundSampleHandle@@QAEIPAFI_NM@Z 0045ad30 f   sound_sample_bank.obj
 0001:00059d70       ?Restart@SoundSampleHandle@@QAEXXZ 0045ad70 f   sound_sample_bank.obj
 0001:00059d80       ?NumSamplesRemaining@SoundSampleHandle@@QAEHXZ 0045ad80 f   sound_sample_bank.obj
 0001:00059da0       ??0SoundSampleBank@@QAE@XZ 0045ada0 f   sound_sample_bank.obj
 0001:00059dc0       ??1SoundSampleBank@@QAE@XZ 0045adc0 f   sound_sample_bank.obj
 0001:00059e50       ??_GSoundSampleDecoder@@QAEPAXI@Z 0045ae50 f i sound_sample_bank.obj
 0001:00059e70       ?GetSample@SoundSampleBank@@QAEPAVSoundSampleHandle@@PAD@Z 0045ae70 f   sound_sample_bank.obj
 0001:00059f80       ?EmptyCache@SoundSampleBank@@QAEXXZ 0045af80 f   sound_sample_bank.obj
 0001:00059f90       ?GetMemoryUsage@SoundSampleBank@@QAEHXZ 0045af90 f   sound_sample_bank.obj
 0001:00059fe0       ?DiscardSample@SoundSampleBank@@QAEXPAD@Z 0045afe0 f   sound_sample_bank.obj
 0001:0005a030       ??0?$HashTable@PAVSoundSampleDecoder@@@@QAE@XZ 0045b030 f i sound_sample_bank.obj
 0001:0005a0b0       ??1?$HashTable@PAVSoundSampleDecoder@@@@QAE@XZ 0045b0b0 f i sound_sample_bank.obj
 0001:0005a0d0       ?PutData@?$HashTable@PAVSoundSampleDecoder@@@@QAEHPBDABQAVSoundSampleDecoder@@@Z 0045b0d0 f i sound_sample_bank.obj
 0001:0005a150       ?GetData@?$HashTable@PAVSoundSampleDecoder@@@@QBEPAVSoundSampleDecoder@@I@Z 0045b150 f i sound_sample_bank.obj
 0001:0005a160       ?GetData@?$HashTable@PAVSoundSampleDecoder@@@@QBEPAVSoundSampleDecoder@@PBDABQAV2@@Z 0045b160 f i sound_sample_bank.obj
 0001:0005a190       ?RemoveData@?$HashTable@PAVSoundSampleDecoder@@@@QAEXI@Z 0045b190 f i sound_sample_bank.obj
 0001:0005a1b0       ?RemoveData@?$HashTable@PAVSoundSampleDecoder@@@@QAEXPBD@Z 0045b1b0 f i sound_sample_bank.obj
 0001:0005a1d0       ?EmptyAndDelete@?$HashTable@PAVSoundSampleDecoder@@@@QAEXXZ 0045b1d0 f i sound_sample_bank.obj
 0001:0005a220       ?ValidIndex@?$HashTable@PAVSoundSampleDecoder@@@@QBE_NI@Z 0045b220 f i sound_sample_bank.obj
 0001:0005a240       ?Size@?$HashTable@PAVSoundSampleDecoder@@@@QBEIXZ 0045b240 f i sound_sample_bank.obj
 0001:0005a250       ?Grow@?$HashTable@PAVSoundSampleDecoder@@@@IAEXXZ 0045b250 f i sound_sample_bank.obj
 0001:0005a360       ?GetInsertPos@?$HashTable@PAVSoundSampleDecoder@@@@IBEIPBD@Z 0045b360 f i sound_sample_bank.obj
 0001:0005a3e0       ?GetIndex@?$HashTable@PAVSoundSampleDecoder@@@@QBEHPBD@Z 0045b3e0 f i sound_sample_bank.obj
 0001:0005a440       ?MarkNotUsed@?$HashTable@PAVSoundSampleDecoder@@@@QAEXI@Z 0045b440 f i sound_sample_bank.obj
 0001:0005a470       ?Rebuild@?$HashTable@PAVSoundSampleDecoder@@@@QAEXXZ 0045b470 f i sound_sample_bank.obj
 0001:0005a550       ?Empty@?$HashTable@PAVSoundSampleDecoder@@@@QAEXXZ 0045b550 f i sound_sample_bank.obj
 0001:0005a5a0       ?HashFunc@?$HashTable@PAVSoundSampleDecoder@@@@IBEIPBD@Z 0045b5a0 f i sound_sample_bank.obj
 0001:0005a620       ?DumpKeys@?$HashTable@PAVSoundSampleDecoder@@@@QBEXXZ 0045b620 f i sound_sample_bank.obj
 0001:0005a6c0       ??0SoundSampleDecoder@@QAE@PAVBinaryReader@@@Z 0045b6c0 f   sound_sample_decoder.obj
 0001:0005a770       ??1SoundSampleDecoder@@QAE@XZ 0045b770 f   sound_sample_decoder.obj
 0001:0005a7b0       ?ReadWavHeader@SoundSampleDecoder@@IAEXXZ 0045b7b0 f   sound_sample_decoder.obj
 0001:0005a950       ?ReadOggHeader@SoundSampleDecoder@@IAEXXZ 0045b950 f   sound_sample_decoder.obj
 0001:0005aa10       ?ReadWavData@SoundSampleDecoder@@IAEIPAFI@Z 0045ba10 f   sound_sample_decoder.obj
 0001:0005aaa0       ?ReadOggData@SoundSampleDecoder@@IAEIPAFI@Z 0045baa0 f   sound_sample_decoder.obj
 0001:0005ab30       ?ReadToCache@SoundSampleDecoder@@IAEII@Z 0045bb30 f   sound_sample_decoder.obj
 0001:0005abc0       ?EnsureCached@SoundSampleDecoder@@IAEXI@Z 0045bbc0 f   sound_sample_decoder.obj
 0001:0005ac20       ?Read@SoundSampleDecoder@@QAEXPAFII_NM@Z 0045bc20 f   sound_sample_decoder.obj
 0001:0005ad00       ?newStr@@YAPADPBD@Z        0045bd00 f   string_utils.obj
 0001:0005ad40       ?SafetyString@@YAXPAD@Z    0045bd40 f   string_utils.obj
 0001:0005ad70       ?ReplaceExtendedCharacters@@YAXPAD@Z 0045bd70 f   string_utils.obj
 0001:0005ada0       ?StripExtendedCharacters@@YAXPAD@Z 0045bda0 f   string_utils.obj
 0001:0005adc0       ?StripTrailingWhitespace@@YAXPAD@Z 0045bdc0 f   string_utils.obj
 0001:0005adf0       ??7ios_base@std@@QBE_NXZ   0045bdf0 f i directory.obj
 0001:0005ae00       ?fail@ios_base@std@@QBE_NXZ 0045be00 f i directory.obj
 0001:0005ae10       ?IsInt@DirectoryData@@QAE_NXZ 0045be10 f i directory.obj
 0001:0005ae20       ?IsFixed@DirectoryData@@QAE_NXZ 0045be20 f i directory.obj
 0001:0005ae30       ?IsChar@DirectoryData@@QAE_NXZ 0045be30 f i directory.obj
 0001:0005ae40       ?IsString@DirectoryData@@QAE_NXZ 0045be40 f i directory.obj
 0001:0005ae50       ?IsBool@DirectoryData@@QAE_NXZ 0045be50 f i directory.obj
 0001:0005ae60       ??0Directory@@QAE@XZ       0045be60 f   directory.obj
 0001:0005aed0       ??0Directory@@QAE@ABV0@@Z  0045bed0 f   directory.obj
 0001:0005af50       ??1Directory@@QAE@XZ       0045bf50 f   directory.obj
 0001:0005af90       ?SetName@Directory@@QAEXPBD@Z 0045bf90 f   directory.obj
 0001:0005afe0       ?GetDirectory@Directory@@QBEPAV1@PBD@Z 0045bfe0 f   directory.obj
 0001:0005b110       ?RemoveDirectoryA@Directory@@QAEXPBD@Z 0045c110 f   directory.obj
 0001:0005b180       ?AddDirectory@Directory@@QAEXPAV1@@Z 0045c180 f   directory.obj
 0001:0005b1c0       ?CopyData@Directory@@QAEXPBV1@_N1@Z 0045c1c0 f   directory.obj
 0001:0005b320       ?GetFirstSubDir@Directory@@SAPADPBD@Z 0045c320 f   directory.obj
 0001:0005b3a0       ?GetOtherSubDirs@Directory@@SAPBDPBD@Z 0045c3a0 f   directory.obj
 0001:0005b410       ?CreateData@Directory@@QAEXPBDH@Z 0045c410 f   directory.obj
 0001:0005b4d0       ?CreateData@Directory@@QAEXPBDVFixed@@@Z 0045c4d0 f   directory.obj
 0001:0005b5a0       ?CreateData@Directory@@QAEXPBDE@Z 0045c5a0 f   directory.obj
 0001:0005b5b0       ?CreateData@Directory@@QAEXPBDD@Z 0045c5b0 f   directory.obj
 0001:0005b670       ?CreateData@Directory@@QAEXPBD0@Z 0045c670 f   directory.obj
 0001:0005b730       ?CreateData@Directory@@QAEXPBD_N@Z 0045c730 f   directory.obj
 0001:0005b7d0       ?GetDataInt@Directory@@QBEHPBD@Z 0045c7d0 f   directory.obj
 0001:0005b810       ?GetDataFixed@Directory@@QBE?AVFixed@@PBD@Z 0045c810 f   directory.obj
 0001:0005b860       ?GetDataUChar@Directory@@QBEEPBD@Z 0045c860 f   directory.obj
 0001:0005b880       ?GetDataChar@Directory@@QBEDPBD@Z 0045c880 f   directory.obj
 0001:0005b8c0       ?GetDataString@Directory@@QBEPADPBD@Z 0045c8c0 f   directory.obj
 0001:0005b900       ?GetDataBool@Directory@@QBE_NPBD@Z 0045c900 f   directory.obj
 0001:0005b940       ?GetData@Directory@@QBEPAVDirectoryData@@PBD@Z 0045c940 f   directory.obj
 0001:0005b9e0       ?RemoveData@Directory@@QAEXPBD@Z 0045c9e0 f   directory.obj
 0001:0005ba70       ??_GDirectoryData@@QAEPAXI@Z 0045ca70 f i directory.obj
 0001:0005ba90       ?HasData@Directory@@QBE_NPBDH@Z 0045ca90 f   directory.obj
 0001:0005bae0       ?DebugPrint@Directory@@QBEXH@Z 0045cae0 f   directory.obj
 0001:0005bbd0       ?WritePackedInt@Directory@@SAXAAV?$basic_ostream@DU?$char_traits@D@std@@@std@@H@Z 0045cbd0 f   directory.obj
 0001:0005bc20       ?ReadPackedInt@Directory@@SAHAAV?$basic_istream@DU?$char_traits@D@std@@@std@@@Z 0045cc20 f   directory.obj
 0001:0005bc60       ?Read@Directory@@QAE_NAAV?$basic_istream@DU?$char_traits@D@std@@@std@@@Z 0045cc60 f   directory.obj
 0001:0005bde0       ?Write@Directory@@QBEXAAV?$basic_ostream@DU?$char_traits@D@std@@@std@@@Z 0045cde0 f   directory.obj
 0001:0005bee0       ?HexDumpData@@YAXPBDHH@Z   0045cee0 f   directory.obj
 0001:0005c050       ?Read@Directory@@QAE_NPBDH@Z 0045d050 f   directory.obj
 0001:0005c320       ??_D?$basic_istringstream@DU?$char_traits@D@std@@V?$allocator@D@2@@std@@QAEXXZ 0045d320 f i directory.obj
 0001:0005c3b0       ?Write@Directory@@QBEPADAAH@Z 0045d3b0 f   directory.obj
 0001:0005c630       ??_D?$basic_ostringstream@DU?$char_traits@D@std@@V?$allocator@D@2@@std@@QAEXXZ 0045d630 f i directory.obj
 0001:0005c6c0       ?ReadDynamicString@Directory@@SAPADAAV?$basic_istream@DU?$char_traits@D@std@@@std@@@Z 0045d6c0 f   directory.obj
 0001:0005c730       ?WriteDynamicString@Directory@@SAXAAV?$basic_ostream@DU?$char_traits@D@std@@@std@@PAD@Z 0045d730 f   directory.obj
 0001:0005c770       ?WriteVoidData@Directory@@SAXAAV?$basic_ostream@DU?$char_traits@D@std@@@std@@PAXH@Z 0045d770 f   directory.obj
 0001:0005c7a0       ?ReadVoidData@Directory@@SAPAXAAV?$basic_istream@DU?$char_traits@D@std@@@std@@PAH@Z 0045d7a0 f   directory.obj
 0001:0005c7d0       ??0DirectoryData@@QAE@XZ   0045d7d0 f   directory.obj
 0001:0005c820       ??1DirectoryData@@QAE@XZ   0045d820 f   directory.obj
 0001:0005c860       ?SetName@DirectoryData@@QAEXPBD@Z 0045d860 f   directory.obj
 0001:0005c890       ?SetData@DirectoryData@@QAEXH@Z 0045d890 f   directory.obj
 0001:0005c8b0       ?SetData@DirectoryData@@QAEXVFixed@@@Z 0045d8b0 f   directory.obj
 0001:0005c8d0       ?SetData@DirectoryData@@QAEXD@Z 0045d8d0 f   directory.obj
 0001:0005c8f0       ?SetData@DirectoryData@@QAEXPBD@Z 0045d8f0 f   directory.obj
 0001:0005c930       ?SetData@DirectoryData@@QAEX_N@Z 0045d930 f   directory.obj
 0001:0005c940       ?SetData@DirectoryData@@QAEXPBV1@@Z 0045d940 f   directory.obj
 0001:0005ca20       ?DebugPrint@DirectoryData@@QAEXH@Z 0045da20 f   directory.obj
 0001:0005cb60       ?Read@DirectoryData@@QAE_NAAV?$basic_istream@DU?$char_traits@D@std@@@std@@@Z 0045db60 f   directory.obj
 0001:0005ccc0       ?Write@DirectoryData@@QBEXAAV?$basic_ostream@DU?$char_traits@D@std@@@std@@@Z 0045dcc0 f   directory.obj
 0001:0005cda0       ?str@?$basic_ostringstream@DU?$char_traits@D@std@@V?$allocator@D@2@@std@@QBE?AV?$basic_string@DU?$char_traits@D@std@@V?$allocator@D@2@@2@XZ 0045dda0 f i directory.obj
 0001:0005ce90       ??1?$basic_ostringstream@DU?$char_traits@D@std@@V?$allocator@D@2@@std@@UAE@XZ 0045de90 f i directory.obj
 0001:0005cee0       ??0?$basic_ostringstream@DU?$char_traits@D@std@@V?$allocator@D@2@@std@@QAE@XZ 0045dee0 f i directory.obj
 0001:0005cfb0       ?seekpos@?$basic_stringbuf@DU?$char_traits@D@std@@V?$allocator@D@2@@std@@MAE?AV?$fpos@U_Mbstatet@@@2@V32@H@Z 0045dfb0 f i directory.obj
 0001:0005d100       ?seekoff@?$basic_stringbuf@DU?$char_traits@D@std@@V?$allocator@D@2@@std@@MAE?AV?$fpos@U_Mbstatet@@@2@_JHH@Z 0045e100 f i directory.obj
 0001:0005d2e0       ?underflow@?$basic_stringbuf@DU?$char_traits@D@std@@V?$allocator@D@2@@std@@MAEHXZ 0045e2e0 f i directory.obj
 0001:0005d350       ?pbackfail@?$basic_stringbuf@DU?$char_traits@D@std@@V?$allocator@D@2@@std@@MAEHH@Z 0045e350 f i directory.obj
 0001:0005d3b0       ?overflow@?$basic_stringbuf@DU?$char_traits@D@std@@V?$allocator@D@2@@std@@MAEHH@Z 0045e3b0 f i directory.obj
 0001:0005d570       ??1?$basic_stringbuf@DU?$char_traits@D@std@@V?$allocator@D@2@@std@@UAE@XZ 0045e570 f i directory.obj
 0001:0005d690       ??1?$basic_istringstream@DU?$char_traits@D@std@@V?$allocator@D@2@@std@@UAE@XZ 0045e690 f i directory.obj
 0001:0005d6e0       ??0?$basic_istringstream@DU?$char_traits@D@std@@V?$allocator@D@2@@std@@QAE@ABV?$basic_string@DU?$char_traits@D@std@@V?$allocator@D@2@@1@H@Z 0045e6e0 f i directory.obj
 0001:0005d830       ?tellg@?$basic_istream@DU?$char_traits@D@std@@@std@@QAE?AV?$fpos@U_Mbstatet@@@2@XZ 0045e830 f i directory.obj
 0001:0005d930       ?read@?$basic_istream@DU?$char_traits@D@std@@@std@@QAEAAV12@PAD_J@Z 0045e930 f i directory.obj
 0001:0005da60       ?get@?$basic_istream@DU?$char_traits@D@std@@@std@@QAEHXZ 0045ea60 f i directory.obj
 0001:0005dbe0       ?tellp@?$basic_ostream@DU?$char_traits@D@std@@@std@@QAE?AV?$fpos@U_Mbstatet@@@2@XZ 0045ebe0 f i directory.obj
 0001:0005dce0       ?write@?$basic_ostream@DU?$char_traits@D@std@@@std@@QAEAAV12@PBD_J@Z 0045ece0 f i directory.obj
 0001:0005de00       ?put@?$basic_ostream@DU?$char_traits@D@std@@@std@@QAEAAV12@D@Z 0045ee00 f i directory.obj
 0001:0005df40       ??1?$basic_ostream@DU?$char_traits@D@std@@@std@@UAE@XZ 0045ef40 f i directory.obj
 0001:0005df60       ?copy@?$basic_string@DU?$char_traits@D@std@@V?$allocator@D@2@@std@@QBEIQADII@Z 0045ef60 f i directory.obj
 0001:0005df90       ??_E?$basic_ostringstream@DU?$char_traits@D@std@@V?$allocator@D@2@@std@@UAEPAXI@Z 0045ef90 f i * CIL library *:* CIL module *
 0001:0005df90       ??_G?$basic_ostringstream@DU?$char_traits@D@std@@V?$allocator@D@2@@std@@UAEPAXI@Z 0045ef90 f i directory.obj
 0001:0005dfc0       ??_E?$basic_stringbuf@DU?$char_traits@D@std@@V?$allocator@D@2@@std@@UAEPAXI@Z 0045efc0 f i * CIL library *:* CIL module *
 0001:0005dfc0       ??_G?$basic_stringbuf@DU?$char_traits@D@std@@V?$allocator@D@2@@std@@UAEPAXI@Z 0045efc0 f i directory.obj
 0001:0005dff0       ??_E?$basic_istringstream@DU?$char_traits@D@std@@V?$allocator@D@2@@std@@UAEPAXI@Z 0045eff0 f i * CIL library *:* CIL module *
 0001:0005dff0       ??_G?$basic_istringstream@DU?$char_traits@D@std@@V?$allocator@D@2@@std@@UAEPAXI@Z 0045eff0 f i directory.obj
 0001:0005e0a0       ??_E?$basic_ostream@DU?$char_traits@D@std@@@std@@UAEPAXI@Z 0045f0a0 f i * CIL library *:* CIL module *
 0001:0005e0a0       ??_G?$basic_ostream@DU?$char_traits@D@std@@@std@@UAEPAXI@Z 0045f0a0 f i directory.obj
 0001:0005e130       ??_D?$basic_ostream@DU?$char_traits@D@std@@@std@@QAEXXZ 0045f130 f i directory.obj
 0001:0005e1a0       ?pointer_to@?$pointer_traits@PAD@std@@SAPADAAD@Z 0045f1a0 f i directory.obj
 0001:0005e1b0       ?_Tidy@?$basic_stringbuf@DU?$char_traits@D@std@@V?$allocator@D@2@@std@@IAEXXZ 0045f1b0 f i directory.obj
 0001:0005e290       ?str@?$basic_stringbuf@DU?$char_traits@D@std@@V?$allocator@D@2@@std@@QBE?AV?$basic_string@DU?$char_traits@D@std@@V?$allocator@D@2@@2@XZ 0045f290 f i directory.obj
 0001:0005e370       ??0?$basic_stringbuf@DU?$char_traits@D@std@@V?$allocator@D@2@@std@@QAE@ABV?$basic_string@DU?$char_traits@D@std@@V?$allocator@D@2@@1@H@Z 0045f370 f i directory.obj
 0001:0005e440       ??0?$basic_stringbuf@DU?$char_traits@D@std@@V?$allocator@D@2@@std@@QAE@H@Z 0045f440 f i directory.obj
 0001:0005e470       ?setp@?$basic_streambuf@DU?$char_traits@D@std@@@std@@IAEXPAD00@Z 0045f470 f i directory.obj
 0001:0005e4a0       ?sgetn@?$basic_streambuf@DU?$char_traits@D@std@@@std@@QAE_JPAD_J@Z 0045f4a0 f i directory.obj
 0001:0005e4c0       ?pubseekoff@?$basic_streambuf@DU?$char_traits@D@std@@@std@@QAE?AV?$fpos@U_Mbstatet@@@2@_JHH@Z 0045f4c0 f i directory.obj
 0001:0005e4f0       ??0?$basic_ostream@DU?$char_traits@D@std@@@std@@QAE@PAV?$basic_streambuf@DU?$char_traits@D@std@@@1@_N@Z 0045f4f0 f i directory.obj
 0001:0005e530       ?eq@?$_Narrow_char_traits@DH@std@@SA_NDD@Z 0045f530 f i directory.obj
 0001:0005e540       ?_Getstate@?$basic_stringbuf@DU?$char_traits@D@std@@V?$allocator@D@2@@std@@CAHH@Z 0045f540 f i directory.obj
 0001:0005e580       ?_Init@?$basic_stringbuf@DU?$char_traits@D@std@@V?$allocator@D@2@@std@@IAEXPBDIH@Z 0045f580 f i directory.obj
 0001:0005e660       ?_Get_buffer_view@?$basic_stringbuf@DU?$char_traits@D@std@@V?$allocator@D@2@@std@@QBE?AU_Buffer_view@12@XZ 0045f660 f i directory.obj
 0001:0005e6f0       ?get_allocator@?$basic_string@DU?$char_traits@D@std@@V?$allocator@D@2@@std@@QBE?AV?$allocator@D@2@XZ 0045f6f0 f i directory.obj
 0001:0005e700       ??0?$basic_string@DU?$char_traits@D@std@@V?$allocator@D@2@@std@@QAE@ABV?$allocator@D@1@@Z 0045f700 f i directory.obj
 0001:0005e720       ?pbase@?$basic_streambuf@DU?$char_traits@D@std@@@std@@IBEPADXZ 0045f720 f i directory.obj
 0001:0005e730       ??0?$DArray@PAVDirectory@@@@QAE@XZ 0045f730 f i directory.obj
 0001:0005e750       ??1?$DArray@PAVDirectory@@@@QAE@XZ 0045f750 f i directory.obj
 0001:0005e760       ?PutData@?$DArray@PAVDirectory@@@@QAEHABQAVDirectory@@@Z 0045f760 f i directory.obj
 0001:0005e7b0       ?RemoveData@?$DArray@PAVDirectory@@@@QAEXH@Z 0045f7b0 f i directory.obj
 0001:0005e810       ?NumUsed@?$DArray@PAVDirectory@@@@QBEHXZ 0045f810 f i directory.obj
 0001:0005e840       ?Size@?$DArray@PAVDirectory@@@@QBEHXZ 0045f840 f i directory.obj
 0001:0005e850       ?ValidIndex@?$DArray@PAVDirectory@@@@QBE_NH@Z 0045f850 f i directory.obj
 0001:0005e880       ?EmptyAndDelete@?$DArray@PAVDirectory@@@@QAEXXZ 0045f880 f i directory.obj
 0001:0005e8c0       ??A?$DArray@PAVDirectory@@@@QBEABQAVDirectory@@H@Z 0045f8c0 f i directory.obj
 0001:0005e920       ??A?$DArray@PAVDirectory@@@@QAEAAPAVDirectory@@H@Z 0045f920 f i directory.obj
 0001:0005e980       ??0?$DArray@PAVDirectoryData@@@@QAE@XZ 0045f980 f i directory.obj
 0001:0005e9a0       ??1?$DArray@PAVDirectoryData@@@@QAE@XZ 0045f9a0 f i directory.obj
 0001:0005e9b0       ?PutData@?$DArray@PAVDirectoryData@@@@QAEHABQAVDirectoryData@@@Z 0045f9b0 f i directory.obj
 0001:0005ea00       ?RemoveData@?$DArray@PAVDirectoryData@@@@QAEXH@Z 0045fa00 f i directory.obj
 0001:0005ea60       ?NumUsed@?$DArray@PAVDirectoryData@@@@QBEHXZ 0045fa60 f i directory.obj
 0001:0005ea90       ?EmptyAndDelete@?$DArray@PAVDirectoryData@@@@QAEXXZ 0045fa90 f i directory.obj
 0001:0005eae0       ??A?$DArray@PAVDirectoryData@@@@QAEAAPAVDirectoryData@@H@Z 0045fae0 f i directory.obj
 0001:0005eb40       ?Size@?$DArray@H@@QBEHXZ   0045fb40 f i directory.obj
 0001:0005eb50       ?GetData@?$LList@PAVDirectory@@@@QBEPAVDirectory@@H@Z 0045fb50 f i directory.obj
 0001:0005eb70       ?Size@?$LList@PAVDirectory@@@@QBEHXZ 0045fb70 f i directory.obj
 0001:0005eb80       ??$?6U?$char_traits@D@std@@@std@@YAAAV?$basic_ostream@DU?$char_traits@D@std@@@0@AAV10@D@Z 0045fb80 f i directory.obj
 0001:0005edd0       ??$writeNetworkValue@H@@YAAAV?$basic_ostream@DU?$char_traits@D@std@@@std@@AAV01@H@Z 0045fdd0 f i directory.obj
 0001:0005edf0       ??$readNetworkValue@H@@YAAAV?$basic_istream@DU?$char_traits@D@std@@@std@@AAV01@AAH@Z 0045fdf0 f i directory.obj
 0001:0005ee00       ??$readNetworkValue@M@@YAAAV?$basic_istream@DU?$char_traits@D@std@@@std@@AAV01@AAM@Z 0045fe00 f i directory.obj
 0001:0005ee10       ??$readNetworkValue@N@@YAAAV?$basic_istream@DU?$char_traits@D@std@@@std@@AAV01@AAN@Z 0045fe10 f i directory.obj
 0001:0005ee20       ??$writeNetworkValue@M@@YAAAV?$basic_ostream@DU?$char_traits@D@std@@@std@@AAV01@M@Z 0045fe20 f i directory.obj
 0001:0005ee40       ??$writeNetworkValue@N@@YAAAV?$basic_ostream@DU?$char_traits@D@std@@@std@@AAV01@N@Z 0045fe40 f i directory.obj
 0001:0005ee60       ??$addressof@V?$basic_stringbuf@DU?$char_traits@D@std@@V?$allocator@D@2@@std@@@std@@YAPAV?$basic_stringbuf@DU?$char_traits@D@std@@V?$allocator@D@2@@0@AAV10@@Z 0045fe60 f i directory.obj
 0001:0005ee70       ??$max@PAD@std@@YAABQADABQAD0@Z 0045fe70 f i directory.obj
 0001:0005ee80       ??$addressof@D@std@@YAPADAAD@Z 0045fe80 f i directory.obj
 0001:0005ee90       ??$?0ABV?$allocator@D@std@@$$V@?$_Compressed_pair@V?$allocator@D@std@@V?$_String_val@U?$_Simple_types@D@std@@@2@$00@std@@QAE@U_One_then_variadic_args_t@1@ABV?$allocator@D@1@@Z 0045fe90 f i directory.obj
 0001:0005eeb0       ?Grow@?$DArray@PAVDirectory@@@@IAEXXZ 0045feb0 f i directory.obj
 0001:0005eee0       ?Empty@?$DArray@PAVDirectory@@@@QAEXXZ 0045fee0 f i directory.obj
 0001:0005ef10       ?Grow@?$DArray@PAVDirectoryData@@@@IAEXXZ 0045ff10 f i directory.obj
 0001:0005ef40       ?Empty@?$DArray@PAVDirectoryData@@@@QAEXXZ 0045ff40 f i directory.obj
 0001:0005ef70       ?GetItem@?$LList@PAVDirectory@@@@IBEPAV?$LListItem@PAVDirectory@@@@H@Z 0045ff70 f i directory.obj
 0001:0005f020       ??$forward@ABV?$allocator@D@std@@@std@@YAABV?$allocator@D@0@ABV10@@Z 00460020 f i directory.obj
 0001:0005f030       ?SetSize@?$DArray@PAVDirectory@@@@QAEXH@Z 00460030 f i directory.obj
 0001:0005f150       ?SetSize@?$DArray@PAVDirectoryData@@@@QAEXH@Z 00460150 f i directory.obj
 0001:0005f270       ?ValidIndex@?$LList@PAVDirectory@@@@QBE_NH@Z 00460270 f i directory.obj
 0001:0005f28b       ??_E?$basic_ostream@DU?$char_traits@D@std@@@std@@$4PPPPPPPM@A@AEPAXI@Z 0046028b f i directory.obj
 0001:0005f293       ??_E?$basic_ostringstream@DU?$char_traits@D@std@@V?$allocator@D@2@@std@@$4PPPPPPPM@A@AEPAXI@Z 00460293 f i directory.obj
 0001:0005f29b       ??_E?$basic_istringstream@DU?$char_traits@D@std@@V?$allocator@D@2@@std@@$4PPPPPPPM@A@AEPAXI@Z 0046029b f i directory.obj
 0001:0005f2b0       ??0App@@QAE@XZ             004602b0 f   app.obj
 0001:0005f360       ??1App@@QAE@XZ             00460360 f   app.obj
 0001:0005f560       ??_GClientToServer@@QAEPAXI@Z 00460560 f i app.obj
 0001:0005f580       ??_GGame@@QAEPAXI@Z        00460580 f i app.obj
 0001:0005f5a0       ??_GEarthData@@QAEPAXI@Z   004605a0 f i app.obj
 0001:0005f5c0       ??_GInterface@@QAEPAXI@Z   004605c0 f i app.obj
 0001:0005f5e0       ??_GLobbyRenderer@@QAEPAXI@Z 004605e0 f i app.obj
 0001:0005f600       ??_GMapRenderer@@QAEPAXI@Z 00460600 f i app.obj
 0001:0005f620       ??_GServer@@QAEPAXI@Z      00460620 f i app.obj
 0001:0005f640       ??_GTutorial@@QAEPAXI@Z    00460640 f i app.obj
 0001:0005f660       ??_GLanguageTable@@QAEPAXI@Z 00460660 f i app.obj
 0001:0005f680       ??_GPreferences@@QAEPAXI@Z 00460680 f i app.obj
 0001:0005f6a0       ??_GFileSystem@@QAEPAXI@Z  004606a0 f i app.obj
 0001:0005f6c0       ??_GResource@@QAEPAXI@Z    004606c0 f i app.obj
 0001:0005f700       ??_GSoundSystem@@QAEPAXI@Z 00460700 f i app.obj
 0001:0005f720       ??1Tutorial@@QAE@XZ        00460720 f i app.obj
 0001:0005f730       ??1Resource@@QAE@XZ        00460730 f i app.obj
 0001:0005f760       ?InitMetaServer@App@@QAEXXZ 00460760 f   app.obj
 0001:0005f930       ?MinimalInit@App@@QAEXXZ   00460930 f   app.obj
 0001:0005fc60       ?FinishInit@App@@QAEXXZ    00460c60 f   app.obj
 0001:0005fd40       ??0DefconSoundInterface@@QAE@XZ 00460d40 f i app.obj
 0001:0005fd50       ??0SoundSystemInterface@@QAE@XZ 00460d50 f i app.obj
 0001:0005fd60       ?NotifyStartupErrors@App@@QAEXXZ 00460d60 f   app.obj
 0001:0005fef0       ?InitFonts@App@@QAEXXZ     00460ef0 f   app.obj
 0001:0005ff30       ?ParseCommandLine@App@@AAEXXZ 00460f30 f   app.obj
 0001:000602b0       ?InitialiseWindow@App@@QAEXXZ 004612b0 f   app.obj
 0001:000606c0       ?ReinitialiseWindow@App@@QAEXXZ 004616c0 f   app.obj
 0001:00060770       ?Update@App@@QAEXXZ        00461770 f   app.obj
 0001:000607e0       ?Render@App@@QAEXXZ        004617e0 f   app.obj
 0001:00060900       ?Shutdown@App@@QAEXXZ      00461900 f   app.obj
 0001:000609b0       ??_GNetLib@@QAEPAXI@Z      004619b0 f i app.obj
 0001:000609d0       ?StartGame@App@@QAEXXZ     004619d0 f   app.obj
 0001:00060da0       ?StartTutorial@App@@QAEXH@Z 00461da0 f   app.obj
 0001:00060e10       ?InitServer@App@@QAE_NXZ   00461e10 f   app.obj
 0001:000615f0       ?ShutdownCurrentGame@App@@QAEXXZ 004625f0 f   app.obj
 0001:000617c0       ??_GWorld@@QAEPAXI@Z       004627c0 f i app.obj
 0001:000617e0       ?InitWorld@App@@QAEXXZ     004627e0 f   app.obj
 0001:00061860       ?GetMapRenderer@App@@QAEPAVMapRenderer@@XZ 00462860 f   app.obj
 0001:00061890       ?GetLobbyRenderer@App@@QAEPAVLobbyRenderer@@XZ 00462890 f   app.obj
 0001:000618c0       ?GetInterface@App@@QAEPAVInterface@@XZ 004628c0 f   app.obj
 0001:000618f0       ?GetClientToServer@App@@QAEPAVClientToServer@@XZ 004628f0 f   app.obj
 0001:00061920       ?GetServer@App@@QAEPAVServer@@XZ 00462920 f   app.obj
 0001:00061930       ?GetWorld@App@@QAEPAVWorld@@XZ 00462930 f   app.obj
 0001:00061960       ?GetEarthData@App@@QAEPAVEarthData@@XZ 00462960 f   app.obj
 0001:00061990       ?GetGame@App@@QAEPAVGame@@XZ 00462990 f   app.obj
 0001:000619c0       ?GetStatusIcon@App@@QAEPAVStatusIcon@@XZ 004629c0 f   app.obj
 0001:000619d0       ?GetTutorial@App@@QAEPAVTutorial@@XZ 004629d0 f   app.obj
 0001:000619e0       ?GetPrefsPath@App@@SAPBDXZ 004629e0 f   app.obj
 0001:00061b90       ?GetAuthKeyPath@App@@SAPBDXZ 00462b90 f   app.obj
 0001:00061d20       ?GetGameHistoryPath@App@@SAPBDXZ 00462d20 f   app.obj
 0001:00061ea0       ?GetLogDirectoryPath@App@@SAPBDXZ 00462ea0 f   app.obj
 0001:00061f50       ?HideWindow@App@@QAEXXZ    00462f50 f   app.obj
 0001:00061f90       ?InitStatusIcon@App@@QAEXXZ 00462f90 f   app.obj
 0001:00061fb0       ?MousePointerIsVisible@App@@QAE_NXZ 00462fb0 f   app.obj
 0001:00061fc0       ?SetMousePointerVisible@App@@QAEX_N@Z 00462fc0 f   app.obj
 0001:00061fd0       ?SaveGameName@App@@QAEXXZ  00462fd0 f   app.obj
 0001:00062150       ?RestartAmbienceMusic@App@@QAEXXZ 00463150 f   app.obj
 0001:00062180       ?GetReplayFilename@App@@QBEPBDXZ 00463180 f   app.obj
 0001:00062190       ?HasReplayFilename@App@@QBE_NXZ 00463190 f   app.obj
 0001:000621b0       ??4?$basic_string@DU?$char_traits@D@std@@V?$allocator@D@2@@std@@QAEAAV01@ABV01@@Z 004631b0 f i app.obj
 0001:000621e0       ??A?$LList@PAVGameOption@@@@QAEPAVGameOption@@H@Z 004631e0 f i app.obj
 0001:00062200       ??1?$DArray@PAVTutorialChapter@@@@QAE@XZ 00463200 f i app.obj
 0001:00062210       ??A?$BoundedArray@_N@@QAEAA_NI@Z 00463210 f i app.obj
 0001:00062240       ?Size@?$LList@PAVTeam@@@@QBEHXZ 00463240 f i app.obj
 0001:00062250       ??A?$LList@PAVTeam@@@@QAEPAVTeam@@H@Z 00463250 f i app.obj
 0001:00062270       ??$?HDU?$char_traits@D@std@@V?$allocator@D@1@@std@@YA?AV?$basic_string@DU?$char_traits@D@std@@V?$allocator@D@2@@0@$$QAV10@QBD@Z 00463270 f i app.obj
 0001:000622d0       ??$addressof@$$CBV?$basic_string@DU?$char_traits@D@std@@V?$allocator@D@2@@std@@@std@@YAPBV?$basic_string@DU?$char_traits@D@std@@V?$allocator@D@2@@0@ABV10@@Z 004632d0 f i app.obj
 0001:000622e0       ??$_Pocca@V?$allocator@D@std@@@std@@YAXAAV?$allocator@D@0@ABV10@@Z 004632e0 f i app.obj
 0001:000622f0       ?GetData@?$LList@PAVGameOption@@@@QBEPAVGameOption@@H@Z 004632f0 f i app.obj
 0001:00062310       ?Empty@?$DArray@PAVTutorialChapter@@@@QAEXXZ 00463310 f i app.obj
 0001:00062340       ?GetData@?$LList@PAVTeam@@@@QBEPAVTeam@@H@Z 00463340 f i app.obj
 0001:00062360       ?GetItem@?$LList@PAVGameOption@@@@IBEPAV?$LListItem@PAVGameOption@@@@H@Z 00463360 f i app.obj
 0001:00062410       ?GetItem@?$LList@PAVTeam@@@@IBEPAV?$LListItem@PAVTeam@@@@H@Z 00463410 f i app.obj
 0001:000624c0       ?ValidIndex@?$LList@PAVGameOption@@@@QBE_NH@Z 004634c0 f i app.obj
 0001:000624e0       ?ValidIndex@?$LList@PAVTeam@@@@QBE_NH@Z 004634e0 f i app.obj
 0001:00062500       ?sqrt@@YA?AVFixed@@ABV1@@Z 00463500 f i defcon_soundinterface.obj
 0001:00062600       ?ListObjectTypes@DefconSoundInterface@@UAE_NPAV?$LList@PAD@@@Z 00463600 f   defcon_soundinterface.obj
 0001:000626c0       ?ListObjectEvents@DefconSoundInterface@@UAE_NPAV?$LList@PAD@@PAD@Z 004636c0 f   defcon_soundinterface.obj
 0001:000628b0       ?DoesObjectExist@DefconSoundInterface@@UAE_NVSoundObjectId@@@Z 004638b0 f   defcon_soundinterface.obj
 0001:000628e0       ?GetObjectType@DefconSoundInterface@@UAEPADVSoundObjectId@@@Z 004638e0 f   defcon_soundinterface.obj
 0001:00062930       ?GetObjectPosition@DefconSoundInterface@@UAE_NVSoundObjectId@@AAV?$Vector3@M@@1@Z 00463930 f   defcon_soundinterface.obj
 0001:000629b0       ?GetCameraPosition@DefconSoundInterface@@UAE_NAAV?$Vector3@M@@000@Z 004639b0 f   defcon_soundinterface.obj
 0001:00062a50       ?ListProperties@DefconSoundInterface@@UAE_NPAV?$LList@PAD@@@Z 00463a50 f   defcon_soundinterface.obj
 0001:00062ae0       ?GetPropertyRange@DefconSoundInterface@@UAE_NPBDPAM1@Z 00463ae0 f   defcon_soundinterface.obj
 0001:00062bc0       ?GetPropertyValue@DefconSoundInterface@@UAEMPBDVSoundObjectId@@@Z 00463bc0 f   defcon_soundinterface.obj
 0001:00063090       ?Mag@?$Vector3@VFixed@@@@QBE?AVFixed@@XZ 00464090 f i defcon_soundinterface.obj
 0001:00063100       ?MagSquared@?$Vector3@VFixed@@@@QBE?AVFixed@@XZ 00464100 f i defcon_soundinterface.obj
 0001:00063160       ?Size@?$DArray@PAVExplosion@@@@QBEHXZ 00464160 f i defcon_soundinterface.obj
 0001:00063170       ?ValidIndex@?$DArray@PAVExplosion@@@@QBE_NH@Z 00464170 f i defcon_soundinterface.obj
 0001:000631a0       ??A?$DArray@PAVExplosion@@@@QAEAAPAVExplosion@@H@Z 004641a0 f i defcon_soundinterface.obj
 0001:00063200       ??ZFixed@@QAEAAV0@ABV0@@Z  00464200 f i game.obj
 0001:00063230       ??NFixed@@QBE_NABV0@@Z     00464230 f i game.obj
 0001:00063250       ??0Game@@QAE@XZ            00464250 f   game.obj
 0001:00063530       ??0GameOption@@QAE@XZ      00464530 f i game.obj
 0001:00063540       ??1Game@@QAE@XZ            00464540 f   game.obj
 0001:00063570       ?ResetOptions@Game@@QAEXXZ 00464570 f   game.obj
 0001:000635b0       ?GetOption@Game@@QAEPAVGameOption@@PAD@Z 004645b0 f   game.obj
 0001:00063630       ?GetOptionIndex@Game@@QAEHPAD@Z 00464630 f   game.obj
 0001:000636a0       ?GetOptionValue@Game@@QAEHPAD@Z 004646a0 f   game.obj
 0001:000636c0       ?SetOptionValue@Game@@QAEXPADH@Z 004646c0 f   game.obj
 0001:000636e0       ?SetGameMode@Game@@QAEXH@Z 004646e0 f   game.obj
 0001:00063940       ?IsOptionEditable@Game@@QAE_NH@Z 00464940 f   game.obj
 0001:00063ba0       ?CountNukes@Game@@IAEXXZ   00464ba0 f   game.obj
 0001:000640e0       ?CalculateScores@Game@@IAEXXZ 004650e0 f   game.obj
 0001:000642a0       ?Update@Game@@QAEXXZ       004652a0 f   game.obj
 0001:00064cf0       ?GetScore@Game@@QAEHH@Z    00465cf0 f   game.obj
 0001:00064d20       ??1GameOption@@QAE@XZ      00465d20 f   game.obj
 0001:00064d40       ?Copy@GameOption@@QAEXPAV1@@Z 00465d40 f   game.obj
 0001:00064e00       ?TranslateValue@GameOption@@SAPBDPBD@Z 00465e00 f   game.obj
 0001:00064eb0       ??0?$LList@PAVGameOption@@@@QAE@XZ 00465eb0 f i game.obj
 0001:00064ee0       ??1?$LList@PAVGameOption@@@@QAE@XZ 00465ee0 f i game.obj
 0001:00064ef0       ?PutData@?$LList@PAVGameOption@@@@QAEXABQAVGameOption@@@Z 00465ef0 f i game.obj
 0001:00064f00       ?Size@?$LList@PAVGameOption@@@@QBEHXZ 00465f00 f i game.obj
 0001:00064f10       ?EmptyAndDelete@?$LList@PAVGameOption@@@@QAEXXZ 00465f10 f i game.obj
 0001:00064fd0       ??0?$BoundedArray@H@@QAE@XZ 00465fd0 f i game.obj
 0001:00064fe0       ??1?$BoundedArray@H@@QAE@XZ 00465fe0 f i game.obj
 0001:00064ff0       ?Initialise@?$BoundedArray@H@@QAEXI@Z 00465ff0 f i game.obj
 0001:00065020       ??A?$BoundedArray@H@@QAEAAHI@Z 00466020 f i game.obj
 0001:00065050       ??A?$LList@PAVWorldObjectState@@@@QAEPAVWorldObjectState@@H@Z 00466050 f i game.obj
 0001:00065070       ?Size@?$DArray@PAVWorldObject@@@@QBEHXZ 00466070 f i game.obj
 0001:00065080       ?ValidIndex@?$DArray@PAVWorldObject@@@@QBE_NH@Z 00466080 f i game.obj
 0001:000650b0       ??A?$DArray@PAVWorldObject@@@@QAEAAPAVWorldObject@@H@Z 004660b0 f i game.obj
 0001:00065110       ?Size@?$LList@PAVSpectator@@@@QBEHXZ 00466110 f i game.obj
 0001:00065120       ??_GGameOption@@QAEPAXI@Z  00466120 f i game.obj
 0001:00065140       ?PutDataAtEnd@?$LList@PAVGameOption@@@@QAEXABQAVGameOption@@@Z 00466140 f i game.obj
 0001:000651a0       ?RemoveData@?$LList@PAVGameOption@@@@QAEXH@Z 004661a0 f i game.obj
 0001:00065230       ?Empty@?$LList@PAVGameOption@@@@QAEXXZ 00466230 f i game.obj
 0001:00065280       ?Empty@?$BoundedArray@H@@QAEXXZ 00466280 f i game.obj
 0001:000652a0       ?GetData@?$LList@PAVWorldObjectState@@@@QBEPAVWorldObjectState@@H@Z 004662a0 f i game.obj
 0001:000652c0       ??_G?$LListItem@PAVGameOption@@@@QAEPAXI@Z 004662c0 f i game.obj
 0001:000652e0       ??0?$LListItem@PAVGameOption@@@@QAE@XZ 004662e0 f i game.obj
 0001:00065300       ??1?$LListItem@PAVGameOption@@@@QAE@XZ 00466300 f i game.obj
 0001:00065310       ?GetItem@?$LList@PAVWorldObjectState@@@@IBEPAV?$LListItem@PAVWorldObjectState@@@@H@Z 00466310 f i game.obj
 0001:000653c0       ?ValidIndex@?$LList@PAVWorldObjectState@@@@QBE_NH@Z 004663c0 f i game.obj
 0001:000653e0       ??0GameHistory@@QAE@XZ     004663e0 f   game_history.obj
 0001:00065430       ??1GameHistory@@QAE@XZ     00466430 f   game_history.obj
 0001:00065440       ?JoinedGame@GameHistory@@QAEXPADHPBD@Z 00466440 f   game_history.obj
 0001:00065650       ?HasJoinedGame@GameHistory@@QAEHPADH@Z 00466650 f   game_history.obj
 0001:00065730       ?Save@GameHistory@@QAEXXZ  00466730 f   game_history.obj
 0001:000657a0       ?Load@GameHistory@@QAEXXZ  004667a0 f   game_history.obj
 0001:00065910       ??0?$LList@PAUGameHistoryServer@@@@QAE@XZ 00466910 f i game_history.obj
 0001:00065950       ??1?$LList@PAUGameHistoryServer@@@@QAE@XZ 00466950 f i game_history.obj
 0001:00065960       ?PutData@?$LList@PAUGameHistoryServer@@@@QAEXABQAUGameHistoryServer@@@Z 00466960 f i game_history.obj
 0001:00065970       ?PutDataAtStart@?$LList@PAUGameHistoryServer@@@@QAEXABQAUGameHistoryServer@@@Z 00466970 f i game_history.obj
 0001:00065a00       ?RemoveData@?$LList@PAUGameHistoryServer@@@@QAEXH@Z 00466a00 f i game_history.obj
 0001:00065ac0       ?Size@?$LList@PAUGameHistoryServer@@@@QBEHXZ 00466ac0 f i game_history.obj
 0001:00065ad0       ?ValidIndex@?$LList@PAUGameHistoryServer@@@@QBE_NH@Z 00466ad0 f i game_history.obj
 0001:00065af0       ?EmptyAndDelete@?$LList@PAUGameHistoryServer@@@@QAEXXZ 00466af0 f i game_history.obj
 0001:00065bd0       ??A?$LList@PAUGameHistoryServer@@@@QAEPAUGameHistoryServer@@H@Z 00466bd0 f i game_history.obj
 0001:00065bf0       ??$Clamp@H@@YAXAAHHH@Z     00466bf0 f i game_history.obj
 0001:00065c10       ??_G?$LListItem@PAUGameHistoryServer@@@@QAEPAXI@Z 00466c10 f i game_history.obj
 0001:00065c30       ?GetItem@?$LList@PAUGameHistoryServer@@@@IBEPAV?$LListItem@PAUGameHistoryServer@@@@H@Z 00466c30 f i game_history.obj
 0001:00065ce0       ?PutDataAtEnd@?$LList@PAUGameHistoryServer@@@@QAEXABQAUGameHistoryServer@@@Z 00466ce0 f i game_history.obj
 0001:00065d50       ?GetData@?$LList@PAUGameHistoryServer@@@@QBEPAUGameHistoryServer@@H@Z 00466d50 f i game_history.obj
 0001:00065d70       ?Empty@?$LList@PAUGameHistoryServer@@@@QAEXXZ 00466d70 f i game_history.obj
 0001:00065dc0       ??0?$LListItem@PAUGameHistoryServer@@@@QAE@XZ 00466dc0 f i game_history.obj
 0001:00065de0       ??1?$LListItem@PAUGameHistoryServer@@@@QAE@XZ 00466de0 f i game_history.obj
 0001:00065df0       ??0ModSystem@@QAE@XZ       00466df0 f   modsystem.obj
 0001:00065e50       ??1ModSystem@@QAE@XZ       00466e50 f   modsystem.obj
 0001:00065e70       ?Initialise@ModSystem@@QAEXXZ 00466e70 f   modsystem.obj
 0001:00065f30       ?LoadInstalledMods@ModSystem@@QAEXXZ 00466f30 f   modsystem.obj
 0001:000660a0       ?ParseModPath@ModSystem@@QAEPAV?$LList@PAD@@PAD@Z 004670a0 f   modsystem.obj
 0001:00066110       ?SetModPath@ModSystem@@QAEXPBD@Z 00467110 f   modsystem.obj
 0001:000661e0       ?GetCriticalModPath@ModSystem@@QAEXPAD@Z 004671e0 f   modsystem.obj
 0001:000662f0       ?IsCriticalModRunning@ModSystem@@QAE_NXZ 004672f0 f   modsystem.obj
 0001:00066340       ?CanSetModPath@ModSystem@@QAE_NPAD@Z 00467340 f   modsystem.obj
 0001:00066420       ?LoadModData@ModSystem@@QAEXPAVInstalledMod@@PAD@Z 00467420 f   modsystem.obj
 0001:000666d0       ?ActivateMod@ModSystem@@QAEXPAD0@Z 004676d0 f   modsystem.obj
 0001:000667b0       ?MoveMod@ModSystem@@QAEXPAD0H@Z 004677b0 f   modsystem.obj
 0001:000668d0       ?DeActivateMod@ModSystem@@QAEXPAD@Z 004678d0 f   modsystem.obj
 0001:000669a0       ?DeActivateAllMods@ModSystem@@QAEXXZ 004679a0 f   modsystem.obj
 0001:000669f0       ?DeActivateAllCriticalMods@ModSystem@@QAEXXZ 004679f0 f   modsystem.obj
 0001:00066a40       ?GetMod@ModSystem@@QAEPAVInstalledMod@@PAD0@Z 00467a40 f   modsystem.obj
 0001:00066af0       ?IsModInstalled@ModSystem@@QAE_NPAD0@Z 00467af0 f   modsystem.obj
 0001:00066b10       ?IsCriticalModPathSet@ModSystem@@QAE_NPAD@Z 00467b10 f   modsystem.obj
 0001:00066d20       ?CommitRequired@ModSystem@@QAE_NXZ 00467d20 f   modsystem.obj
 0001:00066e30       ?Commit@ModSystem@@QAEXXZ  00467e30 f   modsystem.obj
 0001:00067270       ??0InstalledMod@@QAE@XZ    00468270 f   modsystem.obj
 0001:000672f0       ??0?$LList@PAVInstalledMod@@@@QAE@XZ 004682f0 f i modsystem.obj
 0001:00067320       ??1?$LList@PAVInstalledMod@@@@QAE@XZ 00468320 f i modsystem.obj
 0001:00067330       ?PutData@?$LList@PAVInstalledMod@@@@QAEXABQAVInstalledMod@@@Z 00468330 f i modsystem.obj
 0001:00067340       ?PutDataAtEnd@?$LList@PAVInstalledMod@@@@QAEXABQAVInstalledMod@@@Z 00468340 f i modsystem.obj
 0001:000673a0       ?PutDataAtStart@?$LList@PAVInstalledMod@@@@QAEXABQAVInstalledMod@@@Z 004683a0 f i modsystem.obj
 0001:00067410       ?PutDataAtIndex@?$LList@PAVInstalledMod@@@@QAEXABQAVInstalledMod@@H@Z 00468410 f i modsystem.obj
 0001:000674b0       ?RemoveData@?$LList@PAVInstalledMod@@@@QAEXH@Z 004684b0 f i modsystem.obj
 0001:00067570       ?Size@?$LList@PAVInstalledMod@@@@QBEHXZ 00468570 f i modsystem.obj
 0001:00067580       ?ValidIndex@?$LList@PAVInstalledMod@@@@QBE_NH@Z 00468580 f i modsystem.obj
 0001:000675a0       ?EmptyAndDelete@?$LList@PAVInstalledMod@@@@QAEXXZ 004685a0 f i modsystem.obj
 0001:00067680       ??A?$LList@PAVInstalledMod@@@@QAEPAVInstalledMod@@H@Z 00468680 f i modsystem.obj
 0001:000676a0       ??_G?$LListItem@PAVInstalledMod@@@@QAEPAXI@Z 004686a0 f i modsystem.obj
 0001:000676c0       ?GetItem@?$LList@PAVInstalledMod@@@@IBEPAV?$LListItem@PAVInstalledMod@@@@H@Z 004686c0 f i modsystem.obj
 0001:00067770       ?GetData@?$LList@PAVInstalledMod@@@@QBEPAVInstalledMod@@H@Z 00468770 f i modsystem.obj
 0001:00067790       ?Empty@?$LList@PAVInstalledMod@@@@QAEXXZ 00468790 f i modsystem.obj
 0001:000677e0       ??0?$LListItem@PAVInstalledMod@@@@QAE@XZ 004687e0 f i modsystem.obj
 0001:00067800       ??1?$LListItem@PAVInstalledMod@@@@QAE@XZ 00468800 f i modsystem.obj
 0001:00067810       ?Create@StatusIcon@@SAPAV1@XZ 00468810 f   statusicon.obj
 0001:00067840       ??1StatusIcon@@UAE@XZ      00468840 f   statusicon.obj
 0001:00067850       ??_EStatusIcon@@UAEPAXI@Z  00468850 f i * CIL library *:* CIL module *
 0001:00067850       ??_GStatusIcon@@UAEPAXI@Z  00468850 f i statusicon.obj
 0001:00067880       ?_Is_constant_evaluated@std@@YA_NXZ 00468880 f i synctestrecordings.obj
 0001:00067890       ??1?$queue@V?$basic_string@DU?$char_traits@D@std@@V?$allocator@D@2@@std@@V?$deque@V?$basic_string@DU?$char_traits@D@std@@V?$allocator@D@2@@std@@V?$allocator@V?$basic_string@DU?$char_traits@D@std@@V?$allocator@D@2@@std@@@2@@2@@std@@QAE@XZ 00468890 f i synctestrecordings.obj
 0001:000678a0       ??1?$auto_ptr@V?$LList@PAD@@@std@@QAE@XZ 004688a0 f i synctestrecordings.obj
 0001:000678c0       ??1?$deque@V?$basic_string@DU?$char_traits@D@std@@V?$allocator@D@2@@std@@V?$allocator@V?$basic_string@DU?$char_traits@D@std@@V?$allocator@D@2@@std@@@2@@std@@QAE@XZ 004688c0 f i synctestrecordings.obj
 0001:000679c0       ?_Get_data@?$deque@V?$basic_string@DU?$char_traits@D@std@@V?$allocator@D@2@@std@@V?$allocator@V?$basic_string@DU?$char_traits@D@std@@V?$allocator@D@2@@std@@@2@@std@@AAEAAV?$_Deque_val@U?$_Deque_simple_types@V?$basic_string@DU?$char_traits@D@std@@V?$allocator@D@2@@std@@@std@@@2@XZ 004689c0 f i synctestrecordings.obj
 0001:000679d0       ?_Getal@?$deque@V?$basic_string@DU?$char_traits@D@std@@V?$allocator@D@2@@std@@V?$allocator@V?$basic_string@DU?$char_traits@D@std@@V?$allocator@D@2@@std@@@2@@std@@AAEAAV?$allocator@V?$basic_string@DU?$char_traits@D@std@@V?$allocator@D@2@@std@@@2@XZ 004689d0 f i synctestrecordings.obj
 0001:000679e0       ?_Tidy@?$deque@V?$basic_string@DU?$char_traits@D@std@@V?$allocator@D@2@@std@@V?$allocator@V?$basic_string@DU?$char_traits@D@std@@V?$allocator@D@2@@std@@@2@@std@@AAEXXZ 004689e0 f i synctestrecordings.obj
 0001:00067ad0       ?empty@?$deque@V?$basic_string@DU?$char_traits@D@std@@V?$allocator@D@2@@std@@V?$allocator@V?$basic_string@DU?$char_traits@D@std@@V?$allocator@D@2@@std@@@2@@std@@QBE_NXZ 00468ad0 f i synctestrecordings.obj
 0001:00067ae0       ?_Get_first@?$_Compressed_pair@V?$allocator@V?$basic_string@DU?$char_traits@D@std@@V?$allocator@D@2@@std@@@std@@V?$_Deque_val@U?$_Deque_simple_types@V?$basic_string@DU?$char_traits@D@std@@V?$allocator@D@2@@std@@@std@@@2@$00@std@@QAEAAV?$allocator@V?$basic_string@DU?$char_traits@D@std@@V?$allocator@D@2@@std@@@2@XZ 00468ae0 f i synctestrecordings.obj
 0001:00067af0       ?_Mysize@?$deque@V?$basic_string@DU?$char_traits@D@std@@V?$allocator@D@2@@std@@V?$allocator@V?$basic_string@DU?$char_traits@D@std@@V?$allocator@D@2@@std@@@2@@std@@ABEABIXZ 00468af0 f i synctestrecordings.obj
 0001:00067b00       ?_Mysize@?$deque@V?$basic_string@DU?$char_traits@D@std@@V?$allocator@D@2@@std@@V?$allocator@V?$basic_string@DU?$char_traits@D@std@@V?$allocator@D@2@@std@@@2@@std@@AAEAAIXZ 00468b00 f i synctestrecordings.obj
 0001:00067b10       ?_Myoff@?$deque@V?$basic_string@DU?$char_traits@D@std@@V?$allocator@D@2@@std@@V?$allocator@V?$basic_string@DU?$char_traits@D@std@@V?$allocator@D@2@@std@@@2@@std@@AAEAAIXZ 00468b10 f i synctestrecordings.obj
 0001:00067b20       ?_Map@?$deque@V?$basic_string@DU?$char_traits@D@std@@V?$allocator@D@2@@std@@V?$allocator@V?$basic_string@DU?$char_traits@D@std@@V?$allocator@D@2@@std@@@2@@std@@AAEAAPAPAV?$basic_string@DU?$char_traits@D@std@@V?$allocator@D@2@@2@XZ 00468b20 f i synctestrecordings.obj
 0001:00067b30       ?_Orphan_all@?$deque@V?$basic_string@DU?$char_traits@D@std@@V?$allocator@D@2@@std@@V?$allocator@V?$basic_string@DU?$char_traits@D@std@@V?$allocator@D@2@@std@@@2@@std@@AAEXXZ 00468b30 f i synctestrecordings.obj
 0001:00067b40       ?_Reset_map@?$deque@V?$basic_string@DU?$char_traits@D@std@@V?$allocator@D@2@@std@@V?$allocator@V?$basic_string@DU?$char_traits@D@std@@V?$allocator@D@2@@std@@@2@@std@@AAEXXZ 00468b40 f i synctestrecordings.obj
 0001:00067bd0       ?pop_back@?$deque@V?$basic_string@DU?$char_traits@D@std@@V?$allocator@D@2@@std@@V?$allocator@V?$basic_string@DU?$char_traits@D@std@@V?$allocator@D@2@@std@@@2@@std@@QAEXXZ 00468bd0 f i synctestrecordings.obj
 0001:00067c50       ?_Address_subscript@?$_Deque_val@U?$_Deque_simple_types@V?$basic_string@DU?$char_traits@D@std@@V?$allocator@D@2@@std@@@std@@@std@@QAEPAV?$basic_string@DU?$char_traits@D@std@@V?$allocator@D@2@@2@I@Z 00468c50 f i synctestrecordings.obj
 0001:00067c70       ?_Map_distance@?$deque@V?$basic_string@DU?$char_traits@D@std@@V?$allocator@D@2@@std@@V?$allocator@V?$basic_string@DU?$char_traits@D@std@@V?$allocator@D@2@@std@@@2@@std@@ABEHXZ 00468c70 f i synctestrecordings.obj
 0001:00067c80       ?_Mapsize@?$deque@V?$basic_string@DU?$char_traits@D@std@@V?$allocator@D@2@@std@@V?$allocator@V?$basic_string@DU?$char_traits@D@std@@V?$allocator@D@2@@std@@@2@@std@@AAEAAIXZ 00468c80 f i synctestrecordings.obj
 0001:00067c90       ?_Get_data@?$deque@V?$basic_string@DU?$char_traits@D@std@@V?$allocator@D@2@@std@@V?$allocator@V?$basic_string@DU?$char_traits@D@std@@V?$allocator@D@2@@std@@@2@@std@@ABEABV?$_Deque_val@U?$_Deque_simple_types@V?$basic_string@DU?$char_traits@D@std@@V?$allocator@D@2@@std@@@std@@@2@XZ 00468c90 f i synctestrecordings.obj
 0001:00067ca0       ?_Getblock@?$_Deque_val@U?$_Deque_simple_types@V?$basic_string@DU?$char_traits@D@std@@V?$allocator@D@2@@std@@@std@@@std@@QBEHI@Z 00468ca0 f i synctestrecordings.obj
 0001:00067cb0       ?deallocate@?$allocator@PAV?$basic_string@DU?$char_traits@D@std@@V?$allocator@D@2@@std@@@std@@QAEXQAPAV?$basic_string@DU?$char_traits@D@std@@V?$allocator@D@2@@2@I@Z 00468cb0 f i synctestrecordings.obj
 0001:00067cf0       ?deallocate@?$allocator@V?$basic_string@DU?$char_traits@D@std@@V?$allocator@D@2@@std@@@std@@QAEXQAV?$basic_string@DU?$char_traits@D@std@@V?$allocator@D@2@@2@I@Z 00468cf0 f i synctestrecordings.obj
 0001:00067d10       ??$?0V?$basic_string@DU?$char_traits@D@std@@V?$allocator@D@2@@std@@@?$allocator@U_Container_proxy@std@@@std@@QAE@ABV?$allocator@V?$basic_string@DU?$char_traits@D@std@@V?$allocator@D@2@@std@@@1@@Z 00468d10 f i synctestrecordings.obj
 0001:00067d20       ??$destroy@V?$basic_string@DU?$char_traits@D@std@@V?$allocator@D@2@@std@@@?$_Default_allocator_traits@V?$allocator@V?$basic_string@DU?$char_traits@D@std@@V?$allocator@D@2@@std@@@std@@@std@@SAXAAV?$allocator@V?$basic_string@DU?$char_traits@D@std@@V?$allocator@D@2@@std@@@1@QAV?$basic_string@DU?$char_traits@D@std@@V?$allocator@D@2@@1@@Z 00468d20 f i synctestrecordings.obj
 0001:00067d70       ??$_Destroy_in_place@PAV?$basic_string@DU?$char_traits@D@std@@V?$allocator@D@2@@std@@@std@@YAXAAPAV?$basic_string@DU?$char_traits@D@std@@V?$allocator@D@2@@0@@Z 00468d70 f i synctestrecordings.obj
 0001:00067d80       ??$?0V?$basic_string@DU?$char_traits@D@std@@V?$allocator@D@2@@std@@@?$allocator@PAV?$basic_string@DU?$char_traits@D@std@@V?$allocator@D@2@@std@@@std@@QAE@ABV?$allocator@V?$basic_string@DU?$char_traits@D@std@@V?$allocator@D@2@@std@@@1@@Z 00468d80 f i synctestrecordings.obj
 0001:00067d90       ??$_Unfancy@V?$basic_string@DU?$char_traits@D@std@@V?$allocator@D@2@@std@@@std@@YAPAV?$basic_string@DU?$char_traits@D@std@@V?$allocator@D@2@@0@PAV10@@Z 00468d90 f i synctestrecordings.obj
 0001:00067da0       ??_G?$basic_string@DU?$char_traits@D@std@@V?$allocator@D@2@@std@@QAEPAXI@Z 00468da0 f i synctestrecordings.obj
 0001:00067df0       ??$_Destroy_range@PAPAV?$basic_string@DU?$char_traits@D@std@@V?$allocator@D@2@@std@@PAPAV12@@std@@YAXPAPAV?$basic_string@DU?$char_traits@D@std@@V?$allocator@D@2@@0@QAPAV10@@Z 00468df0 f i synctestrecordings.obj
 0001:00067e00       ??1?$_Uninitialized_backout@PAPAV?$basic_string@DU?$char_traits@D@std@@V?$allocator@D@2@@std@@@std@@QAE@XZ 00468e00 f i synctestrecordings.obj
 0001:00067e10       ??0TrayIcon@@QAE@XZ        00468e10 f   trayicon.obj
 0001:00067e40       ??_ETrayIcon@@UAEPAXI@Z    00468e40 f i * CIL library *:* CIL module *
 0001:00067e40       ??_GTrayIcon@@UAEPAXI@Z    00468e40 f i trayicon.obj
 0001:00067e70       ??0StatusIcon@@QAE@XZ      00468e70 f i trayicon.obj
 0001:00067e80       ??1TrayIcon@@UAE@XZ        00468e80 f   trayicon.obj
 0001:00067ea0       ?SetSubIcon@TrayIcon@@UAEXPBD@Z 00468ea0 f   trayicon.obj
 0001:00067ec0       ?SetIcon@TrayIcon@@UAEXPBD@Z 00468ec0 f   trayicon.obj
 0001:00067ee0       ?SetCaption@TrayIcon@@UAEXPBD@Z 00468ee0 f   trayicon.obj
 0001:00067f70       ?Update@TrayIcon@@UAEXXZ   00468f70 f   trayicon.obj
 0001:00068060       ?RemoveIcon@TrayIcon@@UAEXXZ 00469060 f   trayicon.obj
 0001:00068090       ?EventHandler@TrayIcon@@SAJIJ_J@Z 00469090 f   trayicon.obj
 0001:00068110       ??0TutorialChapter@@QAE@XZ 00469110 f i tutorial.obj
 0001:00068140       ??0Tutorial@@QAE@H@Z       00469140 f   tutorial.obj
 0001:00068490       ?GetChapterId@Tutorial@@QAEHPAD@Z 00469490 f   tutorial.obj
 0001:000684f0       ?GetCurrentChapter@Tutorial@@QAEHXZ 004694f0 f   tutorial.obj
 0001:00068500       ?InChapter@Tutorial@@QAE_NPAD@Z 00469500 f   tutorial.obj
 0001:00068550       ?StartTutorial@Tutorial@@QAEXXZ 00469550 f   tutorial.obj
 0001:00068560       ?RunNextChapter@Tutorial@@IAEXMH@Z 00469560 f   tutorial.obj
 0001:000685b0       ?Update@Tutorial@@QAEXXZ   004695b0 f   tutorial.obj
 0001:00068620       ?GetCurrentMessage@Tutorial@@QAEPBDXZ 00469620 f   tutorial.obj
 0001:00068660       ?GetMessageTimer@Tutorial@@QAEMXZ 00469660 f   tutorial.obj
 0001:00068680       ?IsNextClickable@Tutorial@@QAE_NXZ 00469680 f   tutorial.obj
 0001:000686b0       ?IsRestartClickable@Tutorial@@QAE_NXZ 004696b0 f   tutorial.obj
 0001:000686e0       ?ClickNext@Tutorial@@QAEXXZ 004696e0 f   tutorial.obj
 0001:000686f0       ?ClickRestart@Tutorial@@QAEXXZ 004696f0 f   tutorial.obj
 0001:00068710       ?SetObjectHighlight@Tutorial@@IAEXH@Z 00469710 f   tutorial.obj
 0001:00068720       ?GetObjectHighlight@Tutorial@@QAEHXZ 00469720 f   tutorial.obj
 0001:00068730       ?GetButtonHighlight@Tutorial@@QAEHPAD0@Z 00469730 f   tutorial.obj
 0001:000687b0       ?SetCurrentLevelName@Tutorial@@QAEXPAD@Z 004697b0 f   tutorial.obj
 0001:000687e0       ?GetCurrentLevelName@Tutorial@@QAEPBDXZ 004697e0 f   tutorial.obj
 0001:00068800       ??0?$DArray@PAVTutorialChapter@@@@QAE@XZ 00469800 f i tutorial.obj
 0001:00068820       ?PutData@?$DArray@PAVTutorialChapter@@@@QAEHABQAVTutorialChapter@@@Z 00469820 f i tutorial.obj
 0001:00068870       ?Size@?$DArray@PAVTutorialChapter@@@@QBEHXZ 00469870 f i tutorial.obj
 0001:00068880       ?ValidIndex@?$DArray@PAVTutorialChapter@@@@QBE_NH@Z 00469880 f i tutorial.obj
 0001:000688b0       ??A?$DArray@PAVTutorialChapter@@@@QAEAAPAVTutorialChapter@@H@Z 004698b0 f i tutorial.obj
 0001:00068910       ?Grow@?$DArray@PAVTutorialChapter@@@@IAEXXZ 00469910 f i tutorial.obj
 0001:00068940       ?SetSize@?$DArray@PAVTutorialChapter@@@@QAEXH@Z 00469940 f i tutorial.obj
 0001:00068a60       ?atan@@YAMM@Z              00469a60 f i tutorial_defcon.obj
 0001:00068a70       ?round@@YAMM@Z             00469a70 f i tutorial_defcon.obj
 0001:00068aa0       ??0ActionOrder@@QAE@XZ     00469aa0 f i tutorial_defcon.obj
 0001:00068ae0       ??1MultiLineText@@QAE@XZ   00469ae0 f i tutorial_defcon.obj
 0001:00068b10       ??AMultiLineText@@QAEPADI@Z 00469b10 f i tutorial_defcon.obj
 0001:00068b30       ?Size@MultiLineText@@QAEIXZ 00469b30 f i tutorial_defcon.obj
 0001:00068b40       ?Render@ClickNextPopup@@EAEX_N@Z 00469b40 f i tutorial_defcon.obj
 0001:00068b70       ?Render@Mission1SiloPopup@@EAEX_N@Z 00469b70 f i tutorial_defcon.obj
 0001:00068bc0       ?Render@Mission1SiloSelectPopup@@EAEX_N@Z 00469bc0 f i tutorial_defcon.obj
 0001:00068cf0       ?Render@Mission1Deselect@@EAEX_N@Z 00469cf0 f i tutorial_defcon.obj
 0001:00068e00       ?Render@Mission1RadarTarget@@EAEX_N@Z 00469e00 f i tutorial_defcon.obj
 0001:00068ec0       ?Render@UnitPanelPopup@@UAEX_N@Z 00469ec0 f i tutorial_defcon.obj
 0001:00069020       ?Render@SelectSiloPopup@@UAEX_N@Z 0046a020 f i tutorial_defcon.obj
 0001:000690a0       ?Render@PlaceSilosPopup@@UAEX_N@Z 0046a0a0 f i tutorial_defcon.obj
 0001:000690d0       ?Render@SelectRadarPopup@@EAEX_N@Z 0046a0d0 f i tutorial_defcon.obj
 0001:00069150       ?Render@PlaceRadarPopup@@EAEX_N@Z 0046a150 f i tutorial_defcon.obj
 0001:000691c0       ?Render@Mission3SelectSilosPopup@@EAEX_N@Z 0046a1c0 f i tutorial_defcon.obj
 0001:00069260       ?Render@Mission3PlaceSilosPopup@@EAEX_N@Z 0046a260 f i tutorial_defcon.obj
 0001:000692d0       ?Render@AccelTimePopup@@EAEX_N@Z 0046a2d0 f i tutorial_defcon.obj
 0001:000693b0       ?Render@SilosIntoNukeModePopup@@EAEX_N@Z 0046a3b0 f i tutorial_defcon.obj
 0001:00069590       ?Render@NukeEnemySiloPopup@@EAEX_N@Z 0046a590 f i tutorial_defcon.obj
 0001:00069650       ?Render@NukeEnemyAirBasePopup@@EAEX_N@Z 0046a650 f i tutorial_defcon.obj
 0001:00069780       ?Render@NukeEnemyCitiesPopup@@EAEX_N@Z 0046a780 f i tutorial_defcon.obj
 0001:00069910       ?Render@SelectAirBasePopup@@EAEX_N@Z 0046a910 f i tutorial_defcon.obj
 0001:00069990       ?Render@PlaceAirBasePopup@@EAEX_N@Z 0046a990 f i tutorial_defcon.obj
 0001:00069a00       ?Render@ClickOnAirbasePopup@@EAEX_N@Z 0046aa00 f i tutorial_defcon.obj
 0001:00069cd0       ?Render@ScoutFightersHerePopup@@EAEX_N@Z 0046acd0 f i tutorial_defcon.obj
 0001:00069e80       ?Render@ToggleRadarPopup@@EAEX_N@Z 0046ae80 f i tutorial_defcon.obj
 0001:00069eb0       ?Render@SwitchToBomberModePopup@@EAEX_N@Z 0046aeb0 f i tutorial_defcon.obj
 0001:0006a080       ?Render@ClickOnAirbaseBomberPopup@@EAEX_N@Z 0046b080 f i tutorial_defcon.obj
 0001:0006a3d0       ?Render@NukeEnemyBuildingPopup@@EAEX_N@Z 0046b3d0 f i tutorial_defcon.obj
 0001:0006a4b0       ?Render@SelectFleetPopup@@EAEX_N@Z 0046b4b0 f i tutorial_defcon.obj
 0001:0006a580       ?Render@AddShipToFleetPopup@@UAEX_N@Z 0046b580 f i tutorial_defcon.obj
 0001:0006a610       ?Render@DeployFleetPopup@@UAEX_N@Z 0046b610 f i tutorial_defcon.obj
 0001:0006a640       ?Render@SelectDeployedFleetPopup@@EAEX_N@Z 0046b640 f i tutorial_defcon.obj
 0001:0006a780       ?Render@MoveFleetSouthPopup@@EAEX_N@Z 0046b780 f i tutorial_defcon.obj
 0001:0006a7d0       ?Render@DestroyEnemyFleetPopup@@UAEX_N@Z 0046b7d0 f i tutorial_defcon.obj
 0001:0006a8c0       ?Render@ToggleOrdersPopup@@EAEX_N@Z 0046b8c0 f i tutorial_defcon.obj
 0001:0006a8f0       ?Render@Mission6UnitPanelPopup@@EAEX_N@Z 0046b8f0 f i tutorial_defcon.obj
 0001:0006aa60       ?Render@DeployCarriersPopup@@EAEX_N@Z 0046ba60 f i tutorial_defcon.obj
 0001:0006aaa0       ?Render@AddSubToFleetPopup@@EAEX_N@Z 0046baa0 f i tutorial_defcon.obj
 0001:0006ab40       ?Render@DeploySubsPopup@@EAEX_N@Z 0046bb40 f i tutorial_defcon.obj
 0001:0006ab80       ?Render@SelectSubsPopup@@EAEX_N@Z 0046bb80 f i tutorial_defcon.obj
 0001:0006acc0       ?Render@MoveSubsToChinaPopup@@EAEX_N@Z 0046bcc0 f i tutorial_defcon.obj
 0001:0006ad20       ?Render@SwitchToDepthChargeModePopup@@EAEX_N@Z 0046bd20 f i tutorial_defcon.obj
 0001:0006af00       ?Render@DestroyEnemySubsPopup@@UAEX_N@Z 0046bf00 f i tutorial_defcon.obj
 0001:0006b020       ?Render@SwitchSubsToNukeModePopup@@EAEX_N@Z 0046c020 f i tutorial_defcon.obj
 0001:0006b150       ?Render@SubNukeEnemySiloPopup@@EAEX_N@Z 0046c150 f i tutorial_defcon.obj
 0001:0006b1e0       ?Render@ShowTerritoryPopup@@EAEX_N@Z 0046c1e0 f i tutorial_defcon.obj
 0001:0006b210       ?Render@Mission7PlacementPopup@@UAEX_N@Z 0046c210 f i tutorial_defcon.obj
 0001:0006b3c0       ?Render@PlaceFleetsInPacificPopup@@EAEX_N@Z 0046c3c0 f i tutorial_defcon.obj
 0001:0006b400       ?Render@Misssion7FleetsToChinaPopup@@EAEX_N@Z 0046c400 f i tutorial_defcon.obj
 0001:0006b660       ?Render@Mission7ScoutChinaPopup@@EAEX_N@Z 0046c660 f i tutorial_defcon.obj
 0001:0006b8a0       ?Render@Mission7EnemySubsPopup@@EAEX_N@Z 0046c8a0 f i tutorial_defcon.obj
 0001:0006b960       ?InitialiseWorld@Tutorial@@IAEXXZ 0046c960 f   tutorial_defcon.obj
 0001:0006bb70       ?SetupCurrentChapter@Tutorial@@IAEXXZ 0046cb70 f   tutorial_defcon.obj
 0001:0006f670       ??0ClickNextPopup@@QAE@XZ  00470670 f i tutorial_defcon.obj
 0001:0006f690       ??0Mission1SiloPopup@@QAE@XZ 00470690 f i tutorial_defcon.obj
 0001:0006f6b0       ??0Mission1SiloSelectPopup@@QAE@XZ 004706b0 f i tutorial_defcon.obj
 0001:0006f6d0       ??0Mission1Deselect@@QAE@XZ 004706d0 f i tutorial_defcon.obj
 0001:0006f6f0       ??0Mission1RadarTarget@@QAE@XZ 004706f0 f i tutorial_defcon.obj
 0001:0006f710       ??0UnitPanelPopup@@QAE@XZ  00470710 f i tutorial_defcon.obj
 0001:0006f730       ??0SelectSiloPopup@@QAE@XZ 00470730 f i tutorial_defcon.obj
 0001:0006f750       ??0PlaceSilosPopup@@QAE@XZ 00470750 f i tutorial_defcon.obj
 0001:0006f770       ??0SelectRadarPopup@@QAE@XZ 00470770 f i tutorial_defcon.obj
 0001:0006f790       ??0PlaceRadarPopup@@QAE@XZ 00470790 f i tutorial_defcon.obj
 0001:0006f7b0       ??0Mission3SelectSilosPopup@@QAE@XZ 004707b0 f i tutorial_defcon.obj
 0001:0006f7d0       ??0Mission3PlaceSilosPopup@@QAE@XZ 004707d0 f i tutorial_defcon.obj
 0001:0006f7f0       ??0AccelTimePopup@@QAE@XZ  004707f0 f i tutorial_defcon.obj
 0001:0006f810       ??0SilosIntoNukeModePopup@@QAE@XZ 00470810 f i tutorial_defcon.obj
 0001:0006f830       ??0NukeEnemySiloPopup@@QAE@XZ 00470830 f i tutorial_defcon.obj
 0001:0006f850       ??0NukeEnemyAirBasePopup@@QAE@XZ 00470850 f i tutorial_defcon.obj
 0001:0006f870       ??0NukeEnemyCitiesPopup@@QAE@XZ 00470870 f i tutorial_defcon.obj
 0001:0006f890       ??0SelectAirBasePopup@@QAE@XZ 00470890 f i tutorial_defcon.obj
 0001:0006f8b0       ??0PlaceAirBasePopup@@QAE@XZ 004708b0 f i tutorial_defcon.obj
 0001:0006f8d0       ??0ClickOnAirbasePopup@@QAE@XZ 004708d0 f i tutorial_defcon.obj
 0001:0006f8f0       ??0ScoutFightersHerePopup@@QAE@XZ 004708f0 f i tutorial_defcon.obj
 0001:0006f910       ??0ToggleRadarPopup@@QAE@XZ 00470910 f i tutorial_defcon.obj
 0001:0006f930       ??0SwitchToBomberModePopup@@QAE@XZ 00470930 f i tutorial_defcon.obj
 0001:0006f950       ??0ClickOnAirbaseBomberPopup@@QAE@XZ 00470950 f i tutorial_defcon.obj
 0001:0006f970       ??0NukeEnemyBuildingPopup@@QAE@XZ 00470970 f i tutorial_defcon.obj
 0001:0006f990       ??0SelectFleetPopup@@QAE@XZ 00470990 f i tutorial_defcon.obj
 0001:0006f9b0       ??0AddShipToFleetPopup@@QAE@XZ 004709b0 f i tutorial_defcon.obj
 0001:0006f9d0       ??0DeployFleetPopup@@QAE@XZ 004709d0 f i tutorial_defcon.obj
 0001:0006f9f0       ??0SelectDeployedFleetPopup@@QAE@XZ 004709f0 f i tutorial_defcon.obj
 0001:0006fa10       ??0MoveFleetSouthPopup@@QAE@XZ 00470a10 f i tutorial_defcon.obj
 0001:0006fa30       ??0DestroyEnemyFleetPopup@@QAE@XZ 00470a30 f i tutorial_defcon.obj
 0001:0006fa50       ??0ToggleOrdersPopup@@QAE@XZ 00470a50 f i tutorial_defcon.obj
 0001:0006fa70       ??0ShowTerritoryPopup@@QAE@XZ 00470a70 f i tutorial_defcon.obj
 0001:0006fa90       ??0Mission6UnitPanelPopup@@QAE@XZ 00470a90 f i tutorial_defcon.obj
 0001:0006fab0       ??0DeployCarriersPopup@@QAE@XZ 00470ab0 f i tutorial_defcon.obj
 0001:0006fad0       ??0AddSubToFleetPopup@@QAE@XZ 00470ad0 f i tutorial_defcon.obj
 0001:0006faf0       ??0DeploySubsPopup@@QAE@XZ 00470af0 f i tutorial_defcon.obj
 0001:0006fb10       ??0SelectSubsPopup@@QAE@XZ 00470b10 f i tutorial_defcon.obj
 0001:0006fb30       ??0MoveSubsToChinaPopup@@QAE@XZ 00470b30 f i tutorial_defcon.obj
 0001:0006fb50       ??0SwitchToDepthChargeModePopup@@QAE@XZ 00470b50 f i tutorial_defcon.obj
 0001:0006fb70       ??0DestroyEnemySubsPopup@@QAE@XZ 00470b70 f i tutorial_defcon.obj
 0001:0006fb90       ??0SwitchSubsToNukeModePopup@@QAE@XZ 00470b90 f i tutorial_defcon.obj
 0001:0006fbb0       ??0SubNukeEnemySiloPopup@@QAE@XZ 00470bb0 f i tutorial_defcon.obj
 0001:0006fbd0       ??0Mission7PlacementPopup@@QAE@XZ 00470bd0 f i tutorial_defcon.obj
 0001:0006fbf0       ??0PlaceFleetsInPacificPopup@@QAE@XZ 00470bf0 f i tutorial_defcon.obj
 0001:0006fc10       ??0Misssion7FleetsToChinaPopup@@QAE@XZ 00470c10 f i tutorial_defcon.obj
 0001:0006fc30       ??0Mission7ScoutChinaPopup@@QAE@XZ 00470c30 f i tutorial_defcon.obj
 0001:0006fc50       ??0Mission7EnemySubsPopup@@QAE@XZ 00470c50 f i tutorial_defcon.obj
 0001:0006fc70       ??_EClickNextPopup@@UAEPAXI@Z 00470c70 f i * CIL library *:* CIL module *
 0001:0006fc70       ??_GClickNextPopup@@UAEPAXI@Z 00470c70 f i tutorial_defcon.obj
 0001:0006fca0       ??1ClickNextPopup@@UAE@XZ  00470ca0 f i tutorial_defcon.obj
 0001:0006fcb0       ??1TutorialPopup@@UAE@XZ   00470cb0 f i tutorial_defcon.obj
 0001:0006fcc0       ??_EMission1SiloPopup@@UAEPAXI@Z 00470cc0 f i * CIL library *:* CIL module *
 0001:0006fcc0       ??_GMission1SiloPopup@@UAEPAXI@Z 00470cc0 f i tutorial_defcon.obj
 0001:0006fcf0       ??1Mission1SiloPopup@@UAE@XZ 00470cf0 f i tutorial_defcon.obj
 0001:0006fd00       ??_EMission1SiloSelectPopup@@UAEPAXI@Z 00470d00 f i * CIL library *:* CIL module *
 0001:0006fd00       ??_GMission1SiloSelectPopup@@UAEPAXI@Z 00470d00 f i tutorial_defcon.obj
 0001:0006fd30       ??1Mission1SiloSelectPopup@@UAE@XZ 00470d30 f i tutorial_defcon.obj
 0001:0006fd40       ??_EMission1Deselect@@UAEPAXI@Z 00470d40 f i * CIL library *:* CIL module *
 0001:0006fd40       ??_GMission1Deselect@@UAEPAXI@Z 00470d40 f i tutorial_defcon.obj
 0001:0006fd70       ??1Mission1Deselect@@UAE@XZ 00470d70 f i tutorial_defcon.obj
 0001:0006fd80       ??_EMission1RadarTarget@@UAEPAXI@Z 00470d80 f i * CIL library *:* CIL module *
 0001:0006fd80       ??_GMission1RadarTarget@@UAEPAXI@Z 00470d80 f i tutorial_defcon.obj
 0001:0006fdb0       ??1Mission1RadarTarget@@UAE@XZ 00470db0 f i tutorial_defcon.obj
 0001:0006fdc0       ??_EUnitPanelPopup@@UAEPAXI@Z 00470dc0 f i * CIL library *:* CIL module *
 0001:0006fdc0       ??_GUnitPanelPopup@@UAEPAXI@Z 00470dc0 f i tutorial_defcon.obj
 0001:0006fdf0       ??1UnitPanelPopup@@UAE@XZ  00470df0 f i tutorial_defcon.obj
 0001:0006fe00       ??_ESelectSiloPopup@@UAEPAXI@Z 00470e00 f i * CIL library *:* CIL module *
 0001:0006fe00       ??_GSelectSiloPopup@@UAEPAXI@Z 00470e00 f i tutorial_defcon.obj
 0001:0006fe30       ??1SelectSiloPopup@@UAE@XZ 00470e30 f i tutorial_defcon.obj
 0001:0006fe40       ??_EPlaceSilosPopup@@UAEPAXI@Z 00470e40 f i * CIL library *:* CIL module *
 0001:0006fe40       ??_GPlaceSilosPopup@@UAEPAXI@Z 00470e40 f i tutorial_defcon.obj
 0001:0006fe70       ??1PlaceSilosPopup@@UAE@XZ 00470e70 f i tutorial_defcon.obj
 0001:0006fe80       ??_ESelectRadarPopup@@UAEPAXI@Z 00470e80 f i * CIL library *:* CIL module *
 0001:0006fe80       ??_GSelectRadarPopup@@UAEPAXI@Z 00470e80 f i tutorial_defcon.obj
 0001:0006feb0       ??1SelectRadarPopup@@UAE@XZ 00470eb0 f i tutorial_defcon.obj
 0001:0006fec0       ??_EPlaceRadarPopup@@UAEPAXI@Z 00470ec0 f i * CIL library *:* CIL module *
 0001:0006fec0       ??_GPlaceRadarPopup@@UAEPAXI@Z 00470ec0 f i tutorial_defcon.obj
 0001:0006fef0       ??1PlaceRadarPopup@@UAE@XZ 00470ef0 f i tutorial_defcon.obj
 0001:0006ff00       ??_EMission3SelectSilosPopup@@UAEPAXI@Z 00470f00 f i * CIL library *:* CIL module *
 0001:0006ff00       ??_GMission3SelectSilosPopup@@UAEPAXI@Z 00470f00 f i tutorial_defcon.obj
 0001:0006ff30       ??1Mission3SelectSilosPopup@@UAE@XZ 00470f30 f i tutorial_defcon.obj
 0001:0006ff40       ??_EMission3PlaceSilosPopup@@UAEPAXI@Z 00470f40 f i * CIL library *:* CIL module *
 0001:0006ff40       ??_GMission3PlaceSilosPopup@@UAEPAXI@Z 00470f40 f i tutorial_defcon.obj
 0001:0006ff70       ??1Mission3PlaceSilosPopup@@UAE@XZ 00470f70 f i tutorial_defcon.obj
 0001:0006ff80       ??_EAccelTimePopup@@UAEPAXI@Z 00470f80 f i * CIL library *:* CIL module *
 0001:0006ff80       ??_GAccelTimePopup@@UAEPAXI@Z 00470f80 f i tutorial_defcon.obj
 0001:0006ffb0       ??1AccelTimePopup@@UAE@XZ  00470fb0 f i tutorial_defcon.obj
 0001:0006ffc0       ??_ESilosIntoNukeModePopup@@UAEPAXI@Z 00470fc0 f i * CIL library *:* CIL module *
 0001:0006ffc0       ??_GSilosIntoNukeModePopup@@UAEPAXI@Z 00470fc0 f i tutorial_defcon.obj
 0001:0006fff0       ??1SilosIntoNukeModePopup@@UAE@XZ 00470ff0 f i tutorial_defcon.obj
 0001:00070000       ??_ENukeEnemySiloPopup@@UAEPAXI@Z 00471000 f i * CIL library *:* CIL module *
 0001:00070000       ??_GNukeEnemySiloPopup@@UAEPAXI@Z 00471000 f i tutorial_defcon.obj
 0001:00070030       ??1NukeEnemySiloPopup@@UAE@XZ 00471030 f i tutorial_defcon.obj
 0001:00070040       ??_ENukeEnemyAirBasePopup@@UAEPAXI@Z 00471040 f i * CIL library *:* CIL module *
 0001:00070040       ??_GNukeEnemyAirBasePopup@@UAEPAXI@Z 00471040 f i tutorial_defcon.obj
 0001:00070070       ??1NukeEnemyAirBasePopup@@UAE@XZ 00471070 f i tutorial_defcon.obj
 0001:00070080       ??_ENukeEnemyCitiesPopup@@UAEPAXI@Z 00471080 f i * CIL library *:* CIL module *
 0001:00070080       ??_GNukeEnemyCitiesPopup@@UAEPAXI@Z 00471080 f i tutorial_defcon.obj
 0001:000700b0       ??1NukeEnemyCitiesPopup@@UAE@XZ 004710b0 f i tutorial_defcon.obj
 0001:000700c0       ??_ESelectAirBasePopup@@UAEPAXI@Z 004710c0 f i * CIL library *:* CIL module *
 0001:000700c0       ??_GSelectAirBasePopup@@UAEPAXI@Z 004710c0 f i tutorial_defcon.obj
 0001:000700f0       ??1SelectAirBasePopup@@UAE@XZ 004710f0 f i tutorial_defcon.obj
 0001:00070100       ??_EPlaceAirBasePopup@@UAEPAXI@Z 00471100 f i * CIL library *:* CIL module *
 0001:00070100       ??_GPlaceAirBasePopup@@UAEPAXI@Z 00471100 f i tutorial_defcon.obj
 0001:00070130       ??1PlaceAirBasePopup@@UAE@XZ 00471130 f i tutorial_defcon.obj
 0001:00070140       ??_EClickOnAirbasePopup@@UAEPAXI@Z 00471140 f i * CIL library *:* CIL module *
 0001:00070140       ??_GClickOnAirbasePopup@@UAEPAXI@Z 00471140 f i tutorial_defcon.obj
 0001:00070170       ??1ClickOnAirbasePopup@@UAE@XZ 00471170 f i tutorial_defcon.obj
 0001:00070180       ??_EScoutFightersHerePopup@@UAEPAXI@Z 00471180 f i * CIL library *:* CIL module *
 0001:00070180       ??_GScoutFightersHerePopup@@UAEPAXI@Z 00471180 f i tutorial_defcon.obj
 0001:000701b0       ??1ScoutFightersHerePopup@@UAE@XZ 004711b0 f i tutorial_defcon.obj
 0001:000701c0       ??_EToggleRadarPopup@@UAEPAXI@Z 004711c0 f i * CIL library *:* CIL module *
 0001:000701c0       ??_GToggleRadarPopup@@UAEPAXI@Z 004711c0 f i tutorial_defcon.obj
 0001:000701f0       ??1ToggleRadarPopup@@UAE@XZ 004711f0 f i tutorial_defcon.obj
 0001:00070200       ??_ESwitchToBomberModePopup@@UAEPAXI@Z 00471200 f i * CIL library *:* CIL module *
 0001:00070200       ??_GSwitchToBomberModePopup@@UAEPAXI@Z 00471200 f i tutorial_defcon.obj
 0001:00070230       ??1SwitchToBomberModePopup@@UAE@XZ 00471230 f i tutorial_defcon.obj
 0001:00070240       ??_EClickOnAirbaseBomberPopup@@UAEPAXI@Z 00471240 f i * CIL library *:* CIL module *
 0001:00070240       ??_GClickOnAirbaseBomberPopup@@UAEPAXI@Z 00471240 f i tutorial_defcon.obj
 0001:00070270       ??1ClickOnAirbaseBomberPopup@@UAE@XZ 00471270 f i tutorial_defcon.obj
 0001:00070280       ??_ENukeEnemyBuildingPopup@@UAEPAXI@Z 00471280 f i * CIL library *:* CIL module *
 0001:00070280       ??_GNukeEnemyBuildingPopup@@UAEPAXI@Z 00471280 f i tutorial_defcon.obj
 0001:000702b0       ??1NukeEnemyBuildingPopup@@UAE@XZ 004712b0 f i tutorial_defcon.obj
 0001:000702c0       ??_ESelectFleetPopup@@UAEPAXI@Z 004712c0 f i * CIL library *:* CIL module *
 0001:000702c0       ??_GSelectFleetPopup@@UAEPAXI@Z 004712c0 f i tutorial_defcon.obj
 0001:000702f0       ??1SelectFleetPopup@@UAE@XZ 004712f0 f i tutorial_defcon.obj
 0001:00070300       ??_EAddShipToFleetPopup@@UAEPAXI@Z 00471300 f i * CIL library *:* CIL module *
 0001:00070300       ??_GAddShipToFleetPopup@@UAEPAXI@Z 00471300 f i tutorial_defcon.obj
 0001:00070330       ??1AddShipToFleetPopup@@UAE@XZ 00471330 f i tutorial_defcon.obj
 0001:00070340       ??_EDeployFleetPopup@@UAEPAXI@Z 00471340 f i * CIL library *:* CIL module *
 0001:00070340       ??_GDeployFleetPopup@@UAEPAXI@Z 00471340 f i tutorial_defcon.obj
 0001:00070370       ??1DeployFleetPopup@@UAE@XZ 00471370 f i tutorial_defcon.obj
 0001:00070380       ??_ESelectDeployedFleetPopup@@UAEPAXI@Z 00471380 f i * CIL library *:* CIL module *
 0001:00070380       ??_GSelectDeployedFleetPopup@@UAEPAXI@Z 00471380 f i tutorial_defcon.obj
 0001:000703b0       ??1SelectDeployedFleetPopup@@UAE@XZ 004713b0 f i tutorial_defcon.obj
 0001:000703c0       ??_EMoveFleetSouthPopup@@UAEPAXI@Z 004713c0 f i * CIL library *:* CIL module *
 0001:000703c0       ??_GMoveFleetSouthPopup@@UAEPAXI@Z 004713c0 f i tutorial_defcon.obj
 0001:000703f0       ??1MoveFleetSouthPopup@@UAE@XZ 004713f0 f i tutorial_defcon.obj
 0001:00070400       ??_EDestroyEnemyFleetPopup@@UAEPAXI@Z 00471400 f i * CIL library *:* CIL module *
 0001:00070400       ??_GDestroyEnemyFleetPopup@@UAEPAXI@Z 00471400 f i tutorial_defcon.obj
 0001:00070430       ??1DestroyEnemyFleetPopup@@UAE@XZ 00471430 f i tutorial_defcon.obj
 0001:00070440       ??_EToggleOrdersPopup@@UAEPAXI@Z 00471440 f i * CIL library *:* CIL module *
 0001:00070440       ??_GToggleOrdersPopup@@UAEPAXI@Z 00471440 f i tutorial_defcon.obj
 0001:00070470       ??1ToggleOrdersPopup@@UAE@XZ 00471470 f i tutorial_defcon.obj
 0001:00070480       ??_EShowTerritoryPopup@@UAEPAXI@Z 00471480 f i * CIL library *:* CIL module *
 0001:00070480       ??_GShowTerritoryPopup@@UAEPAXI@Z 00471480 f i tutorial_defcon.obj
 0001:000704b0       ??1ShowTerritoryPopup@@UAE@XZ 004714b0 f i tutorial_defcon.obj
 0001:000704c0       ??_EMission6UnitPanelPopup@@UAEPAXI@Z 004714c0 f i * CIL library *:* CIL module *
 0001:000704c0       ??_GMission6UnitPanelPopup@@UAEPAXI@Z 004714c0 f i tutorial_defcon.obj
 0001:000704f0       ??1Mission6UnitPanelPopup@@UAE@XZ 004714f0 f i tutorial_defcon.obj
 0001:00070500       ??_EDeployCarriersPopup@@UAEPAXI@Z 00471500 f i * CIL library *:* CIL module *
 0001:00070500       ??_GDeployCarriersPopup@@UAEPAXI@Z 00471500 f i tutorial_defcon.obj
 0001:00070530       ??1DeployCarriersPopup@@UAE@XZ 00471530 f i tutorial_defcon.obj
 0001:00070540       ??_EAddSubToFleetPopup@@UAEPAXI@Z 00471540 f i * CIL library *:* CIL module *
 0001:00070540       ??_GAddSubToFleetPopup@@UAEPAXI@Z 00471540 f i tutorial_defcon.obj
 0001:00070570       ??1AddSubToFleetPopup@@UAE@XZ 00471570 f i tutorial_defcon.obj
 0001:00070580       ??_EDeploySubsPopup@@UAEPAXI@Z 00471580 f i * CIL library *:* CIL module *
 0001:00070580       ??_GDeploySubsPopup@@UAEPAXI@Z 00471580 f i tutorial_defcon.obj
 0001:000705b0       ??1DeploySubsPopup@@UAE@XZ 004715b0 f i tutorial_defcon.obj
 0001:000705c0       ??_ESelectSubsPopup@@UAEPAXI@Z 004715c0 f i * CIL library *:* CIL module *
 0001:000705c0       ??_GSelectSubsPopup@@UAEPAXI@Z 004715c0 f i tutorial_defcon.obj
 0001:000705f0       ??1SelectSubsPopup@@UAE@XZ 004715f0 f i tutorial_defcon.obj
 0001:00070600       ??_EMoveSubsToChinaPopup@@UAEPAXI@Z 00471600 f i * CIL library *:* CIL module *
 0001:00070600       ??_GMoveSubsToChinaPopup@@UAEPAXI@Z 00471600 f i tutorial_defcon.obj
 0001:00070630       ??1MoveSubsToChinaPopup@@UAE@XZ 00471630 f i tutorial_defcon.obj
 0001:00070640       ??_ESwitchToDepthChargeModePopup@@UAEPAXI@Z 00471640 f i * CIL library *:* CIL module *
 0001:00070640       ??_GSwitchToDepthChargeModePopup@@UAEPAXI@Z 00471640 f i tutorial_defcon.obj
 0001:00070670       ??1SwitchToDepthChargeModePopup@@UAE@XZ 00471670 f i tutorial_defcon.obj
 0001:00070680       ??_EDestroyEnemySubsPopup@@UAEPAXI@Z 00471680 f i * CIL library *:* CIL module *
 0001:00070680       ??_GDestroyEnemySubsPopup@@UAEPAXI@Z 00471680 f i tutorial_defcon.obj
 0001:000706b0       ??1DestroyEnemySubsPopup@@UAE@XZ 004716b0 f i tutorial_defcon.obj
 0001:000706c0       ??_ESwitchSubsToNukeModePopup@@UAEPAXI@Z 004716c0 f i * CIL library *:* CIL module *
 0001:000706c0       ??_GSwitchSubsToNukeModePopup@@UAEPAXI@Z 004716c0 f i tutorial_defcon.obj
 0001:000706f0       ??1SwitchSubsToNukeModePopup@@UAE@XZ 004716f0 f i tutorial_defcon.obj
 0001:00070700       ??_ESubNukeEnemySiloPopup@@UAEPAXI@Z 00471700 f i * CIL library *:* CIL module *
 0001:00070700       ??_GSubNukeEnemySiloPopup@@UAEPAXI@Z 00471700 f i tutorial_defcon.obj
 0001:00070730       ??1SubNukeEnemySiloPopup@@UAE@XZ 00471730 f i tutorial_defcon.obj
 0001:00070740       ??_EMission7PlacementPopup@@UAEPAXI@Z 00471740 f i * CIL library *:* CIL module *
 0001:00070740       ??_GMission7PlacementPopup@@UAEPAXI@Z 00471740 f i tutorial_defcon.obj
 0001:00070770       ??1Mission7PlacementPopup@@UAE@XZ 00471770 f i tutorial_defcon.obj
 0001:00070780       ??_EPlaceFleetsInPacificPopup@@UAEPAXI@Z 00471780 f i * CIL library *:* CIL module *
 0001:00070780       ??_GPlaceFleetsInPacificPopup@@UAEPAXI@Z 00471780 f i tutorial_defcon.obj
 0001:000707b0       ??1PlaceFleetsInPacificPopup@@UAE@XZ 004717b0 f i tutorial_defcon.obj
 0001:000707c0       ??_EMisssion7FleetsToChinaPopup@@UAEPAXI@Z 004717c0 f i * CIL library *:* CIL module *
 0001:000707c0       ??_GMisssion7FleetsToChinaPopup@@UAEPAXI@Z 004717c0 f i tutorial_defcon.obj
 0001:000707f0       ??1Misssion7FleetsToChinaPopup@@UAE@XZ 004717f0 f i tutorial_defcon.obj
 0001:00070800       ??_EMission7ScoutChinaPopup@@UAEPAXI@Z 00471800 f i * CIL library *:* CIL module *
 0001:00070800       ??_GMission7ScoutChinaPopup@@UAEPAXI@Z 00471800 f i tutorial_defcon.obj
 0001:00070830       ??1Mission7ScoutChinaPopup@@UAE@XZ 00471830 f i tutorial_defcon.obj
 0001:00070840       ??_EMission7EnemySubsPopup@@UAEPAXI@Z 00471840 f i * CIL library *:* CIL module *
 0001:00070840       ??_GMission7EnemySubsPopup@@UAEPAXI@Z 00471840 f i tutorial_defcon.obj
 0001:00070870       ??1Mission7EnemySubsPopup@@UAE@XZ 00471870 f i tutorial_defcon.obj
 0001:00070880       ?UpdateCurrentChapter@Tutorial@@IAEXXZ 00471880 f   tutorial_defcon.obj
 0001:000708e0       ?UpdateLevel1@Tutorial@@IAEXXZ 004718e0 f   tutorial_defcon.obj
 0001:00070b50       ?UpdateLevel2@Tutorial@@IAEXXZ 00471b50 f   tutorial_defcon.obj
 0001:00070ce0       ?UpdateLevel3@Tutorial@@IAEXXZ 00471ce0 f   tutorial_defcon.obj
 0001:000711e0       ?UpdateLevel4@Tutorial@@IAEXXZ 004721e0 f   tutorial_defcon.obj
 0001:000718e0       ?UpdateLevel5@Tutorial@@IAEXXZ 004728e0 f   tutorial_defcon.obj
 0001:00071bd0       ?UpdateLevel6@Tutorial@@IAEXXZ 00472bd0 f   tutorial_defcon.obj
 0001:000720c0       ?UpdateLevel7@Tutorial@@IAEXXZ 004730c0 f   tutorial_defcon.obj
 0001:00072320       ?ObjectPlacement@Tutorial@@IAEHHHMMH@Z 00473320 f   tutorial_defcon.obj
 0001:000723e0       ?GetMissionStart@Tutorial@@QAEHH@Z 004733e0 f   tutorial_defcon.obj
 0001:00072470       ?MissionComplete@Tutorial@@IAEXXZ 00473470 f   tutorial_defcon.obj
 0001:00072540       ?MissionFailed@Tutorial@@IAEXXZ 00473540 f   tutorial_defcon.obj
 0001:000725f0       ?SetCurrentLevel@Tutorial@@QAEXH@Z 004735f0 f   tutorial_defcon.obj
 0001:00072600       ?GetCurrentLevel@Tutorial@@QAEHXZ 00473600 f   tutorial_defcon.obj
 0001:00072610       ??0TutorialPopup@@QAE@XZ   00473610 f   tutorial_defcon.obj
 0001:000726d0       ??_ETutorialPopup@@UAEPAXI@Z 004736d0 f i * CIL library *:* CIL module *
 0001:000726d0       ??_GTutorialPopup@@UAEPAXI@Z 004736d0 f i tutorial_defcon.obj
 0001:00072700       ?SetMessage@TutorialPopup@@QAEXPBD0@Z 00473700 f   tutorial_defcon.obj
 0001:00072750       ?SetDimensions@TutorialPopup@@QAEXMMM@Z 00473750 f   tutorial_defcon.obj
 0001:00072770       ?SetTargetObject@TutorialPopup@@QAEXH@Z 00473770 f   tutorial_defcon.obj
 0001:00072790       ?SetUITarget@TutorialPopup@@QAEXPBD0@Z 00473790 f   tutorial_defcon.obj
 0001:000727e0       ?SetTargetWorldPos@TutorialPopup@@QAEXMM@Z 004737e0 f   tutorial_defcon.obj
 0001:00072800       ?Update@TutorialPopup@@UAEXXZ 00473800 f   tutorial_defcon.obj
 0001:00072860       ?Render@TutorialPopup@@UAEX_N@Z 00473860 f   tutorial_defcon.obj
 0001:00073510       ?Normalise@?$Vector3@M@@QAEABV1@XZ 00474510 f i tutorial_defcon.obj
 0001:000735c0       ?SetAll@?$BoundedArray@H@@QAEXABH@Z 004745c0 f i tutorial_defcon.obj
 0001:000735f0       ?Size@?$LList@PAVActionOrder@@@@QBEHXZ 004745f0 f i tutorial_defcon.obj
 0001:00073600       ?Size@?$LList@PAVFleet@@@@QBEHXZ 00474600 f i tutorial_defcon.obj
 0001:00073610       ??A?$LList@PAVFleet@@@@QAEPAVFleet@@H@Z 00474610 f i tutorial_defcon.obj
 0001:00073630       ?Size@?$LList@PAVCity@@@@QBEHXZ 00474630 f i tutorial_defcon.obj
 0001:00073640       ??A?$LList@PAVCity@@@@QAEPAVCity@@H@Z 00474640 f i tutorial_defcon.obj
 0001:00073660       ?NumUsed@?$FastDArray@PAVGunFire@@@@QBEHXZ 00474660 f i tutorial_defcon.obj
 0001:00073670       ?GetData@?$LList@PAVFleet@@@@QBEPAVFleet@@H@Z 00474670 f i tutorial_defcon.obj
 0001:00073690       ?GetData@?$LList@PAVCity@@@@QBEPAVCity@@H@Z 00474690 f i tutorial_defcon.obj
 0001:000736b0       ?GetItem@?$LList@PAVFleet@@@@IBEPAV?$LListItem@PAVFleet@@@@H@Z 004746b0 f i tutorial_defcon.obj
 0001:00073760       ?GetItem@?$LList@PAVCity@@@@IBEPAV?$LListItem@PAVCity@@@@H@Z 00474760 f i tutorial_defcon.obj
 0001:00073810       ?ValidIndex@?$LList@PAVFleet@@@@QBE_NH@Z 00474810 f i tutorial_defcon.obj
 0001:00073830       ?ValidIndex@?$LList@PAVCity@@@@QBE_NH@Z 00474830 f i tutorial_defcon.obj
 0001:00073850       _atanf                     00474850 f i tutorial_defcon.obj
 0001:00073870       ?VersionStringToNumber@VersionManager@@SAMPAD@Z 00474870 f   version_manager.obj
 0001:00073890       ?EnsureCompatability@VersionManager@@SAXPADPAVDirectory@@@Z 00474890 f   version_manager.obj
 0001:00073a40       ?DoesSupportModSystem@VersionManager@@SA_NPAD@Z 00474a40 f   version_manager.obj
 0001:00073a50       ?DoesSupportWhiteBoard@VersionManager@@SA_NPAD@Z 00474a50 f   version_manager.obj
 0001:00073a60       ?DoesSupportSendTeamScore@VersionManager@@SA_NPAD@Z 00474a60 f   version_manager.obj
 0001:00073a70       ?GetData@?$DArray@PAVDirectory@@@@QBEPAVDirectory@@H@Z 00474a70 f i version_manager.obj
 0001:00073ad0       ??K?$Vector3@M@@QBE?AV0@M@Z 00474ad0 f i curves.obj
 0001:00073b10       ??0?$DArray@V?$Vector3@M@@@@QAE@XZ 00474b10 f i curves.obj
 0001:00073b30       ??1?$DArray@V?$Vector3@M@@@@QAE@XZ 00474b30 f i curves.obj
 0001:00073b40       ?PutData@?$DArray@V?$Vector3@M@@@@QAEHABV?$Vector3@M@@@Z 00474b40 f i curves.obj
 0001:00073ba0       ?Size@?$DArray@V?$Vector3@M@@@@QBEHXZ 00474ba0 f i curves.obj
 0001:00073bb0       ?Empty@?$DArray@V?$Vector3@M@@@@QAEXXZ 00474bb0 f i curves.obj
 0001:00073be0       ?Grow@?$DArray@V?$Vector3@M@@@@IAEXXZ 00474be0 f i curves.obj
 0001:00073c10       ?SetSize@?$DArray@V?$Vector3@M@@@@QAEXH@Z 00474c10 f i curves.obj
 0001:00073da0       ?IsRecordingPlaybackMode@Server@@QBE_NXZ 00474da0 f i defcon.obj
 0001:00073db0       ?IsRecordingPaused@Server@@QBE_NXZ 00474db0 f i defcon.obj
 0001:00073dc0       ?UpdateAdvanceTime@@YAXXZ  00474dc0 f   defcon.obj
 0001:00073e30       ?TimeToRender@@YA_NM@Z     00474e30 f   defcon.obj
 0001:00073e50       ?DumpWorldToSyncLog@@YAXPBD@Z 00474e50 f   defcon.obj
 0001:00073fe0       ?DumpSyncLogs@@YAXPBD_N@Z  00474fe0 f   defcon.obj
 0001:000741c0       ?ProcessServerLetters@@YA_NPAVDirectory@@@Z 004751c0 f   defcon.obj
 0001:00074d20       ?Hash@@YAXAAUhash_context@@N@Z 00475d20 f i defcon.obj
 0001:00074da0       ?Hash@@YAXAAUhash_context@@ABVFixed@@@Z 00475da0 f i defcon.obj
 0001:00074e20       ?GenerateSyncValue@@YAEXZ  00475e20 f   defcon.obj
 0001:00074f30       ?HandleGameStart@@YAXXZ    00475f30 f   defcon.obj
 0001:00075020       ?DefconMain@@YAXXZ         00476020 f   defcon.obj
 0001:00075420       ??_GApp@@QAEPAXI@Z         00476420 f i defcon.obj
 0001:00075450       ?AppMain@@YAXXZ            00476450 f   defcon.obj
 0001:00075460       ?AppShutdown@@YAXXZ        00476460 f   defcon.obj
 0001:00075480       ??Y?$basic_string@DU?$char_traits@D@std@@V?$allocator@D@2@@std@@QAEAAV01@QBD@Z 00476480 f i defcon.obj
 0001:000754b0       ?Render@JoinLeaveButton@@EAEXHH_N0@Z 004764b0 f i alliances_window.obj
 0001:000755e0       ?MouseUp@JoinLeaveButton@@EAEXXZ 004765e0 f i alliances_window.obj
 0001:000756e0       ?MouseUp@ConfirmShareRadarButton@@UAEXXZ 004766e0 f i alliances_window.obj
 0001:00075750       ??0ShareRadarWindow@@QAE@H@Z 00476750 f   alliances_window.obj
 0001:000757a0       ??_EShareRadarWindow@@UAEPAXI@Z 004767a0 f i * CIL library *:* CIL module *
 0001:000757a0       ??_GShareRadarWindow@@UAEPAXI@Z 004767a0 f i alliances_window.obj
 0001:000757d0       ??1ShareRadarWindow@@UAE@XZ 004767d0 f i alliances_window.obj
 0001:000757e0       ?Create@ShareRadarWindow@@UAEXXZ 004767e0 f   alliances_window.obj
 0001:000758a0       ??0ConfirmShareRadarButton@@QAE@XZ 004768a0 f i alliances_window.obj
 0001:000758b0       ??_EConfirmShareRadarButton@@UAEPAXI@Z 004768b0 f i * CIL library *:* CIL module *
 0001:000758b0       ??_GConfirmShareRadarButton@@UAEPAXI@Z 004768b0 f i alliances_window.obj
 0001:000758e0       ??1ConfirmShareRadarButton@@UAE@XZ 004768e0 f i alliances_window.obj
 0001:000758f0       ?Render@ShareRadarWindow@@UAEX_N@Z 004768f0 f   alliances_window.obj
 0001:00075bd0       ?MouseUp@ConfirmCeaseFireButton@@UAEXXZ 00476bd0 f i alliances_window.obj
 0001:00075c40       ??0CeaseFireWindow@@QAE@H@Z 00476c40 f   alliances_window.obj
 0001:00075c90       ??_ECeaseFireWindow@@UAEPAXI@Z 00476c90 f i * CIL library *:* CIL module *
 0001:00075c90       ??_GCeaseFireWindow@@UAEPAXI@Z 00476c90 f i alliances_window.obj
 0001:00075cc0       ??1CeaseFireWindow@@UAE@XZ 00476cc0 f i alliances_window.obj
 0001:00075cd0       ?Create@CeaseFireWindow@@UAEXXZ 00476cd0 f   alliances_window.obj
 0001:00075d90       ??0ConfirmCeaseFireButton@@QAE@XZ 00476d90 f i alliances_window.obj
 0001:00075da0       ??_EConfirmCeaseFireButton@@UAEPAXI@Z 00476da0 f i * CIL library *:* CIL module *
 0001:00075da0       ??_GConfirmCeaseFireButton@@UAEPAXI@Z 00476da0 f i alliances_window.obj
 0001:00075dd0       ??1ConfirmCeaseFireButton@@UAE@XZ 00476dd0 f i alliances_window.obj
 0001:00075de0       ?Render@CeaseFireWindow@@UAEX_N@Z 00476de0 f   alliances_window.obj
 0001:000760c0       ?Render@VoteButton@@UAEXHH_N0@Z 004770c0 f i alliances_window.obj
 0001:00076350       ?MouseUp@VoteButton@@UAEXXZ 00477350 f i alliances_window.obj
 0001:000763d0       ??0VotingWindow@@QAE@XZ    004773d0 f   alliances_window.obj
 0001:00076410       ??_EVotingWindow@@UAEPAXI@Z 00477410 f i * CIL library *:* CIL module *
 0001:00076410       ??_GVotingWindow@@UAEPAXI@Z 00477410 f i alliances_window.obj
 0001:00076440       ??1VotingWindow@@UAE@XZ    00477440 f i alliances_window.obj
 0001:00076450       ?Create@VotingWindow@@UAEXXZ 00477450 f   alliances_window.obj
 0001:00076650       ??0VoteButton@@QAE@XZ      00477650 f i alliances_window.obj
 0001:00076660       ??_EVoteButton@@UAEPAXI@Z  00477660 f i * CIL library *:* CIL module *
 0001:00076660       ??_GVoteButton@@UAEPAXI@Z  00477660 f i alliances_window.obj
 0001:00076690       ??1VoteButton@@UAE@XZ      00477690 f i alliances_window.obj
 0001:000766a0       ?Render@VotingWindow@@UAEX_N@Z 004776a0 f   alliances_window.obj
 0001:00077150       ?Render@RequestCeasefireButton@@UAEXHH_N0@Z 00478150 f i alliances_window.obj
 0001:00077350       ?MouseUp@RequestCeasefireButton@@UAEXXZ 00478350 f i alliances_window.obj
 0001:00077420       ?Render@RequestShareRadarButton@@UAEXHH_N0@Z 00478420 f i alliances_window.obj
 0001:00077620       ?MouseUp@RequestShareRadarButton@@UAEXXZ 00478620 f i alliances_window.obj
 0001:000776e0       ?Render@AllianceTeamButton@@UAEXHH_N0@Z 004786e0 f i alliances_window.obj
 0001:00077d00       ?MouseUp@AllianceTeamButton@@UAEXXZ 00478d00 f i alliances_window.obj
 0001:00077d20       ?Render@AllianceVoteButton@@UAEXHH_N0@Z 00478d20 f i alliances_window.obj
 0001:000786b0       ?MouseUp@AllianceVoteButton@@UAEXXZ 004796b0 f i alliances_window.obj
 0001:00078750       ??0AlliancesWindow@@QAE@XZ 00479750 f   alliances_window.obj
 0001:000788c0       ??_EAlliancesWindow@@UAEPAXI@Z 004798c0 f i * CIL library *:* CIL module *
 0001:000788c0       ??_GAlliancesWindow@@UAEPAXI@Z 004798c0 f i alliances_window.obj
 0001:000788f0       ??1AlliancesWindow@@UAE@XZ 004798f0 f i alliances_window.obj
 0001:00078900       ?Create@AlliancesWindow@@UAEXXZ 00479900 f   alliances_window.obj
 0001:00078e20       ??0AllianceTeamButton@@QAE@XZ 00479e20 f i alliances_window.obj
 0001:00078e30       ??0RequestCeasefireButton@@QAE@XZ 00479e30 f i alliances_window.obj
 0001:00078e40       ??0RequestShareRadarButton@@QAE@XZ 00479e40 f i alliances_window.obj
 0001:00078e50       ??0JoinLeaveButton@@QAE@XZ 00479e50 f i alliances_window.obj
 0001:00078e60       ??0AllianceVoteButton@@QAE@XZ 00479e60 f i alliances_window.obj
 0001:00078e70       ??_EAllianceTeamButton@@UAEPAXI@Z 00479e70 f i * CIL library *:* CIL module *
 0001:00078e70       ??_GAllianceTeamButton@@UAEPAXI@Z 00479e70 f i alliances_window.obj
 0001:00078ea0       ??1AllianceTeamButton@@UAE@XZ 00479ea0 f i alliances_window.obj
 0001:00078eb0       ??_ERequestCeasefireButton@@UAEPAXI@Z 00479eb0 f i * CIL library *:* CIL module *
 0001:00078eb0       ??_GRequestCeasefireButton@@UAEPAXI@Z 00479eb0 f i alliances_window.obj
 0001:00078ee0       ??1RequestCeasefireButton@@UAE@XZ 00479ee0 f i alliances_window.obj
 0001:00078ef0       ??_ERequestShareRadarButton@@UAEPAXI@Z 00479ef0 f i * CIL library *:* CIL module *
 0001:00078ef0       ??_GRequestShareRadarButton@@UAEPAXI@Z 00479ef0 f i alliances_window.obj
 0001:00078f20       ??1RequestShareRadarButton@@UAE@XZ 00479f20 f i alliances_window.obj
 0001:00078f30       ??_EJoinLeaveButton@@UAEPAXI@Z 00479f30 f i * CIL library *:* CIL module *
 0001:00078f30       ??_GJoinLeaveButton@@UAEPAXI@Z 00479f30 f i alliances_window.obj
 0001:00078f60       ??1JoinLeaveButton@@UAE@XZ 00479f60 f i alliances_window.obj
 0001:00078f70       ??_EAllianceVoteButton@@UAEPAXI@Z 00479f70 f i * CIL library *:* CIL module *
 0001:00078f70       ??_GAllianceVoteButton@@UAEPAXI@Z 00479f70 f i alliances_window.obj
 0001:00078fa0       ??1AllianceVoteButton@@UAE@XZ 00479fa0 f i alliances_window.obj
 0001:00078fb0       ?Update@AlliancesWindow@@UAEXXZ 00479fb0 f   alliances_window.obj
 0001:000792d0       ?Render@AlliancesWindow@@UAEX_N@Z 0047a2d0 f   alliances_window.obj
 0001:00079af0       ?Size@?$DArray@PAVVote@@@@QBEHXZ 0047aaf0 f i alliances_window.obj
 0001:00079b00       ?ValidIndex@?$DArray@PAVVote@@@@QBE_NH@Z 0047ab00 f i alliances_window.obj
 0001:00079b30       ??A?$DArray@PAVVote@@@@QAEAAPAVVote@@H@Z 0047ab30 f i alliances_window.obj
 0001:00079b90       ??0?$LList@PAVTeam@@@@QAE@XZ 0047ab90 f i alliances_window.obj
 0001:00079bc0       ??1?$LList@PAVTeam@@@@QAE@XZ 0047abc0 f i alliances_window.obj
 0001:00079bd0       ?PutData@?$LList@PAVTeam@@@@QAEXABQAVTeam@@@Z 0047abd0 f i alliances_window.obj
 0001:00079be0       ?RemoveData@?$LList@PAVTeam@@@@QAEXH@Z 0047abe0 f i alliances_window.obj
 0001:00079ca0       ??_G?$LListItem@PAVTeam@@@@QAEPAXI@Z 0047aca0 f i alliances_window.obj
 0001:00079cc0       ?PutDataAtEnd@?$LList@PAVTeam@@@@QAEXABQAVTeam@@@Z 0047acc0 f i alliances_window.obj
 0001:00079d20       ?Empty@?$LList@PAVTeam@@@@QAEXXZ 0047ad20 f i alliances_window.obj
 0001:00079d70       ??1?$LListItem@PAVTeam@@@@QAE@XZ 0047ad70 f i alliances_window.obj
 0001:00079d80       ??0?$LListItem@PAVTeam@@@@QAE@XZ 0047ad80 f i alliances_window.obj
 0001:00079da0       ?Render@ApplyKeyButton@@UAEXHH_N0@Z 0047ada0 f i authkey_window.obj
 0001:00079e30       ?MouseUp@ApplyKeyButton@@UAEXXZ 0047ae30 f i authkey_window.obj
 0001:00079e60       ?MouseUp@PasteKeyButton@@UAEXXZ 0047ae60 f i authkey_window.obj
 0001:00079e70       ??0PlayDemoButton@@QAE@XZ  0047ae70 f   authkey_window.obj
 0001:00079ea0       ??_EPlayDemoButton@@UAEPAXI@Z 0047aea0 f i * CIL library *:* CIL module *
 0001:00079ea0       ??_GPlayDemoButton@@UAEPAXI@Z 0047aea0 f i authkey_window.obj
 0001:00079ed0       ??1PlayDemoButton@@UAE@XZ  0047aed0 f i authkey_window.obj
 0001:00079ee0       ?IsVisible@PlayDemoButton@@QAE_NXZ 0047aee0 f   authkey_window.obj
 0001:00079f40       ?Render@PlayDemoButton@@UAEXHH_N0@Z 0047af40 f   authkey_window.obj
 0001:00079f70       ?MouseUp@PlayDemoButton@@UAEXXZ 0047af70 f   authkey_window.obj
 0001:0007a030       ?Render@AuthInputField@@UAEXHH_N0@Z 0047b030 f i authkey_window.obj
 0001:0007a4d0       ?Keypress@AuthInputField@@UAEXH_N00E@Z 0047b4d0 f i authkey_window.obj
 0001:0007a540       ?MouseUp@AuthInputField@@UAEXXZ 0047b540 f i authkey_window.obj
 0001:0007a590       ??0AuthKeyWindow@@QAE@XZ   0047b590 f   authkey_window.obj
 0001:0007a5f0       ??_EAuthKeyWindow@@UAEPAXI@Z 0047b5f0 f i * CIL library *:* CIL module *
 0001:0007a5f0       ??_GAuthKeyWindow@@UAEPAXI@Z 0047b5f0 f i authkey_window.obj
 0001:0007a620       ??1AuthKeyWindow@@UAE@XZ   0047b620 f i authkey_window.obj
 0001:0007a630       ?Create@AuthKeyWindow@@UAEXXZ 0047b630 f   authkey_window.obj
 0001:0007a900       ??0AuthInputField@@QAE@XZ  0047b900 f i authkey_window.obj
 0001:0007a910       ??0PasteKeyButton@@QAE@XZ  0047b910 f i authkey_window.obj
 0001:0007a920       ??0ApplyKeyButton@@QAE@XZ  0047b920 f i authkey_window.obj
 0001:0007a930       ??_EAuthInputField@@UAEPAXI@Z 0047b930 f i * CIL library *:* CIL module *
 0001:0007a930       ??_GAuthInputField@@UAEPAXI@Z 0047b930 f i authkey_window.obj
 0001:0007a960       ??1AuthInputField@@UAE@XZ  0047b960 f i authkey_window.obj
 0001:0007a970       ??_EPasteKeyButton@@UAEPAXI@Z 0047b970 f i * CIL library *:* CIL module *
 0001:0007a970       ??_GPasteKeyButton@@UAEPAXI@Z 0047b970 f i authkey_window.obj
 0001:0007a9a0       ??1PasteKeyButton@@UAE@XZ  0047b9a0 f i authkey_window.obj
 0001:0007a9b0       ??_EApplyKeyButton@@UAEPAXI@Z 0047b9b0 f i * CIL library *:* CIL module *
 0001:0007a9b0       ??_GApplyKeyButton@@UAEPAXI@Z 0047b9b0 f i authkey_window.obj
 0001:0007a9e0       ??1ApplyKeyButton@@UAE@XZ  0047b9e0 f i authkey_window.obj
 0001:0007a9f0       ?PasteFromClipboard@AuthKeyWindow@@QAEXXZ 0047b9f0 f   authkey_window.obj
 0001:0007aa80       ?Render@AuthKeyWindow@@UAEX_N@Z 0047ba80 f   authkey_window.obj
 0001:0007aef0       ??0BadKeyWindow@@QAE@XZ    0047bef0 f   badkey_window.obj
 0001:0007af40       ??_EBadKeyWindow@@UAEPAXI@Z 0047bf40 f i * CIL library *:* CIL module *
 0001:0007af40       ??_GBadKeyWindow@@UAEPAXI@Z 0047bf40 f i badkey_window.obj
 0001:0007af70       ??1BadKeyWindow@@UAE@XZ    0047bf70 f i badkey_window.obj
 0001:0007af80       ?Create@BadKeyWindow@@UAEXXZ 0047bf80 f   badkey_window.obj
 0001:0007b100       ?Render@BadKeyWindow@@UAEX_N@Z 0047c100 f   badkey_window.obj
 0001:0007b2a0       ??_ECasualtiesWindow@@UAEPAXI@Z 0047c2a0 f i * CIL library *:* CIL module *
 0001:0007b2a0       ??_GCasualtiesWindow@@UAEPAXI@Z 0047c2a0 f i casualties_window.obj
 0001:0007b2d0       ??1CasualtiesWindow@@UAE@XZ 0047c2d0 f i casualties_window.obj
 0001:0007b2e0       ?Create@CasualtiesWindow@@UAEXXZ 0047c2e0 f   casualties_window.obj
 0001:0007b320       ?Remove@CasualtiesWindow@@UAEXXZ 0047c320 f   casualties_window.obj
 0001:0007b340       ?Render@CasualtiesWindow@@UAEX_N@Z 0047c340 f   casualties_window.obj
 0001:0007b710       ?MouseUp@SetChannelButton@@UAEXXZ 0047c710 f i chat_window.obj
 0001:0007b730       ?Render@SetChannelButton@@UAEXHH_N0@Z 0047c730 f i chat_window.obj
 0001:0007b770       ??0ChatWindow@@QAE@XZ      0047c770 f   chat_window.obj
 0001:0007b870       ??_EChatWindow@@UAEPAXI@Z  0047c870 f i * CIL library *:* CIL module *
 0001:0007b870       ??_GChatWindow@@UAEPAXI@Z  0047c870 f i chat_window.obj
 0001:0007b8a0       ??1FadingWindow@@UAE@XZ    0047c8a0 f i chat_window.obj
 0001:0007b8b0       ??1ChatWindow@@UAE@XZ      0047c8b0 f   chat_window.obj
 0001:0007b8f0       ?Create@ChatWindow@@UAEXXZ 0047c8f0 f   chat_window.obj
 0001:0007bb50       ??0ChatInputField@@QAE@XZ  0047cb50 f i chat_window.obj
 0001:0007bb60       ??0SetChannelButton@@QAE@XZ 0047cb60 f i chat_window.obj
 0001:0007bb70       ??_EChatInputField@@UAEPAXI@Z 0047cb70 f i * CIL library *:* CIL module *
 0001:0007bb70       ??_GChatInputField@@UAEPAXI@Z 0047cb70 f i chat_window.obj
 0001:0007bba0       ??1ChatInputField@@UAE@XZ  0047cba0 f i chat_window.obj
 0001:0007bbb0       ??_ESetChannelButton@@UAEPAXI@Z 0047cbb0 f i * CIL library *:* CIL module *
 0001:0007bbb0       ??_GSetChannelButton@@UAEPAXI@Z 0047cbb0 f i chat_window.obj
 0001:0007bbe0       ??1SetChannelButton@@UAE@XZ 0047cbe0 f i chat_window.obj
 0001:0007bbf0       ?Update@ChatWindow@@UAEXXZ 0047cbf0 f   chat_window.obj
 0001:0007bfb0       ?BeginTypingMessage@ChatWindow@@QAEXXZ 0047cfb0 f   chat_window.obj
 0001:0007bfc0       ?EndTypingMessage@ChatWindow@@QAEXXZ 0047cfc0 f   chat_window.obj
 0001:0007bfd0       ?RenderWindow@ChatWindow@@IAEXXZ 0047cfd0 f   chat_window.obj
 0001:0007c100       ?RenderTeams@ChatWindow@@IAEXXZ 0047d100 f   chat_window.obj
 0001:0007c5e0       ?RenderMessages@ChatWindow@@IAEXXZ 0047d5e0 f   chat_window.obj
 0001:0007ccf0       ?GetChannelName@ChatWindow@@IAEPADH_N@Z 0047dcf0 f   chat_window.obj
 0001:0007ce90       ?Render@ChatWindow@@UAEX_N@Z 0047de90 f   chat_window.obj
 0001:0007cfa0       ?MouseUp@ChatInputField@@UAEXXZ 0047dfa0 f   chat_window.obj
 0001:0007cfc0       ?Render@ChatInputField@@UAEXHH_N0@Z 0047dfc0 f   chat_window.obj
 0001:0007d0e0       ?Keypress@ChatInputField@@UAEXH_N00E@Z 0047e0e0 f   chat_window.obj
 0001:0007d260       ??0?$LList@PAVChatMessage@@@@QAE@XZ 0047e260 f i chat_window.obj
 0001:0007d290       ??1?$LList@PAVChatMessage@@@@QAE@XZ 0047e290 f i chat_window.obj
 0001:0007d2a0       ?Size@?$LList@PAVChatMessage@@@@QBEHXZ 0047e2a0 f i chat_window.obj
 0001:0007d2b0       ??A?$LList@PAVChatMessage@@@@QAEPAVChatMessage@@H@Z 0047e2b0 f i chat_window.obj
 0001:0007d2d0       ??A?$LList@PAVSpectator@@@@QAEPAVSpectator@@H@Z 0047e2d0 f i chat_window.obj
 0001:0007d2f0       ?GetData@?$LList@PAVChatMessage@@@@QBEPAVChatMessage@@H@Z 0047e2f0 f i chat_window.obj
 0001:0007d310       ?Empty@?$LList@PAVChatMessage@@@@QAEXXZ 0047e310 f i chat_window.obj
 0001:0007d360       ?GetData@?$LList@PAVSpectator@@@@QBEPAVSpectator@@H@Z 0047e360 f i chat_window.obj
 0001:0007d380       ??_G?$LListItem@PAVChatMessage@@@@QAEPAXI@Z 0047e380 f i chat_window.obj
 0001:0007d3a0       ?GetItem@?$LList@PAVChatMessage@@@@IBEPAV?$LListItem@PAVChatMessage@@@@H@Z 0047e3a0 f i chat_window.obj
 0001:0007d450       ??1?$LListItem@PAVChatMessage@@@@QAE@XZ 0047e450 f i chat_window.obj
 0001:0007d460       ?GetItem@?$LList@PAVSpectator@@@@IBEPAV?$LListItem@PAVSpectator@@@@H@Z 0047e460 f i chat_window.obj
 0001:0007d510       ?ValidIndex@?$LList@PAVChatMessage@@@@QBE_NH@Z 0047e510 f i chat_window.obj
 0001:0007d530       ?ValidIndex@?$LList@PAVSpectator@@@@QBE_NH@Z 0047e530 f i chat_window.obj
 0001:0007d550       ?MouseUp@AbortButton@@EAEXXZ 0047e550 f i connecting_window.obj
 0001:0007d580       ??0ConnectingWindow@@QAE@XZ 0047e580 f   connecting_window.obj
 0001:0007d680       ??_EConnectingWindow@@UAEPAXI@Z 0047e680 f i * CIL library *:* CIL module *
 0001:0007d680       ??_GConnectingWindow@@UAEPAXI@Z 0047e680 f i connecting_window.obj
 0001:0007d6b0       ??1ConnectingWindow@@UAE@XZ 0047e6b0 f   connecting_window.obj
 0001:0007d710       ?Create@ConnectingWindow@@UAEXXZ 0047e710 f   connecting_window.obj
 0001:0007d810       ??0AbortButton@@QAE@XZ     0047e810 f i connecting_window.obj
 0001:0007d820       ??_EAbortButton@@UAEPAXI@Z 0047e820 f i * CIL library *:* CIL module *
 0001:0007d820       ??_GAbortButton@@UAEPAXI@Z 0047e820 f i connecting_window.obj
 0001:0007d850       ??1AbortButton@@UAE@XZ     0047e850 f i connecting_window.obj
 0001:0007d860       ?Render@ConnectingWindow@@UAEX_N@Z 0047e860 f   connecting_window.obj
 0001:0007e370       ?RenderTimeRemaining@ConnectingWindow@@QAEXM@Z 0047f370 f   connecting_window.obj
 0001:0007e520       ?SetFastForwardMode@ConnectingWindow@@QAEX_NH0@Z 0047f520 f   connecting_window.obj
 0001:0007e550       ?UpdateFastForwardProgress@ConnectingWindow@@QAEXH@Z 0047f550 f   connecting_window.obj
 0001:0007e560       ?MouseUp@NetworkButton@@EAEXXZ 0047f560 f i debug_window.obj
 0001:0007e5f0       ?MouseUp@ProfileButton@@EAEXXZ 0047f5f0 f i debug_window.obj
 0001:0007e680       ?MouseUp@StyleEditorButton@@EAEXXZ 0047f680 f i debug_window.obj
 0001:0007e6f0       ??0DebugWindow@@QAE@XZ     0047f6f0 f   debug_window.obj
 0001:0007e730       ??_EDebugWindow@@UAEPAXI@Z 0047f730 f i * CIL library *:* CIL module *
 0001:0007e730       ??_GDebugWindow@@UAEPAXI@Z 0047f730 f i debug_window.obj
 0001:0007e760       ??1DebugWindow@@UAE@XZ     0047f760 f i debug_window.obj
 0001:0007e770       ?Create@DebugWindow@@UAEXXZ 0047f770 f   debug_window.obj
 0001:0007e8e0       ??0NetworkButton@@QAE@XZ   0047f8e0 f i debug_window.obj
 0001:0007e8f0       ??0ProfileButton@@QAE@XZ   0047f8f0 f i debug_window.obj
 0001:0007e900       ??0StyleEditorButton@@QAE@XZ 0047f900 f i debug_window.obj
 0001:0007e910       ??_ENetworkButton@@UAEPAXI@Z 0047f910 f i * CIL library *:* CIL module *
 0001:0007e910       ??_GNetworkButton@@UAEPAXI@Z 0047f910 f i debug_window.obj
 0001:0007e940       ??1NetworkButton@@UAE@XZ   0047f940 f i debug_window.obj
 0001:0007e950       ??_EProfileButton@@UAEPAXI@Z 0047f950 f i * CIL library *:* CIL module *
 0001:0007e950       ??_GProfileButton@@UAEPAXI@Z 0047f950 f i debug_window.obj
 0001:0007e980       ??1ProfileButton@@UAE@XZ   0047f980 f i debug_window.obj
 0001:0007e990       ??_EStyleEditorButton@@UAEPAXI@Z 0047f990 f i * CIL library *:* CIL module *
 0001:0007e990       ??_GStyleEditorButton@@UAEPAXI@Z 0047f990 f i debug_window.obj
 0001:0007e9c0       ??1StyleEditorButton@@UAE@XZ 0047f9c0 f i debug_window.obj
 0001:0007e9d0       ?Render@ExitGameButton@@EAEXHH_N0@Z 0047f9d0 f i demo_window.obj
 0001:0007eb00       ?MouseUp@ExitGameButton@@EAEXXZ 0047fb00 f i demo_window.obj
 0001:0007eb40       ??0BuyNowButton@@QAE@XZ    0047fb40 f   demo_window.obj
 0001:0007eb70       ??_EBuyNowButton@@UAEPAXI@Z 0047fb70 f i * CIL library *:* CIL module *
 0001:0007eb70       ??_GBuyNowButton@@UAEPAXI@Z 0047fb70 f i demo_window.obj
 0001:0007eba0       ??1BuyNowButton@@UAE@XZ    0047fba0 f i demo_window.obj
 0001:0007ebb0       ?MouseUp@BuyNowButton@@UAEXXZ 0047fbb0 f   demo_window.obj
 0001:0007ec70       ??0DemoWindow@@QAE@XZ      0047fc70 f   demo_window.obj
 0001:0007ed20       ??_EDemoWindow@@UAEPAXI@Z  0047fd20 f i * CIL library *:* CIL module *
 0001:0007ed20       ??_GDemoWindow@@UAEPAXI@Z  0047fd20 f i demo_window.obj
 0001:0007ed50       ??1DemoWindow@@UAE@XZ      0047fd50 f i demo_window.obj
 0001:0007ed60       ?Create@DemoWindow@@UAEXXZ 0047fd60 f   demo_window.obj
 0001:0007eea0       ??0ExitGameButton@@QAE@XZ  0047fea0 f i demo_window.obj
 0001:0007eeb0       ??_EExitGameButton@@UAEPAXI@Z 0047feb0 f i * CIL library *:* CIL module *
 0001:0007eeb0       ??_GExitGameButton@@UAEPAXI@Z 0047feb0 f i demo_window.obj
 0001:0007eee0       ??1ExitGameButton@@UAE@XZ  0047fee0 f i demo_window.obj
 0001:0007eef0       ?Render@DemoWindow@@UAEX_N@Z 0047fef0 f   demo_window.obj
 0001:0007f3e0       ??0WelcomeToDemoWindow@@QAE@XZ 004803e0 f   demo_window.obj
 0001:0007f420       ??_EWelcomeToDemoWindow@@UAEPAXI@Z 00480420 f i * CIL library *:* CIL module *
 0001:0007f420       ??_GWelcomeToDemoWindow@@UAEPAXI@Z 00480420 f i demo_window.obj
 0001:0007f450       ??1WelcomeToDemoWindow@@UAE@XZ 00480450 f i demo_window.obj
 0001:0007f460       ?Create@WelcomeToDemoWindow@@UAEXXZ 00480460 f   demo_window.obj
 0001:0007f580       ?Render@WelcomeToDemoWindow@@UAEX_N@Z 00480580 f   demo_window.obj
 0001:0007f8c0       ??0FadingWindow@@QAE@PBD@Z 004808c0 f   fading_window.obj
 0001:0007f900       ??_EFadingWindow@@UAEPAXI@Z 00480900 f i * CIL library *:* CIL module *
 0001:0007f900       ??_GFadingWindow@@UAEPAXI@Z 00480900 f i fading_window.obj
 0001:0007f930       ?Render@FadingWindow@@UAEX_N@Z 00480930 f   fading_window.obj
 0001:0007f940       ?Render@FadingWindow@@QAEX_N0@Z 00480940 f   fading_window.obj
 0001:0007fb90       ?SaveProperties@FadingWindow@@QAEXPBD@Z 00480b90 f   fading_window.obj
 0001:0007fbf0       ?LoadProperties@FadingWindow@@QAEXPBD@Z 00480bf0 f   fading_window.obj
 0001:0007fc60       ??0FleetPlacementIconWindow@@QAE@PADH@Z 00480c60 f   fleet_placement_icon.obj
 0001:0007fcb0       ??_EFleetPlacementIconWindow@@UAEPAXI@Z 00480cb0 f i * CIL library *:* CIL module *
 0001:0007fcb0       ??_GFleetPlacementIconWindow@@UAEPAXI@Z 00480cb0 f i fleet_placement_icon.obj
 0001:0007fce0       ??1FleetPlacementIconWindow@@UAE@XZ 00480ce0 f i fleet_placement_icon.obj
 0001:0007fcf0       ?Render@FleetPlacementIconWindow@@UAEX_N@Z 00480cf0 f   fleet_placement_icon.obj
 0001:0007fd20       ?Create@FleetPlacementIconWindow@@UAEXXZ 00480d20 f   fleet_placement_icon.obj
 0001:0007fd80       ??0FleetPlacementIconButton@@QAE@H@Z 00480d80 f   fleet_placement_icon.obj
 0001:0007fda0       ??_EFleetPlacementIconButton@@UAEPAXI@Z 00480da0 f i * CIL library *:* CIL module *
 0001:0007fda0       ??_GFleetPlacementIconButton@@UAEPAXI@Z 00480da0 f i fleet_placement_icon.obj
 0001:0007fdd0       ??1FleetPlacementIconButton@@UAE@XZ 00480dd0 f i fleet_placement_icon.obj
 0001:0007fde0       ?Render@FleetPlacementIconButton@@UAEXHH_N0@Z 00480de0 f   fleet_placement_icon.obj
 0001:00080150       ?MouseUp@FleetPlacementIconButton@@UAEXXZ 00481150 f   fleet_placement_icon.obj
 0001:000805e0       ?PutData@?$LList@PBD@@QAEXABQBD@Z 004815e0 f i fleet_placement_icon.obj
 0001:000805f0       ?PutDataAtEnd@?$LList@PBD@@QAEXABQBD@Z 004815f0 f i fleet_placement_icon.obj
 0001:00080650       ??0?$LListItem@PBD@@QAE@XZ 00481650 f i fleet_placement_icon.obj
 0001:00080670       ??0InfoWindow@@QAE@XZ      00481670 f   info_window.obj
 0001:00080710       ??_EInfoWindow@@UAEPAXI@Z  00481710 f i * CIL library *:* CIL module *
 0001:00080710       ??_GInfoWindow@@UAEPAXI@Z  00481710 f i info_window.obj
 0001:00080740       ??1InfoWindow@@UAE@XZ      00481740 f i info_window.obj
 0001:00080750       ?Create@InfoWindow@@UAEXXZ 00481750 f   info_window.obj
 0001:00080760       ?Render@InfoWindow@@UAEX_N@Z 00481760 f   info_window.obj
 0001:00080eb0       ?SwitchInfoDisplay@InfoWindow@@QAEXHH@Z 00481eb0 f   info_window.obj
 0001:00080ed0       ??0WorldMessage@@QAE@XZ    00481ed0 f i interface.obj
 0001:00080f20       ?TooltipRender@Interface@@KAXPAVEclWindow@@PAVEclButton@@M@Z 00481f20 f   interface.obj
 0001:00081360       ??0Interface@@QAE@XZ       00482360 f   interface.obj
 0001:00081390       ??1Interface@@QAE@XZ       00482390 f   interface.obj
 0001:000813a0       ?Init@Interface@@QAEXXZ    004823a0 f   interface.obj
 0001:000813f0       ?Update@Interface@@QAEXXZ  004823f0 f   interface.obj
 0001:00081620       ?Render@Interface@@QAEXXZ  00482620 f   interface.obj
 0001:000824c0       ?RenderMouse@Interface@@QAEXXZ 004834c0 f   interface.obj
 0001:00082590       ?ShowMessage@Interface@@QAEXVFixed@@0HPBD_N@Z 00483590 f   interface.obj
 0001:000826c0       ?Shutdown@Interface@@QAEXXZ 004836c0 f   interface.obj
 0001:000826d0       ?OpenSetupWindows@Interface@@QAEXXZ 004836d0 f   interface.obj
 0001:00082740       ?OpenGameWindows@Interface@@QAEXXZ 00483740 f   interface.obj
 0001:00082980       ?UsingChatWindow@Interface@@QAE_NXZ 00483980 f   interface.obj
 0001:000829d0       ?SetMouseCursor@Interface@@QAEXPBD@Z 004839d0 f   interface.obj
 0001:00082a30       ??0?$LList@PAVWorldMessage@@@@QAE@XZ 00483a30 f i interface.obj
 0001:00082a60       ??1?$LList@PAVWorldMessage@@@@QAE@XZ 00483a60 f i interface.obj
 0001:00082a70       ?PutDataAtStart@?$LList@PAVWorldMessage@@@@QAEXABQAVWorldMessage@@@Z 00483a70 f i interface.obj
 0001:00082ae0       ?RemoveData@?$LList@PAVWorldMessage@@@@QAEXH@Z 00483ae0 f i interface.obj
 0001:00082ba0       ?ValidIndex@?$LList@PAVWorldMessage@@@@QBE_NH@Z 00483ba0 f i interface.obj
 0001:00082bc0       ?EmptyAndDelete@?$LList@PAVWorldMessage@@@@QAEXXZ 00483bc0 f i interface.obj
 0001:00082ca0       ??A?$LList@PAVWorldMessage@@@@QAEPAVWorldMessage@@H@Z 00483ca0 f i interface.obj
 0001:00082cc0       ??_G?$LListItem@PAVWorldMessage@@@@QAEPAXI@Z 00483cc0 f i interface.obj
 0001:00082ce0       ?GetItem@?$LList@PAVWorldMessage@@@@IBEPAV?$LListItem@PAVWorldMessage@@@@H@Z 00483ce0 f i interface.obj
 0001:00082d90       ?GetData@?$LList@PAVWorldMessage@@@@QBEPAVWorldMessage@@H@Z 00483d90 f i interface.obj
 0001:00082db0       ?Size@?$LList@PAVWorldMessage@@@@QBEHXZ 00483db0 f i interface.obj
 0001:00082dc0       ?Empty@?$LList@PAVWorldMessage@@@@QAEXXZ 00483dc0 f i interface.obj
 0001:00082e10       ??0?$LListItem@PAVWorldMessage@@@@QAE@XZ 00483e10 f i interface.obj
 0001:00082e30       ??1?$LListItem@PAVWorldMessage@@@@QAE@XZ 00483e30 f i interface.obj
 0001:00082e50       ?ShouldAllowServerControls@Server@@QBE_NXZ 00483e50 f i lobby_window.obj
 0001:00082e60       ?HasServerPrivileges@App@@QAE_NXZ 00483e60 f i lobby_window.obj
 0001:00082e80       ?Render@LobbyOptionsButton@@UAEXHH_N0@Z 00483e80 f i lobby_window.obj
 0001:00082f90       ?IsVisible@RequestJoinSpectatorsButton@@QAE_NXZ 00483f90 f i lobby_window.obj
 0001:00083000       ?Render@RequestJoinSpectatorsButton@@UAEXHH_N0@Z 00484000 f i lobby_window.obj
 0001:00083030       ?MouseUp@RequestJoinSpectatorsButton@@UAEXXZ 00484030 f i lobby_window.obj
 0001:00083060       ?IsVisible@RequestJoinGameButton@@QAE_NXZ 00484060 f i lobby_window.obj
 0001:000830d0       ?Render@RequestJoinGameButton@@UAEXHH_N0@Z 004840d0 f i lobby_window.obj
 0001:00083100       ?MouseUp@RequestJoinGameButton@@UAEXXZ 00484100 f i lobby_window.obj
 0001:00083120       ?MouseUp@RenameButton@@EAEXXZ 00484120 f i lobby_window.obj
 0001:000831c0       ?MouseUp@KickTeamButton@@EAEXXZ 004841c0 f i lobby_window.obj
 0001:00083230       ?MouseUp@CancelLobbyOptionsButton@@EAEXXZ 00484230 f i lobby_window.obj
 0001:00083240       ?Render@TeamAllianceButton@@UAEXHH_N0@Z 00484240 f i lobby_window.obj
 0001:00083450       ?MouseUp@TeamAllianceButton@@UAEXXZ 00484450 f i lobby_window.obj
 0001:00083480       ??0TeamOptionsWindow@@QAE@H@Z 00484480 f   lobby_window.obj
 0001:000834d0       ??_ETeamOptionsWindow@@UAEPAXI@Z 004844d0 f i * CIL library *:* CIL module *
 0001:000834d0       ??_GTeamOptionsWindow@@UAEPAXI@Z 004844d0 f i lobby_window.obj
 0001:00083500       ??1TeamOptionsWindow@@UAE@XZ 00484500 f i lobby_window.obj
 0001:00083510       ?Create@TeamOptionsWindow@@UAEXXZ 00484510 f   lobby_window.obj
 0001:000839a0       ??0RenameButton@@QAE@XZ    004849a0 f i lobby_window.obj
 0001:000839c0       ??0LobbyOptionsButton@@QAE@XZ 004849c0 f i lobby_window.obj
 0001:000839e0       ??0KickTeamButton@@QAE@XZ  004849e0 f i lobby_window.obj
 0001:00083a00       ??0RequestJoinSpectatorsButton@@QAE@XZ 00484a00 f i lobby_window.obj
 0001:00083a20       ??0TeamAllianceButton@@QAE@XZ 00484a20 f i lobby_window.obj
 0001:00083a40       ??0CancelLobbyOptionsButton@@QAE@XZ 00484a40 f i lobby_window.obj
 0001:00083a60       ??_ERenameButton@@UAEPAXI@Z 00484a60 f i * CIL library *:* CIL module *
 0001:00083a60       ??_GRenameButton@@UAEPAXI@Z 00484a60 f i lobby_window.obj
 0001:00083a90       ??1RenameButton@@UAE@XZ    00484a90 f i lobby_window.obj
 0001:00083aa0       ??1LobbyOptionsButton@@UAE@XZ 00484aa0 f i lobby_window.obj
 0001:00083ab0       ??_ELobbyOptionsButton@@UAEPAXI@Z 00484ab0 f i * CIL library *:* CIL module *
 0001:00083ab0       ??_GLobbyOptionsButton@@UAEPAXI@Z 00484ab0 f i lobby_window.obj
 0001:00083ae0       ??_EKickTeamButton@@UAEPAXI@Z 00484ae0 f i * CIL library *:* CIL module *
 0001:00083ae0       ??_GKickTeamButton@@UAEPAXI@Z 00484ae0 f i lobby_window.obj
 0001:00083b10       ??1KickTeamButton@@UAE@XZ  00484b10 f i lobby_window.obj
 0001:00083b20       ??_ERequestJoinSpectatorsButton@@UAEPAXI@Z 00484b20 f i * CIL library *:* CIL module *
 0001:00083b20       ??_GRequestJoinSpectatorsButton@@UAEPAXI@Z 00484b20 f i lobby_window.obj
 0001:00083b50       ??1RequestJoinSpectatorsButton@@UAE@XZ 00484b50 f i lobby_window.obj
 0001:00083b60       ??_ETeamAllianceButton@@UAEPAXI@Z 00484b60 f i * CIL library *:* CIL module *
 0001:00083b60       ??_GTeamAllianceButton@@UAEPAXI@Z 00484b60 f i lobby_window.obj
 0001:00083b90       ??1TeamAllianceButton@@UAE@XZ 00484b90 f i lobby_window.obj
 0001:00083ba0       ??_ECancelLobbyOptionsButton@@UAEPAXI@Z 00484ba0 f i * CIL library *:* CIL module *
 0001:00083ba0       ??_GCancelLobbyOptionsButton@@UAEPAXI@Z 00484ba0 f i lobby_window.obj
 0001:00083bd0       ??1CancelLobbyOptionsButton@@UAE@XZ 00484bd0 f i lobby_window.obj
 0001:00083be0       ?Update@TeamOptionsWindow@@UAEXXZ 00484be0 f   lobby_window.obj
 0001:00083c50       ?TeamOptionsAvailable@TeamButton@@QAE_NXZ 00484c50 f i lobby_window.obj
 0001:00083ca0       ?GetTeamOptionsButton@TeamButton@@QAEXAAH000@Z 00484ca0 f i lobby_window.obj
 0001:00083ce0       ?MouseInTeamOptionsButton@TeamButton@@QAE_NXZ 00484ce0 f i lobby_window.obj
 0001:00083d50       ?Render@TeamButton@@UAEXHH_N0@Z 00484d50 f i lobby_window.obj
 0001:000848d0       ?MouseUp@TeamButton@@UAEXXZ 004858d0 f i lobby_window.obj
 0001:00084be0       ??0ClientOptionButton@@QAE@XZ 00485be0 f i lobby_window.obj
 0001:00084c20       ?Render@ClientOptionButton@@UAEXHH_N0@Z 00485c20 f i lobby_window.obj
 0001:00084fc0       ??_EClientOptionButton@@UAEPAXI@Z 00485fc0 f i * CIL library *:* CIL module *
 0001:00084fc0       ??_GClientOptionButton@@UAEPAXI@Z 00485fc0 f i lobby_window.obj
 0001:00084ff0       ??1ClientOptionButton@@UAE@XZ 00485ff0 f i lobby_window.obj
 0001:00085000       ??0TeamReadyButton@@QAE@XZ 00486000 f i lobby_window.obj
 0001:00085020       ??1TeamReadyButton@@UAE@XZ 00486020 f i lobby_window.obj
 0001:00085050       ?IsEnable@TeamReadyButton@@QAE_NXZ 00486050 f i lobby_window.obj
 0001:000851e0       ?IsVisible@TeamReadyButton@@QAE_NXZ 004861e0 f i lobby_window.obj
 0001:00085210       ?Render@TeamReadyButton@@UAEXHH_N0@Z 00486210 f i lobby_window.obj
 0001:000852a0       ?MouseUp@TeamReadyButton@@UAEXXZ 004862a0 f i lobby_window.obj
 0001:00085480       ??_ETeamReadyButton@@UAEPAXI@Z 00486480 f i * CIL library *:* CIL module *
 0001:00085480       ??_GTeamReadyButton@@UAEPAXI@Z 00486480 f i lobby_window.obj
 0001:000854d0       ?IsVisible@RequestAIButton@@AAE_NXZ 004864d0 f i lobby_window.obj
 0001:00085500       ?Render@RequestAIButton@@EAEXHH_N0@Z 00486500 f i lobby_window.obj
 0001:00085570       ?MouseUp@RequestAIButton@@EAEXXZ 00486570 f i lobby_window.obj
 0001:000855d0       ?MouseUp@ExitButton@@UAEXXZ 004865d0 f i lobby_window.obj
 0001:00085600       ?Render@MiniWorldMapButton@@UAEXHH_N0@Z 00486600 f i lobby_window.obj
 0001:00085cd0       ?RegisterGameOptionButton@@YAXPAVInterfaceWindow@@MMMMMHAAV?$BoundedArray@PAVGameOption@@@@_N22M@Z 00486cd0 f   lobby_window.obj
 0001:00086140       ?SetGameOptions@@YAXAAV?$BoundedArray@PAVGameOption@@@@@Z 00487140 f   lobby_window.obj
 0001:00086250       ?MouseUp@AdvancedOptionsButton@@EAEXXZ 00487250 f i lobby_window.obj
 0001:000862e0       ??0LobbyOptionsWindow@@QAE@XZ 004872e0 f   lobby_window.obj
 0001:00086390       ??_ELobbyOptionsWindow@@UAEPAXI@Z 00487390 f i * CIL library *:* CIL module *
 0001:00086390       ??_GLobbyOptionsWindow@@UAEPAXI@Z 00487390 f i lobby_window.obj
 0001:000863d0       ??1LobbyOptionsWindow@@UAE@XZ 004873d0 f i lobby_window.obj
 0001:000863f0       ?Create@LobbyOptionsWindow@@UAEXXZ 004873f0 f   lobby_window.obj
 0001:00086630       ?Update@LobbyOptionsWindow@@UAEXXZ 00487630 f   lobby_window.obj
 0001:000868a0       ?Render@LobbyOptionsWindow@@UAEX_N@Z 004878a0 f   lobby_window.obj
 0001:00086cc0       ??0LobbyWindow@@QAE@XZ     00487cc0 f   lobby_window.obj
 0001:00086d70       ??_ELobbyWindow@@UAEPAXI@Z 00487d70 f i * CIL library *:* CIL module *
 0001:00086d70       ??_GLobbyWindow@@UAEPAXI@Z 00487d70 f i lobby_window.obj
 0001:00086da0       ??1LobbyWindow@@UAE@XZ     00487da0 f   lobby_window.obj
 0001:00086e30       ?StartNewServer@LobbyWindow@@QAE_NXZ 00487e30 f   lobby_window.obj
 0001:00086ea0       ?Create@LobbyWindow@@UAEXXZ 00487ea0 f   lobby_window.obj
 0001:00087390       ??0TeamButton@@QAE@XZ      00488390 f i lobby_window.obj
 0001:000873a0       ??0RequestAIButton@@QAE@XZ 004883a0 f i lobby_window.obj
 0001:000873b0       ??0RequestJoinGameButton@@QAE@XZ 004883b0 f i lobby_window.obj
 0001:000873c0       ??0MiniWorldMapButton@@QAE@XZ 004883c0 f i lobby_window.obj
 0001:000873d0       ??0AdvancedOptionsButton@@QAE@XZ 004883d0 f i lobby_window.obj
 0001:000873e0       ??0ExitButton@@QAE@XZ      004883e0 f i lobby_window.obj
 0001:000873f0       ??_ETeamButton@@UAEPAXI@Z  004883f0 f i * CIL library *:* CIL module *
 0001:000873f0       ??_GTeamButton@@UAEPAXI@Z  004883f0 f i lobby_window.obj
 0001:00087420       ??1TeamButton@@UAE@XZ      00488420 f i lobby_window.obj
 0001:00087430       ??_ERequestAIButton@@UAEPAXI@Z 00488430 f i * CIL library *:* CIL module *
 0001:00087430       ??_GRequestAIButton@@UAEPAXI@Z 00488430 f i lobby_window.obj
 0001:00087460       ??1RequestAIButton@@UAE@XZ 00488460 f i lobby_window.obj
 0001:00087470       ??_ERequestJoinGameButton@@UAEPAXI@Z 00488470 f i * CIL library *:* CIL module *
 0001:00087470       ??_GRequestJoinGameButton@@UAEPAXI@Z 00488470 f i lobby_window.obj
 0001:000874a0       ??1RequestJoinGameButton@@UAE@XZ 004884a0 f i lobby_window.obj
 0001:000874b0       ??_EMiniWorldMapButton@@UAEPAXI@Z 004884b0 f i * CIL library *:* CIL module *
 0001:000874b0       ??_GMiniWorldMapButton@@UAEPAXI@Z 004884b0 f i lobby_window.obj
 0001:000874e0       ??1MiniWorldMapButton@@UAE@XZ 004884e0 f i lobby_window.obj
 0001:000874f0       ??_EAdvancedOptionsButton@@UAEPAXI@Z 004884f0 f i * CIL library *:* CIL module *
 0001:000874f0       ??_GAdvancedOptionsButton@@UAEPAXI@Z 004884f0 f i lobby_window.obj
 0001:00087520       ??1AdvancedOptionsButton@@UAE@XZ 00488520 f i lobby_window.obj
 0001:00087530       ??_EExitButton@@UAEPAXI@Z  00488530 f i * CIL library *:* CIL module *
 0001:00087530       ??_GExitButton@@UAEPAXI@Z  00488530 f i lobby_window.obj
 0001:00087560       ??1ExitButton@@UAE@XZ      00488560 f i lobby_window.obj
 0001:00087570       ?OrderTeams@LobbyWindow@@QAEXXZ 00488570 f   lobby_window.obj
 0001:00087760       ?Update@LobbyWindow@@UAEXXZ 00488760 f   lobby_window.obj
 0001:00087c30       ?Render@LobbyWindow@@UAEX_N@Z 00488c30 f   lobby_window.obj
 0001:00088950       ?MouseUp@ApplyTeamNameButton@@EAEXXZ 00489950 f i lobby_window.obj
 0001:00088a80       ??0RenameTeamWindow@@QAE@H@Z 00489a80 f   lobby_window.obj
 0001:00088cc0       ??_ERenameTeamWindow@@UAEPAXI@Z 00489cc0 f i * CIL library *:* CIL module *
 0001:00088cc0       ??_GRenameTeamWindow@@UAEPAXI@Z 00489cc0 f i lobby_window.obj
 0001:00088cf0       ??1RenameTeamWindow@@UAE@XZ 00489cf0 f i lobby_window.obj
 0001:00088d00       ?Create@RenameTeamWindow@@UAEXXZ 00489d00 f   lobby_window.obj
 0001:00088e20       ??0ApplyTeamNameButton@@QAE@XZ 00489e20 f i lobby_window.obj
 0001:00088e30       ??_EApplyTeamNameButton@@UAEPAXI@Z 00489e30 f i * CIL library *:* CIL module *
 0001:00088e30       ??_GApplyTeamNameButton@@UAEPAXI@Z 00489e30 f i lobby_window.obj
 0001:00088e60       ??1ApplyTeamNameButton@@UAE@XZ 00489e60 f i lobby_window.obj
 0001:00088e70       ?Render@RenameTeamWindow@@UAEX_N@Z 00489e70 f   lobby_window.obj
 0001:00088f10       ?ValidIndex@?$DArray@PAVServerTeam@@@@QBE_NH@Z 00489f10 f i lobby_window.obj
 0001:00088f40       ??A?$DArray@PAVServerTeam@@@@QAEAAPAVServerTeam@@H@Z 00489f40 f i lobby_window.obj
 0001:00088fa0       ??0?$BoundedArray@PAVGameOption@@@@QAE@XZ 00489fa0 f i lobby_window.obj
 0001:00088fb0       ??1?$BoundedArray@PAVGameOption@@@@QAE@XZ 00489fb0 f i lobby_window.obj
 0001:00088fc0       ?Initialise@?$BoundedArray@PAVGameOption@@@@QAEXI@Z 00489fc0 f i lobby_window.obj
 0001:00088ff0       ??A?$BoundedArray@PAVGameOption@@@@QAEAAPAVGameOption@@I@Z 00489ff0 f i lobby_window.obj
 0001:00089020       ?SetAll@?$BoundedArray@PAVGameOption@@@@QAEXABQAVGameOption@@@Z 0048a020 f i lobby_window.obj
 0001:00089050       ?Empty@?$BoundedArray@PAVGameOption@@@@QAEXXZ 0048a050 f i lobby_window.obj
 0001:00089080       ?MouseUp@MainMenuNewGameButton@@EAEXXZ 0048a080 f i mainmenu.obj
 0001:00089270       ?Render@MainMenuNewGameButton@@EAEXHH_N0@Z 0048a270 f i mainmenu.obj
 0001:00089280       ??0MainMenuPlaybackRecordingButton@@QAE@XZ 0048a280 f i mainmenu.obj
 0001:000892b0       ?MouseUp@MainMenuPlaybackRecordingButton@@UAEXXZ 0048a2b0 f i mainmenu.obj
 0001:000893d0       ?Render@MainMenuPlaybackRecordingButton@@UAEXHH_N0@Z 0048a3d0 f i mainmenu.obj
 0001:000893e0       ??_EMainMenuPlaybackRecordingButton@@UAEPAXI@Z 0048a3e0 f i * CIL library *:* CIL module *
 0001:000893e0       ??_GMainMenuPlaybackRecordingButton@@UAEPAXI@Z 0048a3e0 f i mainmenu.obj
 0001:00089410       ??1MainMenuPlaybackRecordingButton@@UAE@XZ 0048a410 f i mainmenu.obj
 0001:00089420       ?MouseUp@MainMenuJoinGameButton@@EAEXXZ 0048a420 f i mainmenu.obj
 0001:000894b0       ?Render@MainMenuJoinGameButton@@EAEXHH_N0@Z 0048a4b0 f i mainmenu.obj
 0001:000894c0       ?MouseUp@MainMenuOptionsButton@@EAEXXZ 0048a4c0 f i mainmenu.obj
 0001:00089540       ?MouseUp@ConfirmExitButton@@EAEXXZ 0048a540 f i mainmenu.obj
 0001:00089550       ??0ConfirmExitWindow@@QAE@XZ 0048a550 f i mainmenu.obj
 0001:00089590       ?Create@ConfirmExitWindow@@UAEXXZ 0048a590 f i mainmenu.obj
 0001:00089650       ?Render@ConfirmExitWindow@@UAEX_N@Z 0048a650 f i mainmenu.obj
 0001:000896d0       ??_EConfirmExitWindow@@UAEPAXI@Z 0048a6d0 f i * CIL library *:* CIL module *
 0001:000896d0       ??_GConfirmExitWindow@@UAEPAXI@Z 0048a6d0 f i mainmenu.obj
 0001:00089700       ??1ConfirmExitWindow@@UAE@XZ 0048a700 f i mainmenu.obj
 0001:00089710       ??0ConfirmExitButton@@QAE@XZ 0048a710 f i mainmenu.obj
 0001:00089720       ??_EConfirmExitButton@@UAEPAXI@Z 0048a720 f i * CIL library *:* CIL module *
 0001:00089720       ??_GConfirmExitButton@@UAEPAXI@Z 0048a720 f i mainmenu.obj
 0001:00089750       ??1ConfirmExitButton@@UAE@XZ 0048a750 f i mainmenu.obj
 0001:00089760       ?MouseUp@MainMenuExitButton@@EAEXXZ 0048a760 f i mainmenu.obj
 0001:00089880       ?MouseUp@ConfirmLeaveGameButton@@EAEXXZ 0048a880 f i mainmenu.obj
 0001:000898a0       ??0ConfirmLeaveGameWindow@@QAE@XZ 0048a8a0 f i mainmenu.obj
 0001:000898e0       ?Create@ConfirmLeaveGameWindow@@UAEXXZ 0048a8e0 f i mainmenu.obj
 0001:000899a0       ?Render@ConfirmLeaveGameWindow@@UAEX_N@Z 0048a9a0 f i mainmenu.obj
 0001:00089a20       ??_EConfirmLeaveGameWindow@@UAEPAXI@Z 0048aa20 f i * CIL library *:* CIL module *
 0001:00089a20       ??_GConfirmLeaveGameWindow@@UAEPAXI@Z 0048aa20 f i mainmenu.obj
 0001:00089a50       ??1ConfirmLeaveGameWindow@@UAE@XZ 0048aa50 f i mainmenu.obj
 0001:00089a60       ??0ConfirmLeaveGameButton@@QAE@XZ 0048aa60 f i mainmenu.obj
 0001:00089a70       ??_EConfirmLeaveGameButton@@UAEPAXI@Z 0048aa70 f i * CIL library *:* CIL module *
 0001:00089a70       ??_GConfirmLeaveGameButton@@UAEPAXI@Z 0048aa70 f i mainmenu.obj
 0001:00089aa0       ??1ConfirmLeaveGameButton@@UAE@XZ 0048aaa0 f i mainmenu.obj
 0001:00089ab0       ?MouseUp@MainMenuLeaveGameButton@@EAEXXZ 0048aab0 f i mainmenu.obj
 0001:00089b80       ?MouseUp@DebugButton@@EAEXXZ 0048ab80 f i mainmenu.obj
 0001:00089bf0       ??0DemoModeButton@@QAE@XZ  0048abf0 f i mainmenu.obj
 0001:00089c30       ?MouseUp@DemoModeButton@@UAEXXZ 0048ac30 f i mainmenu.obj
 0001:00089e30       ?Render@DemoModeButton@@UAEXHH_N0@Z 0048ae30 f i mainmenu.obj
 0001:0008a0e0       ??_EDemoModeButton@@UAEPAXI@Z 0048b0e0 f i * CIL library *:* CIL module *
 0001:0008a0e0       ??_GDemoModeButton@@UAEPAXI@Z 0048b0e0 f i mainmenu.obj
 0001:0008a110       ??1DemoModeButton@@UAE@XZ  0048b110 f i mainmenu.obj
 0001:0008a120       ?Render@TutorialModeButton@@UAEXHH_N0@Z 0048b120 f i mainmenu.obj
 0001:0008a400       ?MouseUp@TutorialModeButton@@UAEXXZ 0048b400 f i mainmenu.obj
 0001:0008a5b0       ??0TutorialMenu@@QAE@XZ    0048b5b0 f i mainmenu.obj
 0001:0008a5f0       ?Create@TutorialMenu@@UAEXXZ 0048b5f0 f i mainmenu.obj
 0001:0008a7e0       ??_ETutorialMenu@@UAEPAXI@Z 0048b7e0 f i * CIL library *:* CIL module *
 0001:0008a7e0       ??_GTutorialMenu@@UAEPAXI@Z 0048b7e0 f i mainmenu.obj
 0001:0008a810       ??1TutorialMenu@@UAE@XZ    0048b810 f i mainmenu.obj
 0001:0008a820       ??0TutorialModeButton@@QAE@XZ 0048b820 f i mainmenu.obj
 0001:0008a830       ??_ETutorialModeButton@@UAEPAXI@Z 0048b830 f i * CIL library *:* CIL module *
 0001:0008a830       ??_GTutorialModeButton@@UAEPAXI@Z 0048b830 f i mainmenu.obj
 0001:0008a860       ??1TutorialModeButton@@UAE@XZ 0048b860 f i mainmenu.obj
 0001:0008a870       ?MouseUp@ShowTutorialMenuButton@@EAEXXZ 0048b870 f i mainmenu.obj
 0001:0008a9e0       ?MouseUp@ModWindowButton@@UAEXXZ 0048b9e0 f i mainmenu.obj
 0001:0008aad0       ?ConfirmExit@@YAXPBD@Z     0048bad0 f   mainmenu.obj
 0001:0008abe0       ?AttemptQuitImmediately@@YAXXZ 0048bbe0 f   mainmenu.obj
 0001:0008ac10       ??0MainMenu@@QAE@XZ        0048bc10 f   mainmenu.obj
 0001:0008ac50       ??_EMainMenu@@UAEPAXI@Z    0048bc50 f i * CIL library *:* CIL module *
 0001:0008ac50       ??_GMainMenu@@UAEPAXI@Z    0048bc50 f i mainmenu.obj
 0001:0008ac80       ??1MainMenu@@UAE@XZ        0048bc80 f i mainmenu.obj
 0001:0008ac90       ?Create@MainMenu@@UAEXXZ   0048bc90 f   mainmenu.obj
 0001:0008b180       ??0MainMenuNewGameButton@@QAE@XZ 0048c180 f i mainmenu.obj
 0001:0008b190       ??0MainMenuJoinGameButton@@QAE@XZ 0048c190 f i mainmenu.obj
 0001:0008b1a0       ??0ShowTutorialMenuButton@@QAE@XZ 0048c1a0 f i mainmenu.obj
 0001:0008b1b0       ??0MainMenuOptionsButton@@QAE@XZ 0048c1b0 f i mainmenu.obj
 0001:0008b1c0       ??0DebugButton@@QAE@XZ     0048c1c0 f i mainmenu.obj
 0001:0008b1d0       ??0ModWindowButton@@QAE@XZ 0048c1d0 f i mainmenu.obj
 0001:0008b1e0       ??0MainMenuLeaveGameButton@@QAE@XZ 0048c1e0 f i mainmenu.obj
 0001:0008b1f0       ??0MainMenuExitButton@@QAE@XZ 0048c1f0 f i mainmenu.obj
 0001:0008b200       ??_EMainMenuNewGameButton@@UAEPAXI@Z 0048c200 f i * CIL library *:* CIL module *
 0001:0008b200       ??_GMainMenuNewGameButton@@UAEPAXI@Z 0048c200 f i mainmenu.obj
 0001:0008b230       ??1MainMenuNewGameButton@@UAE@XZ 0048c230 f i mainmenu.obj
 0001:0008b240       ??_EMainMenuJoinGameButton@@UAEPAXI@Z 0048c240 f i * CIL library *:* CIL module *
 0001:0008b240       ??_GMainMenuJoinGameButton@@UAEPAXI@Z 0048c240 f i mainmenu.obj
 0001:0008b270       ??1MainMenuJoinGameButton@@UAE@XZ 0048c270 f i mainmenu.obj
 0001:0008b280       ??_EShowTutorialMenuButton@@UAEPAXI@Z 0048c280 f i * CIL library *:* CIL module *
 0001:0008b280       ??_GShowTutorialMenuButton@@UAEPAXI@Z 0048c280 f i mainmenu.obj
 0001:0008b2b0       ??1ShowTutorialMenuButton@@UAE@XZ 0048c2b0 f i mainmenu.obj
 0001:0008b2c0       ??_EMainMenuOptionsButton@@UAEPAXI@Z 0048c2c0 f i * CIL library *:* CIL module *
 0001:0008b2c0       ??_GMainMenuOptionsButton@@UAEPAXI@Z 0048c2c0 f i mainmenu.obj
 0001:0008b2f0       ??1MainMenuOptionsButton@@UAE@XZ 0048c2f0 f i mainmenu.obj
 0001:0008b300       ??_EDebugButton@@UAEPAXI@Z 0048c300 f i * CIL library *:* CIL module *
 0001:0008b300       ??_GDebugButton@@UAEPAXI@Z 0048c300 f i mainmenu.obj
 0001:0008b330       ??1DebugButton@@UAE@XZ     0048c330 f i mainmenu.obj
 0001:0008b340       ??_EModWindowButton@@UAEPAXI@Z 0048c340 f i * CIL library *:* CIL module *
 0001:0008b340       ??_GModWindowButton@@UAEPAXI@Z 0048c340 f i mainmenu.obj
 0001:0008b370       ??1ModWindowButton@@UAE@XZ 0048c370 f i mainmenu.obj
 0001:0008b380       ??_EMainMenuLeaveGameButton@@UAEPAXI@Z 0048c380 f i * CIL library *:* CIL module *
 0001:0008b380       ??_GMainMenuLeaveGameButton@@UAEPAXI@Z 0048c380 f i mainmenu.obj
 0001:0008b3b0       ??1MainMenuLeaveGameButton@@UAE@XZ 0048c3b0 f i mainmenu.obj
 0001:0008b3c0       ??_EMainMenuExitButton@@UAEPAXI@Z 0048c3c0 f i * CIL library *:* CIL module *
 0001:0008b3c0       ??_GMainMenuExitButton@@UAEPAXI@Z 0048c3c0 f i mainmenu.obj
 0001:0008b3f0       ??1MainMenuExitButton@@UAE@XZ 0048c3f0 f i mainmenu.obj
 0001:0008b400       ?RestartWindowManager@DefconScreenOptionsWindow@@EAEXXZ 0048c400 f i mainmenu.obj
 0001:0008b410       ?MouseUp@PlayerNameOptionsButton@@EAEXXZ 0048c410 f i mainmenu.obj
 0001:0008b490       ?Render@PlayerNameOptionsButton@@EAEXHH_N0@Z 0048c490 f i mainmenu.obj
 0001:0008b510       ?MouseUp@ScreenOptionsButton@@EAEXXZ 0048c510 f i mainmenu.obj
 0001:0008b590       ??0DefconScreenOptionsWindow@@QAE@XZ 0048c590 f i mainmenu.obj
 0001:0008b5b0       ??_EDefconScreenOptionsWindow@@UAEPAXI@Z 0048c5b0 f i * CIL library *:* CIL module *
 0001:0008b5b0       ??_GDefconScreenOptionsWindow@@UAEPAXI@Z 0048c5b0 f i mainmenu.obj
 0001:0008b5e0       ??1DefconScreenOptionsWindow@@UAE@XZ 0048c5e0 f i mainmenu.obj
 0001:0008b5f0       ?MouseUp@GraphicsOptionsButton@@EAEXXZ 0048c5f0 f i mainmenu.obj
 0001:0008b650       ?MouseUp@SoundOptionsButton@@EAEXXZ 0048c650 f i mainmenu.obj
 0001:0008b6c0       ?MouseUp@NetworkOptionsButton@@EAEXXZ 0048c6c0 f i mainmenu.obj
 0001:0008b730       ?MouseUp@AuthOptionsButton@@EAEXXZ 0048c730 f i mainmenu.obj
 0001:0008b7a0       ?MouseUp@ControlOptionsButton@@EAEXXZ 0048c7a0 f i mainmenu.obj
 0001:0008b810       ??0OptionsMenuWindow@@QAE@XZ 0048c810 f   mainmenu.obj
 0001:0008b850       ??_EOptionsMenuWindow@@UAEPAXI@Z 0048c850 f i * CIL library *:* CIL module *
 0001:0008b850       ??_GOptionsMenuWindow@@UAEPAXI@Z 0048c850 f i mainmenu.obj
 0001:0008b880       ??1OptionsMenuWindow@@UAE@XZ 0048c880 f i mainmenu.obj
 0001:0008b890       ?Create@OptionsMenuWindow@@UAEXXZ 0048c890 f   mainmenu.obj
 0001:0008bb20       ??0ScreenOptionsButton@@QAE@XZ 0048cb20 f i mainmenu.obj
 0001:0008bb30       ??0GraphicsOptionsButton@@QAE@XZ 0048cb30 f i mainmenu.obj
 0001:0008bb40       ??0SoundOptionsButton@@QAE@XZ 0048cb40 f i mainmenu.obj
 0001:0008bb50       ??0NetworkOptionsButton@@QAE@XZ 0048cb50 f i mainmenu.obj
 0001:0008bb60       ??0AuthOptionsButton@@QAE@XZ 0048cb60 f i mainmenu.obj
 0001:0008bb70       ??0ControlOptionsButton@@QAE@XZ 0048cb70 f i mainmenu.obj
 0001:0008bb80       ??_EScreenOptionsButton@@UAEPAXI@Z 0048cb80 f i * CIL library *:* CIL module *
 0001:0008bb80       ??_GScreenOptionsButton@@UAEPAXI@Z 0048cb80 f i mainmenu.obj
 0001:0008bbb0       ??1ScreenOptionsButton@@UAE@XZ 0048cbb0 f i mainmenu.obj
 0001:0008bbc0       ??_EGraphicsOptionsButton@@UAEPAXI@Z 0048cbc0 f i * CIL library *:* CIL module *
 0001:0008bbc0       ??_GGraphicsOptionsButton@@UAEPAXI@Z 0048cbc0 f i mainmenu.obj
 0001:0008bbf0       ??1GraphicsOptionsButton@@UAE@XZ 0048cbf0 f i mainmenu.obj
 0001:0008bc00       ??_ESoundOptionsButton@@UAEPAXI@Z 0048cc00 f i * CIL library *:* CIL module *
 0001:0008bc00       ??_GSoundOptionsButton@@UAEPAXI@Z 0048cc00 f i mainmenu.obj
 0001:0008bc30       ??1SoundOptionsButton@@UAE@XZ 0048cc30 f i mainmenu.obj
 0001:0008bc40       ??_ENetworkOptionsButton@@UAEPAXI@Z 0048cc40 f i * CIL library *:* CIL module *
 0001:0008bc40       ??_GNetworkOptionsButton@@UAEPAXI@Z 0048cc40 f i mainmenu.obj
 0001:0008bc70       ??1NetworkOptionsButton@@UAE@XZ 0048cc70 f i mainmenu.obj
 0001:0008bc80       ??_EAuthOptionsButton@@UAEPAXI@Z 0048cc80 f i * CIL library *:* CIL module *
 0001:0008bc80       ??_GAuthOptionsButton@@UAEPAXI@Z 0048cc80 f i mainmenu.obj
 0001:0008bcb0       ??1AuthOptionsButton@@UAE@XZ 0048ccb0 f i mainmenu.obj
 0001:0008bcc0       ??_EControlOptionsButton@@UAEPAXI@Z 0048ccc0 f i * CIL library *:* CIL module *
 0001:0008bcc0       ??_GControlOptionsButton@@UAEPAXI@Z 0048ccc0 f i mainmenu.obj
 0001:0008bcf0       ??1ControlOptionsButton@@UAE@XZ 0048ccf0 f i mainmenu.obj
 0001:0008bd00       ?MouseUp@ApplyGraphicsButton@@EAEXXZ 0048cd00 f i mainmenu.obj
 0001:0008bde0       ??0GraphicsOptionsWindow@@QAE@XZ 0048cde0 f   mainmenu.obj
 0001:0008beb0       ??_EGraphicsOptionsWindow@@UAEPAXI@Z 0048ceb0 f i * CIL library *:* CIL module *
 0001:0008beb0       ??_GGraphicsOptionsWindow@@UAEPAXI@Z 0048ceb0 f i mainmenu.obj
 0001:0008bee0       ??1GraphicsOptionsWindow@@UAE@XZ 0048cee0 f i mainmenu.obj
 0001:0008bef0       ?Create@GraphicsOptionsWindow@@UAEXXZ 0048cef0 f   mainmenu.obj
 0001:0008c420       ??0ApplyGraphicsButton@@QAE@XZ 0048d420 f i mainmenu.obj
 0001:0008c430       ??_EApplyGraphicsButton@@UAEPAXI@Z 0048d430 f i * CIL library *:* CIL module *
 0001:0008c430       ??_GApplyGraphicsButton@@UAEPAXI@Z 0048d430 f i mainmenu.obj
 0001:0008c460       ??1ApplyGraphicsButton@@UAE@XZ 0048d460 f i mainmenu.obj
 0001:0008c470       ?Render@GraphicsOptionsWindow@@UAEX_N@Z 0048d470 f   mainmenu.obj
 0001:0008c780       ?MouseUp@ApplyControlsButton@@EAEXXZ 0048d780 f i mainmenu.obj
 0001:0008c980       ??0ControlOptionsWindow@@QAE@XZ 0048d980 f   mainmenu.obj
 0001:0008cb00       ??_EControlOptionsWindow@@UAEPAXI@Z 0048db00 f i * CIL library *:* CIL module *
 0001:0008cb00       ??_GControlOptionsWindow@@UAEPAXI@Z 0048db00 f i mainmenu.obj
 0001:0008cb30       ??1ControlOptionsWindow@@UAE@XZ 0048db30 f i mainmenu.obj
 0001:0008cb40       ?Create@ControlOptionsWindow@@UAEXXZ 0048db40 f   mainmenu.obj
 0001:0008d0e0       ??0PlayerNameOptionsButton@@QAE@XZ 0048e0e0 f i mainmenu.obj
 0001:0008d0f0       ??0ApplyControlsButton@@QAE@XZ 0048e0f0 f i mainmenu.obj
 0001:0008d100       ??_EPlayerNameOptionsButton@@UAEPAXI@Z 0048e100 f i * CIL library *:* CIL module *
 0001:0008d100       ??_GPlayerNameOptionsButton@@UAEPAXI@Z 0048e100 f i mainmenu.obj
 0001:0008d130       ??1PlayerNameOptionsButton@@UAE@XZ 0048e130 f i mainmenu.obj
 0001:0008d140       ??_EApplyControlsButton@@UAEPAXI@Z 0048e140 f i * CIL library *:* CIL module *
 0001:0008d140       ??_GApplyControlsButton@@UAEPAXI@Z 0048e140 f i mainmenu.obj
 0001:0008d170       ??1ApplyControlsButton@@UAE@XZ 0048e170 f i mainmenu.obj
 0001:0008d180       ?Render@ControlOptionsWindow@@UAEX_N@Z 0048e180 f   mainmenu.obj
 0001:0008d4e0       ?MouseUp@ApplyNetworkButton@@EAEXXZ 0048e4e0 f i mainmenu.obj
 0001:0008d700       ?Render@ShowNetworkingHelpButton@@EAEXHH_N0@Z 0048e700 f i mainmenu.obj
 0001:0008d7d0       ?MouseUp@ShowNetworkingHelpButton@@EAEXXZ 0048e7d0 f i mainmenu.obj
 0001:0008d860       ??0NetworkOptionsWindow@@QAE@XZ 0048e860 f   mainmenu.obj
 0001:0008d930       ??_ENetworkOptionsWindow@@UAEPAXI@Z 0048e930 f i * CIL library *:* CIL module *
 0001:0008d930       ??_GNetworkOptionsWindow@@UAEPAXI@Z 0048e930 f i mainmenu.obj
 0001:0008d960       ??1NetworkOptionsWindow@@UAE@XZ 0048e960 f i mainmenu.obj
 0001:0008d970       ?Create@NetworkOptionsWindow@@UAEXXZ 0048e970 f   mainmenu.obj
 0001:0008dc60       ??0ShowNetworkingHelpButton@@QAE@XZ 0048ec60 f i mainmenu.obj
 0001:0008dc80       ??0ApplyNetworkButton@@QAE@XZ 0048ec80 f i mainmenu.obj
 0001:0008dc90       ??_EShowNetworkingHelpButton@@UAEPAXI@Z 0048ec90 f i * CIL library *:* CIL module *
 0001:0008dc90       ??_GShowNetworkingHelpButton@@UAEPAXI@Z 0048ec90 f i mainmenu.obj
 0001:0008dcc0       ??1ShowNetworkingHelpButton@@UAE@XZ 0048ecc0 f i mainmenu.obj
 0001:0008dcd0       ??_EApplyNetworkButton@@UAEPAXI@Z 0048ecd0 f i * CIL library *:* CIL module *
 0001:0008dcd0       ??_GApplyNetworkButton@@UAEPAXI@Z 0048ecd0 f i mainmenu.obj
 0001:0008dd00       ??1ApplyNetworkButton@@UAE@XZ 0048ed00 f i mainmenu.obj
 0001:0008dd10       ?Render@NetworkOptionsWindow@@UAEX_N@Z 0048ed10 f   mainmenu.obj
 0001:0008df90       ?Render@InstalledModButton@@UAEXHH_N0@Z 0048ef90 f i mod_window.obj
 0001:0008e360       ?MouseUp@InstalledModButton@@UAEXXZ 0048f360 f i mod_window.obj
 0001:0008e3d0       ?IsVisible@ActivateDeactivateButton@@AAEHXZ 0048f3d0 f i mod_window.obj
 0001:0008e410       ?Render@ActivateDeactivateButton@@EAEXHH_N0@Z 0048f410 f i mod_window.obj
 0001:0008e480       ?MouseUp@ActivateDeactivateButton@@EAEXXZ 0048f480 f i mod_window.obj
 0001:0008e600       ?IsVisible@MoveModButton@@QAEHXZ 0048f600 f i mod_window.obj
 0001:0008e630       ?Render@MoveModButton@@UAEXHH_N0@Z 0048f630 f i mod_window.obj
 0001:0008e680       ?MouseUp@MoveModButton@@UAEXXZ 0048f680 f i mod_window.obj
 0001:0008e780       ?IsVisible@ApplyModsButton@@AAE_NXZ 0048f780 f i mod_window.obj
 0001:0008e790       ?Render@ApplyModsButton@@EAEXHH_N0@Z 0048f790 f i mod_window.obj
 0001:0008e7c0       ?MouseUp@ApplyModsButton@@EAEXXZ 0048f7c0 f i mod_window.obj
 0001:0008e7e0       ?Render@FindMoreModsButton@@EAEXHH_N0@Z 0048f7e0 f i mod_window.obj
 0001:0008e8c0       ?MouseUp@FindMoreModsButton@@EAEXXZ 0048f8c0 f i mod_window.obj
 0001:0008e950       ?GetValidURL@VisitModWebsiteButton@@AAEPADXZ 0048f950 f i mod_window.obj
 0001:0008e9c0       ?Render@VisitModWebsiteButton@@EAEXHH_N0@Z 0048f9c0 f i mod_window.obj
 0001:0008eb50       ?MouseUp@VisitModWebsiteButton@@EAEXXZ 0048fb50 f i mod_window.obj
 0001:0008ebd0       ??0ModWindow@@QAE@XZ       0048fbd0 f   mod_window.obj
 0001:0008ec40       ??_EModWindow@@UAEPAXI@Z   0048fc40 f i * CIL library *:* CIL module *
 0001:0008ec40       ??_GModWindow@@UAEPAXI@Z   0048fc40 f i mod_window.obj
 0001:0008ec70       ??1ModWindow@@UAE@XZ       0048fc70 f i mod_window.obj
 0001:0008ec80       ?Create@ModWindow@@UAEXXZ  0048fc80 f   mod_window.obj
 0001:0008f100       ??0InstalledModButton@@QAE@XZ 00490100 f i mod_window.obj
 0001:0008f110       ??0FindMoreModsButton@@QAE@XZ 00490110 f i mod_window.obj
 0001:0008f120       ??0ActivateDeactivateButton@@QAE@XZ 00490120 f i mod_window.obj
 0001:0008f130       ??0MoveModButton@@QAE@XZ   00490130 f i mod_window.obj
 0001:0008f140       ??0ApplyModsButton@@QAE@XZ 00490140 f i mod_window.obj
 0001:0008f150       ??0VisitModWebsiteButton@@QAE@XZ 00490150 f i mod_window.obj
 0001:0008f160       ??_EInstalledModButton@@UAEPAXI@Z 00490160 f i * CIL library *:* CIL module *
 0001:0008f160       ??_GInstalledModButton@@UAEPAXI@Z 00490160 f i mod_window.obj
 0001:0008f190       ??1InstalledModButton@@UAE@XZ 00490190 f i mod_window.obj
 0001:0008f1a0       ??_EFindMoreModsButton@@UAEPAXI@Z 004901a0 f i * CIL library *:* CIL module *
 0001:0008f1a0       ??_GFindMoreModsButton@@UAEPAXI@Z 004901a0 f i mod_window.obj
 0001:0008f1d0       ??1FindMoreModsButton@@UAE@XZ 004901d0 f i mod_window.obj
 0001:0008f1e0       ??_EActivateDeactivateButton@@UAEPAXI@Z 004901e0 f i * CIL library *:* CIL module *
 0001:0008f1e0       ??_GActivateDeactivateButton@@UAEPAXI@Z 004901e0 f i mod_window.obj
 0001:0008f210       ??1ActivateDeactivateButton@@UAE@XZ 00490210 f i mod_window.obj
 0001:0008f220       ??_EMoveModButton@@UAEPAXI@Z 00490220 f i * CIL library *:* CIL module *
 0001:0008f220       ??_GMoveModButton@@UAEPAXI@Z 00490220 f i mod_window.obj
 0001:0008f250       ??1MoveModButton@@UAE@XZ   00490250 f i mod_window.obj
 0001:0008f260       ??_EApplyModsButton@@UAEPAXI@Z 00490260 f i * CIL library *:* CIL module *
 0001:0008f260       ??_GApplyModsButton@@UAEPAXI@Z 00490260 f i mod_window.obj
 0001:0008f290       ??1ApplyModsButton@@UAE@XZ 00490290 f i mod_window.obj
 0001:0008f2a0       ??_EVisitModWebsiteButton@@UAEPAXI@Z 004902a0 f i * CIL library *:* CIL module *
 0001:0008f2a0       ??_GVisitModWebsiteButton@@UAEPAXI@Z 004902a0 f i mod_window.obj
 0001:0008f2d0       ??1VisitModWebsiteButton@@UAE@XZ 004902d0 f i mod_window.obj
 0001:0008f2e0       ?SelectMod@ModWindow@@QAEXPAD0@Z 004902e0 f   mod_window.obj
 0001:0008f480       ??_GBitmap@@QAEPAXI@Z      00490480 f i mod_window.obj
 0001:0008f4a0       ?Render@ModWindow@@UAEX_N@Z 004904a0 f   mod_window.obj
 0001:0008fa40       ??0NetworkWindow@@QAE@PAD0_N@Z 00490a40 f   network_window.obj
 0001:0008fa80       ??_ENetworkWindow@@UAEPAXI@Z 00490a80 f i * CIL library *:* CIL module *
 0001:0008fa80       ??_GNetworkWindow@@UAEPAXI@Z 00490a80 f i network_window.obj
 0001:0008fab0       ??1NetworkWindow@@UAE@XZ   00490ab0 f i network_window.obj
 0001:0008fac0       ?Create@NetworkWindow@@UAEXXZ 00490ac0 f   network_window.obj
 0001:0008fb90       ?Render@NetworkWindow@@UAEX_N@Z 00490b90 f   network_window.obj
 0001:00090d90       ?ValidIndex@?$DArray@PAVServerToClient@@@@QBE_NH@Z 00491d90 f i network_window.obj
 0001:00090dc0       ??A?$DArray@PAVServerToClient@@@@QAEAAPAVServerToClient@@H@Z 00491dc0 f i network_window.obj
 0001:00090e20       ??0PlacementIconWindow@@QAE@PADH@Z 00491e20 f   placement_icon.obj
 0001:00090e60       ??_EPlacementIconWindow@@UAEPAXI@Z 00491e60 f i * CIL library *:* CIL module *
 0001:00090e60       ??_GPlacementIconWindow@@UAEPAXI@Z 00491e60 f i placement_icon.obj
 0001:00090e90       ??1PlacementIconWindow@@UAE@XZ 00491e90 f i placement_icon.obj
 0001:00090ea0       ?Render@PlacementIconWindow@@UAEX_N@Z 00491ea0 f   placement_icon.obj
 0001:00090ef0       ?Create@PlacementIconWindow@@UAEXXZ 00491ef0 f   placement_icon.obj
 0001:00090f60       ??0PlacementIconButton@@QAE@H@Z 00491f60 f   placement_icon.obj
 0001:00090f80       ??_EPlacementIconButton@@UAEPAXI@Z 00491f80 f i * CIL library *:* CIL module *
 0001:00090f80       ??_GPlacementIconButton@@UAEPAXI@Z 00491f80 f i placement_icon.obj
 0001:00090fb0       ??1PlacementIconButton@@UAE@XZ 00491fb0 f i placement_icon.obj
 0001:00090fc0       ?Render@PlacementIconButton@@UAEXHH_N0@Z 00491fc0 f   placement_icon.obj
 0001:00091350       ?MouseUp@PlacementIconButton@@UAEXXZ 00492350 f   placement_icon.obj
 0001:00091530       ?IsSeeking@SeekBar@@QBE_NXZ 00492530 f i playback_control_window.obj
 0001:00091540       ?SetSeeking@SeekBar@@QAEX_N@Z 00492540 f i playback_control_window.obj
 0001:00091550       ?IsRecordingFastForwardMode@Server@@QBE_NXZ 00492550 f i playback_control_window.obj
 0001:00091560       ??0PlaybackControlWindow@@QAE@XZ 00492560 f   playback_control_window.obj
 0001:00091630       ??_EPlaybackControlWindow@@UAEPAXI@Z 00492630 f i * CIL library *:* CIL module *
 0001:00091630       ??_GPlaybackControlWindow@@UAEPAXI@Z 00492630 f i playback_control_window.obj
 0001:00091660       ??1PlaybackControlWindow@@UAE@XZ 00492660 f i playback_control_window.obj
 0001:00091670       ?Create@PlaybackControlWindow@@UAEXXZ 00492670 f   playback_control_window.obj
 0001:00091770       ??0PlayPauseButton@@QAE@XZ 00492770 f i playback_control_window.obj
 0001:00091780       ??_EPlayPauseButton@@UAEPAXI@Z 00492780 f i * CIL library *:* CIL module *
 0001:00091780       ??_GPlayPauseButton@@UAEPAXI@Z 00492780 f i playback_control_window.obj
 0001:000917b0       ??1PlayPauseButton@@UAE@XZ 004927b0 f i playback_control_window.obj
 0001:000917c0       ?Render@PlaybackControlWindow@@UAEX_N@Z 004927c0 f   playback_control_window.obj
 0001:00091980       ?Update@PlaybackControlWindow@@UAEXXZ 00492980 f   playback_control_window.obj
 0001:00091b90       ?TogglePause@PlaybackControlWindow@@QAEXXZ 00492b90 f   playback_control_window.obj
 0001:00091bc0       ?SetSpeed@PlaybackControlWindow@@QAEXM@Z 00492bc0 f   playback_control_window.obj
 0001:00091be0       ?SeekToPosition@PlaybackControlWindow@@QAEXM@Z 00492be0 f   playback_control_window.obj
 0001:00091d60       ?ShouldRender@PlaybackControlWindow@@QAE_NXZ 00492d60 f   playback_control_window.obj
 0001:00091d80       ?MouseUp@PlayPauseButton@@UAEXXZ 00492d80 f   playback_control_window.obj
 0001:00091d90       ?Render@PlayPauseButton@@UAEXHH_N0@Z 00492d90 f   playback_control_window.obj
 0001:00091da0       ??0SpeedSlider@@QAE@XZ     00492da0 f   playback_control_window.obj
 0001:00091dc0       ??_ESpeedSlider@@UAEPAXI@Z 00492dc0 f i * CIL library *:* CIL module *
 0001:00091dc0       ??_GSpeedSlider@@UAEPAXI@Z 00492dc0 f i playback_control_window.obj
 0001:00091df0       ??1SpeedSlider@@UAE@XZ     00492df0 f i playback_control_window.obj
 0001:00091e00       ?MouseDown@SpeedSlider@@UAEXXZ 00492e00 f   playback_control_window.obj
 0001:00091e90       ?MouseUp@SpeedSlider@@UAEXXZ 00492e90 f   playback_control_window.obj
 0001:00091ea0       ?Render@SpeedSlider@@UAEXHH_N0@Z 00492ea0 f   playback_control_window.obj
 0001:000920d0       ?Update@SpeedSlider@@QAEXXZ 004930d0 f   playback_control_window.obj
 0001:00092180       ?GetSpeedFromValue@SpeedSlider@@QAEMXZ 00493180 f   playback_control_window.obj
 0001:000921c0       ?SetValueFromSpeed@SpeedSlider@@QAEXM@Z 004931c0 f   playback_control_window.obj
 0001:00092230       ??0SeekBar@@QAE@XZ         00493230 f   playback_control_window.obj
 0001:00092260       ??_ESeekBar@@UAEPAXI@Z     00493260 f i * CIL library *:* CIL module *
 0001:00092260       ??_GSeekBar@@UAEPAXI@Z     00493260 f i playback_control_window.obj
 0001:00092290       ??1SeekBar@@UAE@XZ         00493290 f i playback_control_window.obj
 0001:000922a0       ?MouseDown@SeekBar@@UAEXXZ 004932a0 f   playback_control_window.obj
 0001:00092320       ?MouseUp@SeekBar@@UAEXXZ   00493320 f   playback_control_window.obj
 0001:00092350       ?Render@SeekBar@@UAEXHH_N0@Z 00493350 f   playback_control_window.obj
 0001:00092510       ?Update@SeekBar@@QAEXXZ    00493510 f   playback_control_window.obj
 0001:000925d0       ?SetProgress@SeekBar@@QAEXM@Z 004935d0 f   playback_control_window.obj
 0001:00092610       ?GetRawLmbClicked@InputManager@@QBE_NXZ 00493610 f i profile_window.obj
 0001:00092620       ?MouseUp@ProfilerButton@@UAEXXZ 00493620 f i profile_window.obj
 0001:00092710       ??0ProfileWindow@@QAE@PAD0_N@Z 00493710 f   profile_window.obj
 0001:000927b0       ??_EProfileWindow@@UAEPAXI@Z 004937b0 f i * CIL library *:* CIL module *
 0001:000927b0       ??_GProfileWindow@@UAEPAXI@Z 004937b0 f i profile_window.obj
 0001:000927e0       ??1ProfileWindow@@UAE@XZ   004937e0 f   profile_window.obj
 0001:00092810       ?RenderElementProfile@ProfileWindow@@IAEXPAVProfiledElement@@I@Z 00493810 f   profile_window.obj
 0001:00092c10       ?RenderFrameTimes@ProfileWindow@@IAEXMMMM@Z 00493c10 f   profile_window.obj
 0001:00093060       ?Render@ProfileWindow@@UAEX_N@Z 00494060 f   profile_window.obj
 0001:000931a0       ?Create@ProfileWindow@@UAEXXZ 004941a0 f   profile_window.obj
 0001:00093330       ??0ProfilerButton@@QAE@XZ  00494330 f i profile_window.obj
 0001:00093340       ??_EProfilerButton@@UAEPAXI@Z 00494340 f i * CIL library *:* CIL module *
 0001:00093340       ??_GProfilerButton@@UAEPAXI@Z 00494340 f i profile_window.obj
 0001:00093370       ??1ProfilerButton@@UAE@XZ  00494370 f i profile_window.obj
 0001:00093380       ?NumUsed@?$HashTable@PAVProfiledElement@@@@QBEIXZ 00494380 f i profile_window.obj
 0001:00093390       ?Render@PlayFromLobbyButton@@UAEXHH_N0@Z 00494390 f   recording_selection.obj
 0001:00093610       ?MouseUp@PlayFromLobbyButton@@UAEXXZ 00494610 f   recording_selection.obj
 0001:00093920       ?Render@PlayFromGameStartButton@@UAEXHH_N0@Z 00494920 f   recording_selection.obj
 0001:00093ba0       ?MouseUp@PlayFromGameStartButton@@UAEXXZ 00494ba0 f   recording_selection.obj
 0001:00093ef0       ??0RecordingSelectionWindow@@QAE@XZ 00494ef0 f   recording_selection.obj
 0001:00093fd0       ??_ERecordingSelectionWindow@@UAEPAXI@Z 00494fd0 f i * CIL library *:* CIL module *
 0001:00093fd0       ??_GRecordingSelectionWindow@@UAEPAXI@Z 00494fd0 f i recording_selection.obj
 0001:00094000       ??1RecordingSelectionWindow@@UAE@XZ 00495000 f i recording_selection.obj
 0001:00094010       ?Create@RecordingSelectionWindow@@UAEXXZ 00495010 f   recording_selection.obj
 0001:00094190       ??0PlayFromLobbyButton@@QAE@XZ 00495190 f i recording_selection.obj
 0001:000941a0       ??0PlayFromGameStartButton@@QAE@XZ 004951a0 f i recording_selection.obj
 0001:000941b0       ??_EPlayFromLobbyButton@@UAEPAXI@Z 004951b0 f i * CIL library *:* CIL module *
 0001:000941b0       ??_GPlayFromLobbyButton@@UAEPAXI@Z 004951b0 f i recording_selection.obj
 0001:000941e0       ??1PlayFromLobbyButton@@UAE@XZ 004951e0 f i recording_selection.obj
 0001:000941f0       ??_EPlayFromGameStartButton@@UAEPAXI@Z 004951f0 f i * CIL library *:* CIL module *
 0001:000941f0       ??_GPlayFromGameStartButton@@UAEPAXI@Z 004951f0 f i recording_selection.obj
 0001:00094220       ??1PlayFromGameStartButton@@UAE@XZ 00495220 f i recording_selection.obj
 0001:00094230       ?Render@RecordingSelectionWindow@@UAEX_N@Z 00495230 f   recording_selection.obj
 0001:00094470       ?MouseUp@ResynchronisedButton@@EAEXXZ 00495470 f i resynchronise_window.obj
 0001:00094580       ??0ResynchroniseWindow@@QAE@XZ 00495580 f   resynchronise_window.obj
 0001:00094600       ??_EResynchroniseWindow@@UAEPAXI@Z 00495600 f i * CIL library *:* CIL module *
 0001:00094600       ??_GResynchroniseWindow@@UAEPAXI@Z 00495600 f i resynchronise_window.obj
 0001:00094630       ??1ResynchroniseWindow@@UAE@XZ 00495630 f i resynchronise_window.obj
 0001:00094640       ?Create@ResynchroniseWindow@@UAEXXZ 00495640 f   resynchronise_window.obj
 0001:00094720       ??0ResynchronisedButton@@QAE@XZ 00495720 f i resynchronise_window.obj
 0001:00094730       ??_EResynchronisedButton@@UAEPAXI@Z 00495730 f i * CIL library *:* CIL module *
 0001:00094730       ??_GResynchronisedButton@@UAEPAXI@Z 00495730 f i resynchronise_window.obj
 0001:00094760       ??1ResynchronisedButton@@UAE@XZ 00495760 f i resynchronise_window.obj
 0001:00094770       ?Update@ResynchroniseWindow@@UAEXXZ 00495770 f   resynchronise_window.obj
 0001:000947b0       ?Render@ResynchroniseWindow@@UAEX_N@Z 004957b0 f   resynchronise_window.obj
 0001:00094930       ?Render@RequestServerListButton@@UAEXHH_N0@Z 00495930 f i serverbrowser_window.obj
 0001:00094a00       ?MouseUp@RequestServerListButton@@UAEXXZ 00495a00 f i serverbrowser_window.obj
 0001:00094a20       ?MouseUp@ApplyServerPasswordButton@@UAEXXZ 00495a20 f i serverbrowser_window.obj
 0001:00094ad0       ??0ServerPasswordWindow@@QAE@XZ 00495ad0 f   serverbrowser_window.obj
 0001:00094b50       ??_EServerPasswordWindow@@UAEPAXI@Z 00495b50 f i * CIL library *:* CIL module *
 0001:00094b50       ??_GServerPasswordWindow@@UAEPAXI@Z 00495b50 f i serverbrowser_window.obj
 0001:00094b80       ??1ServerPasswordWindow@@UAE@XZ 00495b80 f i serverbrowser_window.obj
 0001:00094b90       ?Create@ServerPasswordWindow@@UAEXXZ 00495b90 f   serverbrowser_window.obj
 0001:00094cb0       ??0ApplyServerPasswordButton@@QAE@XZ 00495cb0 f i serverbrowser_window.obj
 0001:00094cc0       ??_EApplyServerPasswordButton@@UAEPAXI@Z 00495cc0 f i * CIL library *:* CIL module *
 0001:00094cc0       ??_GApplyServerPasswordButton@@UAEPAXI@Z 00495cc0 f i serverbrowser_window.obj
 0001:00094cf0       ??1ApplyServerPasswordButton@@UAE@XZ 00495cf0 f i serverbrowser_window.obj
 0001:00094d00       ?Render@ServerPasswordWindow@@UAEX_N@Z 00495d00 f   serverbrowser_window.obj
 0001:00094d80       ?Render@JoinGameButton@@UAEXHH_N0@Z 00495d80 f i serverbrowser_window.obj
 0001:00094d90       ?MouseUp@JoinGameButton@@UAEXXZ 00495d90 f i serverbrowser_window.obj
 0001:00094dd0       ?RenderPlayerSlots@@YAXHHHHHHHHH@Z 00495dd0 f   serverbrowser_window.obj
 0001:00094ea0       ?Render@GameServerButton@@UAEXHH_N0@Z 00495ea0 f i serverbrowser_window.obj
 0001:000964c0       ?MouseUp@GameServerButton@@UAEXXZ 004974c0 f i serverbrowser_window.obj
 0001:00096550       ?SelectOption@UpdateServerListDropDownMenu@@EAEXH@Z 00497550 f i serverbrowser_window.obj
 0001:00096570       ?MouseUp@FiltersButton@@EAEXXZ 00497570 f i serverbrowser_window.obj
 0001:000965e0       ?MouseUp@SortButton@@UAEXXZ 004975e0 f i serverbrowser_window.obj
 0001:00096650       ?Render@SortButton@@UAEXHH_N0@Z 00497650 f i serverbrowser_window.obj
 0001:00096900       ??0ServerBrowserWindow@@QAE@XZ 00497900 f   serverbrowser_window.obj
 0001:00096a10       ??_EServerBrowserWindow@@UAEPAXI@Z 00497a10 f i * CIL library *:* CIL module *
 0001:00096a10       ??_GServerBrowserWindow@@UAEPAXI@Z 00497a10 f i serverbrowser_window.obj
 0001:00096a40       ?ConnectToServer@ServerBrowserWindow@@SA_NPAVDirectory@@PBD@Z 00497a40 f   serverbrowser_window.obj
 0001:000971c0       ?IsOurServer@ServerBrowserWindow@@SA_NPADH@Z 004981c0 f   serverbrowser_window.obj
 0001:000972f0       ??1ServerBrowserWindow@@UAE@XZ 004982f0 f   serverbrowser_window.obj
 0001:00097320       ??_G?$LList@PAVDirectory@@@@QAEPAXI@Z 00498320 f i serverbrowser_window.obj
 0001:00097340       ?Create@ServerBrowserWindow@@UAEXXZ 00498340 f   serverbrowser_window.obj
 0001:00097990       ??0SortButton@@QAE@XZ      00498990 f i serverbrowser_window.obj
 0001:000979a0       ??0GameServerButton@@QAE@XZ 004989a0 f i serverbrowser_window.obj
 0001:000979b0       ??0UpdateServerListDropDownMenu@@QAE@XZ 004989b0 f i serverbrowser_window.obj
 0001:000979d0       ??0FiltersButton@@QAE@XZ   004989d0 f i serverbrowser_window.obj
 0001:000979e0       ??0RequestServerListButton@@QAE@XZ 004989e0 f i serverbrowser_window.obj
 0001:000979f0       ??0JoinGameButton@@QAE@XZ  004989f0 f i serverbrowser_window.obj
 0001:00097a00       ??_ESortButton@@UAEPAXI@Z  00498a00 f i * CIL library *:* CIL module *
 0001:00097a00       ??_GSortButton@@UAEPAXI@Z  00498a00 f i serverbrowser_window.obj
 0001:00097a30       ??1SortButton@@UAE@XZ      00498a30 f i serverbrowser_window.obj
 0001:00097a40       ??_EGameServerButton@@UAEPAXI@Z 00498a40 f i * CIL library *:* CIL module *
 0001:00097a40       ??_GGameServerButton@@UAEPAXI@Z 00498a40 f i serverbrowser_window.obj
 0001:00097a70       ??1GameServerButton@@UAE@XZ 00498a70 f i serverbrowser_window.obj
 0001:00097a80       ??_EUpdateServerListDropDownMenu@@UAEPAXI@Z 00498a80 f i * CIL library *:* CIL module *
 0001:00097a80       ??_GUpdateServerListDropDownMenu@@UAEPAXI@Z 00498a80 f i serverbrowser_window.obj
 0001:00097ab0       ??1UpdateServerListDropDownMenu@@UAE@XZ 00498ab0 f i serverbrowser_window.obj
 0001:00097ac0       ??_EFiltersButton@@UAEPAXI@Z 00498ac0 f i * CIL library *:* CIL module *
 0001:00097ac0       ??_GFiltersButton@@UAEPAXI@Z 00498ac0 f i serverbrowser_window.obj
 0001:00097af0       ??1FiltersButton@@UAE@XZ   00498af0 f i serverbrowser_window.obj
 0001:00097b00       ??_ERequestServerListButton@@UAEPAXI@Z 00498b00 f i * CIL library *:* CIL module *
 0001:00097b00       ??_GRequestServerListButton@@UAEPAXI@Z 00498b00 f i serverbrowser_window.obj
 0001:00097b30       ??1RequestServerListButton@@UAE@XZ 00498b30 f i serverbrowser_window.obj
 0001:00097b40       ??_EJoinGameButton@@UAEPAXI@Z 00498b40 f i * CIL library *:* CIL module *
 0001:00097b40       ??_GJoinGameButton@@UAEPAXI@Z 00498b40 f i serverbrowser_window.obj
 0001:00097b70       ??1JoinGameButton@@UAE@XZ  00498b70 f i serverbrowser_window.obj
 0001:00097b80       ?FilterServerList@ServerBrowserWindow@@QAEXXZ 00498b80 f   serverbrowser_window.obj
 0001:00097fa0       ?IsServerInList@ServerBrowserWindow@@QAE_NPADH@Z 00498fa0 f   serverbrowser_window.obj
 0001:00098050       ?ScoreServer_Default@ServerBrowserWindow@@IAEHPAVDirectory@@@Z 00499050 f   serverbrowser_window.obj
 0001:00098210       ?ScoreServer_Name@ServerBrowserWindow@@IAEHPAVDirectory@@@Z 00499210 f   serverbrowser_window.obj
 0001:00098280       ?ScoreServer_Game@ServerBrowserWindow@@IAEHPAVDirectory@@@Z 00499280 f   serverbrowser_window.obj
 0001:000982a0       ?ScoreServer_Mods@ServerBrowserWindow@@IAEHPAVDirectory@@@Z 004992a0 f   serverbrowser_window.obj
 0001:00098330       ?ScoreServer_Time@ServerBrowserWindow@@IAEHPAVDirectory@@@Z 00499330 f   serverbrowser_window.obj
 0001:00098360       ?ScoreServer_Spectators@ServerBrowserWindow@@IAEHPAVDirectory@@@Z 00499360 f   serverbrowser_window.obj
 0001:00098380       ?ScoreServer_Teams@ServerBrowserWindow@@IAEHPAVDirectory@@@Z 00499380 f   serverbrowser_window.obj
 0001:000983c0       ?SortServerList@ServerBrowserWindow@@QAEXXZ 004993c0 f   serverbrowser_window.obj
 0001:00098560       ?Update@ServerBrowserWindow@@UAEXXZ 00499560 f   serverbrowser_window.obj
 0001:000988f0       ?Render@ServerBrowserWindow@@UAEX_N@Z 004998f0 f   serverbrowser_window.obj
 0001:00098900       ?ClearServerList@ServerBrowserWindow@@QAEXXZ 00499900 f   serverbrowser_window.obj
 0001:00098940       ?MouseUp@ConnectToManualIPButton@@EAEXXZ 00499940 f i serverbrowser_window.obj
 0001:000989f0       ??0EnterIPManuallyWindow@@QAE@XZ 004999f0 f   serverbrowser_window.obj
 0001:00098aa0       ??_EEnterIPManuallyWindow@@UAEPAXI@Z 00499aa0 f i * CIL library *:* CIL module *
 0001:00098aa0       ??_GEnterIPManuallyWindow@@UAEPAXI@Z 00499aa0 f i serverbrowser_window.obj
 0001:00098ad0       ??1EnterIPManuallyWindow@@UAE@XZ 00499ad0 f i serverbrowser_window.obj
 0001:00098ae0       ?Create@EnterIPManuallyWindow@@UAEXXZ 00499ae0 f   serverbrowser_window.obj
 0001:00098c10       ??0ConnectToManualIPButton@@QAE@XZ 00499c10 f i serverbrowser_window.obj
 0001:00098c20       ??_EConnectToManualIPButton@@UAEPAXI@Z 00499c20 f i * CIL library *:* CIL module *
 0001:00098c20       ??_GConnectToManualIPButton@@UAEPAXI@Z 00499c20 f i serverbrowser_window.obj
 0001:00098c50       ??1ConnectToManualIPButton@@UAE@XZ 00499c50 f i serverbrowser_window.obj
 0001:00098c60       ?Render@EnterIPManuallyWindow@@UAEX_N@Z 00499c60 f   serverbrowser_window.obj
 0001:00098d50       ?MouseUp@UpdateServerListCheckBox@@EAEXXZ 00499d50 f i serverbrowser_window.obj
 0001:00098d70       ??0FiltersWindow@@QAE@XZ   00499d70 f   serverbrowser_window.obj
 0001:00098db0       ??_EFiltersWindow@@UAEPAXI@Z 00499db0 f i * CIL library *:* CIL module *
 0001:00098db0       ??_GFiltersWindow@@UAEPAXI@Z 00499db0 f i serverbrowser_window.obj
 0001:00098de0       ??1FiltersWindow@@UAE@XZ   00499de0 f i serverbrowser_window.obj
 0001:00098df0       ?Create@FiltersWindow@@UAEXXZ 00499df0 f   serverbrowser_window.obj
 0001:00099000       ??0UpdateServerListCheckBox@@QAE@XZ 0049a000 f i serverbrowser_window.obj
 0001:00099010       ??_EUpdateServerListCheckBox@@UAEPAXI@Z 0049a010 f i * CIL library *:* CIL module *
 0001:00099010       ??_GUpdateServerListCheckBox@@UAEPAXI@Z 0049a010 f i serverbrowser_window.obj
 0001:00099040       ??1UpdateServerListCheckBox@@UAE@XZ 0049a040 f i serverbrowser_window.obj
 0001:00099050       ?Render@FiltersWindow@@UAEX_N@Z 0049a050 f   serverbrowser_window.obj
 0001:000991b0       ??1?$LList@PAVDirectory@@@@QAE@XZ 0049a1b0 f i serverbrowser_window.obj
 0001:000991c0       ?PutDataAtIndex@?$LList@PAVDirectory@@@@QAEXABQAVDirectory@@H@Z 0049a1c0 f i serverbrowser_window.obj
 0001:00099260       ?RemoveData@?$LList@PAVDirectory@@@@QAEXH@Z 0049a260 f i serverbrowser_window.obj
 0001:00099320       ?EmptyAndDelete@?$LList@PAVDirectory@@@@QAEXXZ 0049a320 f i serverbrowser_window.obj
 0001:000993e0       ??_G?$LListItem@PAVDirectory@@@@QAEPAXI@Z 0049a3e0 f i serverbrowser_window.obj
 0001:00099400       ?PutDataAtStart@?$LList@PAVDirectory@@@@QAEXABQAVDirectory@@@Z 0049a400 f i serverbrowser_window.obj
 0001:00099470       ?Empty@?$LList@PAVDirectory@@@@QAEXXZ 0049a470 f i serverbrowser_window.obj
 0001:000994c0       ??1?$LListItem@PAVDirectory@@@@QAE@XZ 0049a4c0 f i serverbrowser_window.obj
 0001:000994d0       ?MouseUp@ConnectToDetailsButton@@EAEXXZ 0049a4d0 f i serverdetails_window.obj
 0001:00099500       ??0ServerDetailsWindow@@QAE@PADH@Z 0049a500 f   serverdetails_window.obj
 0001:00099660       ??_EServerDetailsWindow@@UAEPAXI@Z 0049a660 f i * CIL library *:* CIL module *
 0001:00099660       ??_GServerDetailsWindow@@UAEPAXI@Z 0049a660 f i serverdetails_window.obj
 0001:00099690       ??1ServerDetailsWindow@@UAE@XZ 0049a690 f i serverdetails_window.obj
 0001:000996a0       ?Create@ServerDetailsWindow@@UAEXXZ 0049a6a0 f   serverdetails_window.obj
 0001:000997c0       ??0ConnectToDetailsButton@@QAE@XZ 0049a7c0 f i serverdetails_window.obj
 0001:000997d0       ??_EConnectToDetailsButton@@UAEPAXI@Z 0049a7d0 f i * CIL library *:* CIL module *
 0001:000997d0       ??_GConnectToDetailsButton@@UAEPAXI@Z 0049a7d0 f i serverdetails_window.obj
 0001:00099800       ??1ConnectToDetailsButton@@UAE@XZ 0049a800 f i serverdetails_window.obj
 0001:00099810       ?Render@ServerDetailsWindow@@UAEX_N@Z 0049a810 f   serverdetails_window.obj
 0001:0009a220       ?Update@ServerDetailsWindow@@UAEXXZ 0049b220 f   serverdetails_window.obj
 0001:0009a340       ??0SidePanel@@QAE@PAD@Z    0049b340 f   side_panel.obj
 0001:0009a3d0       ??_ESidePanel@@UAEPAXI@Z   0049b3d0 f i * CIL library *:* CIL module *
 0001:0009a3d0       ??_GSidePanel@@UAEPAXI@Z   0049b3d0 f i side_panel.obj
 0001:0009a400       ??1SidePanel@@UAE@XZ       0049b400 f   side_panel.obj
 0001:0009a6b0       ??_GFleet@@QAEPAXI@Z       0049b6b0 f i side_panel.obj
 0001:0009a700       ??1Fleet@@QAE@XZ           0049b700 f i side_panel.obj
 0001:0009a740       ?Create@SidePanel@@UAEXXZ  0049b740 f   side_panel.obj
 0001:0009a8a0       ?Render@SidePanel@@UAEX_N@Z 0049b8a0 f   side_panel.obj
 0001:0009aef0       ?ChangeMode@SidePanel@@QAEXH@Z 0049bef0 f   side_panel.obj
 0001:0009b3d0       ??0UnitPlacementButton@@QAE@H@Z 0049c3d0 f   side_panel.obj
 0001:0009b400       ??_EUnitPlacementButton@@UAEPAXI@Z 0049c400 f i * CIL library *:* CIL module *
 0001:0009b400       ??_GUnitPlacementButton@@UAEPAXI@Z 0049c400 f i side_panel.obj
 0001:0009b430       ??1UnitPlacementButton@@UAE@XZ 0049c430 f i side_panel.obj
 0001:0009b440       ?Render@UnitPlacementButton@@UAEXHH_N0@Z 0049c440 f   side_panel.obj
 0001:0009b900       ?MouseUp@UnitPlacementButton@@UAEXXZ 0049c900 f   side_panel.obj
 0001:0009ba60       ??0PanelModeButton@@QAE@H_N@Z 0049ca60 f   side_panel.obj
 0001:0009ba90       ??_EPanelModeButton@@UAEPAXI@Z 0049ca90 f i * CIL library *:* CIL module *
 0001:0009ba90       ??_GPanelModeButton@@UAEPAXI@Z 0049ca90 f i side_panel.obj
 0001:0009bac0       ??1PanelModeButton@@UAE@XZ 0049cac0 f i side_panel.obj
 0001:0009bad0       ?Render@PanelModeButton@@UAEXHH_N0@Z 0049cad0 f   side_panel.obj
 0001:0009bdc0       ?MouseUp@PanelModeButton@@UAEXXZ 0049cdc0 f   side_panel.obj
 0001:0009be30       ??0AddToFleetButton@@QAE@H@Z 0049ce30 f   side_panel.obj
 0001:0009be60       ??_EAddToFleetButton@@UAEPAXI@Z 0049ce60 f i * CIL library *:* CIL module *
 0001:0009be60       ??_GAddToFleetButton@@UAEPAXI@Z 0049ce60 f i side_panel.obj
 0001:0009be90       ??1AddToFleetButton@@UAE@XZ 0049ce90 f i side_panel.obj
 0001:0009bea0       ?Render@AddToFleetButton@@UAEXHH_N0@Z 0049cea0 f   side_panel.obj
 0001:0009c370       ?MouseUp@AddToFleetButton@@UAEXXZ 0049d370 f   side_panel.obj
 0001:0009c5f0       ??0RemoveUnitButton@@QAE@XZ 0049d5f0 f   side_panel.obj
 0001:0009c620       ??_ERemoveUnitButton@@UAEPAXI@Z 0049d620 f i * CIL library *:* CIL module *
 0001:0009c620       ??_GRemoveUnitButton@@UAEPAXI@Z 0049d620 f i side_panel.obj
 0001:0009c650       ??1RemoveUnitButton@@UAE@XZ 0049d650 f i side_panel.obj
 0001:0009c660       ?Render@RemoveUnitButton@@UAEXHH_N0@Z 0049d660 f   side_panel.obj
 0001:0009c680       ?MouseUp@RemoveUnitButton@@UAEXXZ 0049d680 f   side_panel.obj
 0001:0009c880       ??_ENewFleetButton@@UAEPAXI@Z 0049d880 f i * CIL library *:* CIL module *
 0001:0009c880       ??_GNewFleetButton@@UAEPAXI@Z 0049d880 f i side_panel.obj
 0001:0009c8b0       ??1NewFleetButton@@UAE@XZ  0049d8b0 f i side_panel.obj
 0001:0009c8c0       ?Render@NewFleetButton@@UAEXHH_N0@Z 0049d8c0 f   side_panel.obj
 0001:0009cb50       ?MouseUp@NewFleetButton@@UAEXXZ 0049db50 f   side_panel.obj
 0001:0009cb90       ??0FleetPlacementButton@@QAE@XZ 0049db90 f   side_panel.obj
 0001:0009cbb0       ??_EFleetPlacementButton@@UAEPAXI@Z 0049dbb0 f i * CIL library *:* CIL module *
 0001:0009cbb0       ??_GFleetPlacementButton@@UAEPAXI@Z 0049dbb0 f i side_panel.obj
 0001:0009cbe0       ??1FleetPlacementButton@@UAE@XZ 0049dbe0 f i side_panel.obj
 0001:0009cbf0       ?Render@FleetPlacementButton@@UAEXHH_N0@Z 0049dbf0 f   side_panel.obj
 0001:0009cd80       ?MouseUp@FleetPlacementButton@@UAEXXZ 0049dd80 f   side_panel.obj
 0001:0009cea0       ?RemoveData@?$LList@PAVFleet@@@@QAEXH@Z 0049dea0 f i side_panel.obj
 0001:0009cf60       ??1?$LList@PAVBlip@@@@QAE@XZ 0049df60 f i side_panel.obj
 0001:0009cf70       ??_G?$LListItem@PAVFleet@@@@QAEPAXI@Z 0049df70 f i side_panel.obj
 0001:0009cf90       ??1?$LListItem@PAVFleet@@@@QAE@XZ 0049df90 f i side_panel.obj
 0001:0009cfa0       ?Empty@?$LList@PAVBlip@@@@QAEXXZ 0049dfa0 f i side_panel.obj
 0001:0009cff0       ??_G?$LListItem@PAVBlip@@@@QAEPAXI@Z 0049dff0 f i side_panel.obj
 0001:0009d010       ??1?$LListItem@PAVBlip@@@@QAE@XZ 0049e010 f i side_panel.obj
 0001:0009d020       ??0ToolbarButton@@QAE@XZ   0049e020 f   toolbar.obj
 0001:0009d060       ??_EToolbarButton@@UAEPAXI@Z 0049e060 f i * CIL library *:* CIL module *
 0001:0009d060       ??_GToolbarButton@@UAEPAXI@Z 0049e060 f i toolbar.obj
 0001:0009d090       ??1ToolbarButton@@UAE@XZ   0049e090 f i toolbar.obj
 0001:0009d0a0       ?Render@ToolbarButton@@UAEXHH_N0@Z 0049e0a0 f   toolbar.obj
 0001:0009d540       ?Render@PlacementWindowButton@@EAEXHH_N0@Z 0049e540 f i toolbar.obj
 0001:0009d600       ?MouseUp@PlacementWindowButton@@EAEXXZ 0049e600 f i toolbar.obj
 0001:0009d690       ??0ChatWindowButton@@QAE@XZ 0049e690 f i toolbar.obj
 0001:0009d700       ?Render@ChatWindowButton@@UAEXHH_N0@Z 0049e700 f i toolbar.obj
 0001:0009d7f0       ?MouseUp@ChatWindowButton@@UAEXXZ 0049e7f0 f i toolbar.obj
 0001:0009d880       ?CountVisableMessages@ChatWindowButton@@QAEHXZ 0049e880 f i toolbar.obj
 0001:0009d8f0       ??_EChatWindowButton@@UAEPAXI@Z 0049e8f0 f i * CIL library *:* CIL module *
 0001:0009d8f0       ??_GChatWindowButton@@UAEPAXI@Z 0049e8f0 f i toolbar.obj
 0001:0009d920       ??1ChatWindowButton@@UAE@XZ 0049e920 f i toolbar.obj
 0001:0009d930       ?Render@ShowAlliancesButton@@EAEXHH_N0@Z 0049e930 f i toolbar.obj
 0001:0009d970       ?MouseUp@ShowAlliancesButton@@EAEXXZ 0049e970 f i toolbar.obj
 0001:0009da00       ?Render@ScoresWindowButton@@EAEXHH_N0@Z 0049ea00 f i toolbar.obj
 0001:0009da40       ?MouseUp@ScoresWindowButton@@EAEXXZ 0049ea40 f i toolbar.obj
 0001:0009dad0       ?Render@InfoWindowButton@@EAEXHH_N0@Z 0049ead0 f i toolbar.obj
 0001:0009db10       ?MouseUp@InfoWindowButton@@EAEXXZ 0049eb10 f i toolbar.obj
 0001:0009dba0       ??0ToggleBoolButton@@QAE@XZ 0049eba0 f i toolbar.obj
 0001:0009dbc0       ?Render@ToggleBoolButton@@UAEXHH_N0@Z 0049ebc0 f i toolbar.obj
 0001:0009dcb0       ?MouseUp@ToggleBoolButton@@UAEXXZ 0049ecb0 f i toolbar.obj
 0001:0009dcf0       ??_EToggleBoolButton@@UAEPAXI@Z 0049ecf0 f i * CIL library *:* CIL module *
 0001:0009dcf0       ??_GToggleBoolButton@@UAEPAXI@Z 0049ecf0 f i toolbar.obj
 0001:0009dd20       ??1ToggleBoolButton@@UAE@XZ 0049ed20 f i toolbar.obj
 0001:0009dd30       ??0WhiteBoardButton@@QAE@XZ 0049ed30 f i toolbar.obj
 0001:0009dd60       ?Render@WhiteBoardButton@@UAEXHH_N0@Z 0049ed60 f i toolbar.obj
 0001:0009ddd0       ?MouseUp@WhiteBoardButton@@UAEXXZ 0049edd0 f i toolbar.obj
 0001:0009df20       ??_EWhiteBoardButton@@UAEPAXI@Z 0049ef20 f i * CIL library *:* CIL module *
 0001:0009df20       ??_GWhiteBoardButton@@UAEPAXI@Z 0049ef20 f i toolbar.obj
 0001:0009df50       ??1WhiteBoardButton@@UAE@XZ 0049ef50 f i toolbar.obj
 0001:0009df60       ??0Toolbar@@QAE@XZ         0049ef60 f   toolbar.obj
 0001:0009e090       ??_EToolbar@@UAEPAXI@Z     0049f090 f i * CIL library *:* CIL module *
 0001:0009e090       ??_GToolbar@@UAEPAXI@Z     0049f090 f i toolbar.obj
 0001:0009e0c0       ??1Toolbar@@UAE@XZ         0049f0c0 f   toolbar.obj
 0001:0009e120       ?Create@Toolbar@@UAEXXZ    0049f120 f   toolbar.obj
 0001:0009e940       ??0PlacementWindowButton@@QAE@XZ 0049f940 f i toolbar.obj
 0001:0009e960       ??0ShowAlliancesButton@@QAE@XZ 0049f960 f i toolbar.obj
 0001:0009e980       ??0ScoresWindowButton@@QAE@XZ 0049f980 f i toolbar.obj
 0001:0009e9a0       ??0InfoWindowButton@@QAE@XZ 0049f9a0 f i toolbar.obj
 0001:0009e9c0       ??_EPlacementWindowButton@@UAEPAXI@Z 0049f9c0 f i * CIL library *:* CIL module *
 0001:0009e9c0       ??_GPlacementWindowButton@@UAEPAXI@Z 0049f9c0 f i toolbar.obj
 0001:0009e9f0       ??1PlacementWindowButton@@UAE@XZ 0049f9f0 f i toolbar.obj
 0001:0009ea00       ??_EShowAlliancesButton@@UAEPAXI@Z 0049fa00 f i * CIL library *:* CIL module *
 0001:0009ea00       ??_GShowAlliancesButton@@UAEPAXI@Z 0049fa00 f i toolbar.obj
 0001:0009ea30       ??1ShowAlliancesButton@@UAE@XZ 0049fa30 f i toolbar.obj
 0001:0009ea40       ??_EScoresWindowButton@@UAEPAXI@Z 0049fa40 f i * CIL library *:* CIL module *
 0001:0009ea40       ??_GScoresWindowButton@@UAEPAXI@Z 0049fa40 f i toolbar.obj
 0001:0009ea70       ??1ScoresWindowButton@@UAE@XZ 0049fa70 f i toolbar.obj
 0001:0009ea80       ??_EInfoWindowButton@@UAEPAXI@Z 0049fa80 f i * CIL library *:* CIL module *
 0001:0009ea80       ??_GInfoWindowButton@@UAEPAXI@Z 0049fa80 f i toolbar.obj
 0001:0009eab0       ??1InfoWindowButton@@UAE@XZ 0049fab0 f i toolbar.obj
 0001:0009eac0       ?Render@Toolbar@@UAEX_N@Z  0049fac0 f   toolbar.obj
 0001:0009ead0       ?Render@TutorialNextButton@@EAEXHH_N0@Z 0049fad0 f i tutorial_window.obj
 0001:0009eb00       ?MouseUp@TutorialNextButton@@EAEXXZ 0049fb00 f i tutorial_window.obj
 0001:0009eb20       ?Render@TutorialRestartButton@@EAEXHH_N0@Z 0049fb20 f i tutorial_window.obj
 0001:0009eb50       ?MouseUp@TutorialRestartButton@@EAEXXZ 0049fb50 f i tutorial_window.obj
 0001:0009eb70       ??0TutorialWindow@@QAE@XZ  0049fb70 f   tutorial_window.obj
 0001:0009ec20       ??_ETutorialWindow@@UAEPAXI@Z 0049fc20 f i * CIL library *:* CIL module *
 0001:0009ec20       ??_GTutorialWindow@@UAEPAXI@Z 0049fc20 f i tutorial_window.obj
 0001:0009ec50       ??1TutorialWindow@@UAE@XZ  0049fc50 f i tutorial_window.obj
 0001:0009ec60       ?Create@TutorialWindow@@UAEXXZ 0049fc60 f   tutorial_window.obj
 0001:0009ed30       ??0TutorialRestartButton@@QAE@XZ 0049fd30 f i tutorial_window.obj
 0001:0009ed40       ??0TutorialNextButton@@QAE@XZ 0049fd40 f i tutorial_window.obj
 0001:0009ed50       ??_ETutorialRestartButton@@UAEPAXI@Z 0049fd50 f i * CIL library *:* CIL module *
 0001:0009ed50       ??_GTutorialRestartButton@@UAEPAXI@Z 0049fd50 f i tutorial_window.obj
 0001:0009ed80       ??1TutorialRestartButton@@UAE@XZ 0049fd80 f i tutorial_window.obj
 0001:0009ed90       ??_ETutorialNextButton@@UAEPAXI@Z 0049fd90 f i * CIL library *:* CIL module *
 0001:0009ed90       ??_GTutorialNextButton@@UAEPAXI@Z 0049fd90 f i tutorial_window.obj
 0001:0009edc0       ??1TutorialNextButton@@UAE@XZ 0049fdc0 f i tutorial_window.obj
 0001:0009edd0       ?Render@TutorialWindow@@UAEX_N@Z 0049fdd0 f   tutorial_window.obj
 0001:0009f690       ?MouseUp@LevelChangeButton@@UAEXXZ 004a0690 f i tutorial_window.obj
 0001:0009f6b0       ??_ETutorialChapterWindow@@UAEPAXI@Z 004a06b0 f i * CIL library *:* CIL module *
 0001:0009f6b0       ??_GTutorialChapterWindow@@UAEPAXI@Z 004a06b0 f i tutorial_window.obj
 0001:0009f6e0       ??1TutorialChapterWindow@@UAE@XZ 004a06e0 f i tutorial_window.obj
 0001:0009f6f0       ?Create@TutorialChapterWindow@@UAEXXZ 004a06f0 f   tutorial_window.obj
 0001:0009f850       ??0LevelChangeButton@@QAE@XZ 004a0850 f i tutorial_window.obj
 0001:0009f860       ??_ELevelChangeButton@@UAEPAXI@Z 004a0860 f i * CIL library *:* CIL module *
 0001:0009f860       ??_GLevelChangeButton@@UAEPAXI@Z 004a0860 f i tutorial_window.obj
 0001:0009f890       ??1LevelChangeButton@@UAE@XZ 004a0890 f i tutorial_window.obj
 0001:0009f8a0       ?Render@PlanningButton@@EAEXHH_N0@Z 004a08a0 f i whiteboard_panel.obj
 0001:0009f8e0       ?MouseUp@PlanningButton@@EAEXXZ 004a08e0 f i whiteboard_panel.obj
 0001:0009f910       ?MouseUp@EraseAllButton@@EAEXXZ 004a0910 f i whiteboard_panel.obj
 0001:0009f950       ?Render@ToggleShowAllWhiteBoardsButton@@EAEXHH_N0@Z 004a0950 f i whiteboard_panel.obj
 0001:0009f990       ?MouseUp@ToggleShowAllWhiteBoardsButton@@EAEXXZ 004a0990 f i whiteboard_panel.obj
 0001:0009f9b0       ??0WhiteBoardPanel@@QAE@MM@Z 004a09b0 f   whiteboard_panel.obj
 0001:0009fa60       ??_EWhiteBoardPanel@@UAEPAXI@Z 004a0a60 f i * CIL library *:* CIL module *
 0001:0009fa60       ??_GWhiteBoardPanel@@UAEPAXI@Z 004a0a60 f i whiteboard_panel.obj
 0001:0009fa90       ??1WhiteBoardPanel@@UAE@XZ 004a0a90 f   whiteboard_panel.obj
 0001:0009faf0       ?Create@WhiteBoardPanel@@UAEXXZ 004a0af0 f   whiteboard_panel.obj
 0001:0009fcd0       ??0PlanningButton@@QAE@XZ  004a0cd0 f i whiteboard_panel.obj
 0001:0009fcf0       ??0EraseAllButton@@QAE@XZ  004a0cf0 f i whiteboard_panel.obj
 0001:0009fd10       ??0ToggleShowAllWhiteBoardsButton@@QAE@XZ 004a0d10 f i whiteboard_panel.obj
 0001:0009fd30       ??_EPlanningButton@@UAEPAXI@Z 004a0d30 f i * CIL library *:* CIL module *
 0001:0009fd30       ??_GPlanningButton@@UAEPAXI@Z 004a0d30 f i whiteboard_panel.obj
 0001:0009fd60       ??1PlanningButton@@UAE@XZ  004a0d60 f i whiteboard_panel.obj
 0001:0009fd70       ??_EEraseAllButton@@UAEPAXI@Z 004a0d70 f i * CIL library *:* CIL module *
 0001:0009fd70       ??_GEraseAllButton@@UAEPAXI@Z 004a0d70 f i whiteboard_panel.obj
 0001:0009fda0       ??1EraseAllButton@@UAE@XZ  004a0da0 f i whiteboard_panel.obj
 0001:0009fdb0       ??_EToggleShowAllWhiteBoardsButton@@UAEPAXI@Z 004a0db0 f i * CIL library *:* CIL module *
 0001:0009fdb0       ??_GToggleShowAllWhiteBoardsButton@@UAEPAXI@Z 004a0db0 f i whiteboard_panel.obj
 0001:0009fde0       ??1ToggleShowAllWhiteBoardsButton@@UAE@XZ 004a0de0 f i whiteboard_panel.obj
 0001:0009fdf0       ?Render@WhiteBoardPanel@@UAEX_N@Z 004a0df0 f   whiteboard_panel.obj
 0001:0009fe00       ??_EWorldObjectWindow@@UAEPAXI@Z 004a0e00 f i * CIL library *:* CIL module *
 0001:0009fe00       ??_GWorldObjectWindow@@UAEPAXI@Z 004a0e00 f i worldobject_window.obj
 0001:0009fe30       ??1WorldObjectWindow@@UAE@XZ 004a0e30 f i worldobject_window.obj
 0001:0009fe40       ?Render@WorldObjectWindow@@UAEX_N@Z 004a0e40 f   worldobject_window.obj
 0001:0009fea0       ?Render@TimeScaleButton@@UAEXHH_N0@Z 004a0ea0 f i worldstatus_window.obj
 0001:000a0630       ?MouseUp@TimeScaleButton@@UAEXXZ 004a1630 f i worldstatus_window.obj
 0001:000a06a0       ?Render@DefconButton@@UAEXHH_N0@Z 004a16a0 f i worldstatus_window.obj
 0001:000a0960       ??0WorldStatusWindow@@QAE@PAD@Z 004a1960 f   worldstatus_window.obj
 0001:000a09d0       ??_EWorldStatusWindow@@UAEPAXI@Z 004a19d0 f i * CIL library *:* CIL module *
 0001:000a09d0       ??_GWorldStatusWindow@@UAEPAXI@Z 004a19d0 f i worldstatus_window.obj
 0001:000a0a00       ??1WorldStatusWindow@@UAE@XZ 004a1a00 f   worldstatus_window.obj
 0001:000a0a60       ?Create@WorldStatusWindow@@UAEXXZ 004a1a60 f   worldstatus_window.obj
 0001:000a0e40       ??0DefconButton@@QAE@XZ    004a1e40 f i worldstatus_window.obj
 0001:000a0e50       ??0TimeScaleButton@@QAE@XZ 004a1e50 f i worldstatus_window.obj
 0001:000a0e70       ??_EDefconButton@@UAEPAXI@Z 004a1e70 f i * CIL library *:* CIL module *
 0001:000a0e70       ??_GDefconButton@@UAEPAXI@Z 004a1e70 f i worldstatus_window.obj
 0001:000a0ea0       ??1DefconButton@@UAE@XZ    004a1ea0 f i worldstatus_window.obj
 0001:000a0eb0       ??_ETimeScaleButton@@UAEPAXI@Z 004a1eb0 f i * CIL library *:* CIL module *
 0001:000a0eb0       ??_GTimeScaleButton@@UAEPAXI@Z 004a1eb0 f i worldstatus_window.obj
 0001:000a0ee0       ??1TimeScaleButton@@UAE@XZ 004a1ee0 f i worldstatus_window.obj
 0001:000a0ef0       ?Render@WorldStatusWindow@@UAEX_N@Z 004a1ef0 f   worldstatus_window.obj
 0001:000a12d0       ?MouseUp@StatsButton@@EAEXXZ 004a22d0 f i worldstatus_window.obj
 0001:000a1350       ??0ScoresWindow@@QAE@XZ    004a2350 f   worldstatus_window.obj
 0001:000a13a0       ??_EScoresWindow@@UAEPAXI@Z 004a23a0 f i * CIL library *:* CIL module *
 0001:000a13a0       ??_GScoresWindow@@UAEPAXI@Z 004a23a0 f i worldstatus_window.obj
 0001:000a13d0       ??1ScoresWindow@@UAE@XZ    004a23d0 f   worldstatus_window.obj
 0001:000a1430       ?Create@ScoresWindow@@UAEXXZ 004a2430 f   worldstatus_window.obj
 0001:000a14a0       ??0StatsButton@@QAE@XZ     004a24a0 f i worldstatus_window.obj
 0001:000a14b0       ??_EStatsButton@@UAEPAXI@Z 004a24b0 f i * CIL library *:* CIL module *
 0001:000a14b0       ??_GStatsButton@@UAEPAXI@Z 004a24b0 f i worldstatus_window.obj
 0001:000a14e0       ??1StatsButton@@UAE@XZ     004a24e0 f i worldstatus_window.obj
 0001:000a14f0       ?Render@ScoresWindow@@UAEX_N@Z 004a24f0 f   worldstatus_window.obj
 0001:000a1e60       ??0StatsWindow@@QAE@XZ     004a2e60 f   worldstatus_window.obj
 0001:000a1ef0       ??_EStatsWindow@@UAEPAXI@Z 004a2ef0 f i * CIL library *:* CIL module *
 0001:000a1ef0       ??_GStatsWindow@@UAEPAXI@Z 004a2ef0 f i worldstatus_window.obj
 0001:000a1f20       ??1StatsWindow@@UAE@XZ     004a2f20 f i worldstatus_window.obj
 0001:000a1f30       ?Create@StatsWindow@@UAEXXZ 004a2f30 f   worldstatus_window.obj
 0001:000a1fb0       ?Render@StatsWindow@@UAEX_N@Z 004a2fb0 f   worldstatus_window.obj
 0001:000a2c90       ??0MultiLineText@@QAE@PBDMM_N@Z 004a3c90 f   multiline_text.obj
 0001:000a2db0       ?AddWrappedLines@MultiLineText@@AAEXPADIMMPAVBitmapFont@@@Z 004a3db0 f   multiline_text.obj
 0001:000a2eb0       ??0ChatMessage@@QAE@XZ     004a3eb0 f i ClientToServer.obj
 0001:000a3060       ?ListenThread@ClientToServer@@CAXPAVThreadFunctions@@@Z 004a4060 f   ClientToServer.obj
 0001:000a3080       ??0ClientToServer@@QAE@XZ  004a4080 f   ClientToServer.obj
 0001:000a31c0       ??1ClientToServer@@QAE@XZ  004a41c0 f   ClientToServer.obj
 0001:000a3270       ?GetLocalPort@ClientToServer@@QAEHXZ 004a4270 f   ClientToServer.obj
 0001:000a3280       ?OpenConnections@ClientToServer@@QAEXXZ 004a4280 f   ClientToServer.obj
 0001:000a33b0       ?AdvanceSender@ClientToServer@@QAEXXZ 004a43b0 f   ClientToServer.obj
 0001:000a35c0       ?Advance@ClientToServer@@QAEXXZ 004a45c0 f   ClientToServer.obj
 0001:000a3c10       ?SendChatMessageReliably@ClientToServer@@QAEXEEPBD_N@Z 004a4c10 f   ClientToServer.obj
 0001:000a3d10       ?ReceiveChatMessage@ClientToServer@@QAEXEH@Z 004a4d10 f   ClientToServer.obj
 0001:000a3d80       ??_GChatMessage@@QAEPAXI@Z 004a4d80 f i ClientToServer.obj
 0001:000a3df0       ??1ChatMessage@@QAE@XZ     004a4df0 f i ClientToServer.obj
 0001:000a3e50       ?GetNextLetter@ClientToServer@@QAEPAVDirectory@@XZ 004a4e50 f   ClientToServer.obj
 0001:000a3f40       ?GetEstimatedServerSeqId@ClientToServer@@QAEHXZ 004a4f40 f   ClientToServer.obj
 0001:000a3fd0       ?GetEstimatedLatency@ClientToServer@@QAEMXZ 004a4fd0 f   ClientToServer.obj
 0001:000a4050       ?ReceiveLetter@ClientToServer@@QAEXPAVDirectory@@@Z 004a5050 f   ClientToServer.obj
 0001:000a4430       ?SendLetter@ClientToServer@@QAEXPAVDirectory@@@Z 004a5430 f   ClientToServer.obj
 0001:000a44a0       ?IsSequenceIdInQueue@ClientToServer@@QAE_NH@Z 004a54a0 f   ClientToServer.obj
 0001:000a4550       ?CountPacketLoss@ClientToServer@@QAEHXZ 004a5550 f   ClientToServer.obj
 0001:000a45c0       ?ClientJoin@ClientToServer@@QAE_NPADH@Z 004a55c0 f   ClientToServer.obj
 0001:000a46a0       ?ClientLeave@ClientToServer@@QAEX_N@Z 004a56a0 f   ClientToServer.obj
 0001:000a47e0       ?RequestStartGame@ClientToServer@@QAEXEE@Z 004a57e0 f   ClientToServer.obj
 0001:000a4880       ?IsConnected@ClientToServer@@QAE_NXZ 004a5880 f   ClientToServer.obj
 0001:000a48a0       ?RequestTeam@ClientToServer@@QAEXH@Z 004a58a0 f   ClientToServer.obj
 0001:000a4930       ?RequestSpectate@ClientToServer@@QAEXXZ 004a5930 f   ClientToServer.obj
 0001:000a49b0       ?RequestRemoveAI@ClientToServer@@QAEXE@Z 004a59b0 f   ClientToServer.obj
 0001:000a4a40       ?RequestAlliance@ClientToServer@@QAEXEE@Z 004a5a40 f   ClientToServer.obj
 0001:000a4ae0       ?RequestStateChange@ClientToServer@@QAEXHE@Z 004a5ae0 f   ClientToServer.obj
 0001:000a4b80       ?RequestAction@ClientToServer@@QAEXHHVFixed@@0@Z 004a5b80 f   ClientToServer.obj
 0001:000a4c50       ?RequestPlacement@ClientToServer@@QAEXEEVFixed@@0E@Z 004a5c50 f   ClientToServer.obj
 0001:000a4d30       ?RequestSpecialAction@ClientToServer@@QAEXHHE@Z 004a5d30 f   ClientToServer.obj
 0001:000a4de0       ?RequestSetWaypoint@ClientToServer@@QAEXHVFixed@@0@Z 004a5de0 f   ClientToServer.obj
 0001:000a4ea0       ?RequestClearActionQueue@ClientToServer@@QAEXH@Z 004a5ea0 f   ClientToServer.obj
 0001:000a4f30       ?RequestOptionChange@ClientToServer@@QAEXEH@Z 004a5f30 f   ClientToServer.obj
 0001:000a4fd0       ?RequestOptionChange@ClientToServer@@QAEXEPAD@Z 004a5fd0 f   ClientToServer.obj
 0001:000a5070       ?RequestGameSpeed@ClientToServer@@QAEXEE@Z 004a6070 f   ClientToServer.obj
 0001:000a5110       ?RequestTerritory@ClientToServer@@QAEXEEH@Z 004a6110 f   ClientToServer.obj
 0001:000a51c0       ?RequestFleet@ClientToServer@@QAEXE@Z 004a61c0 f   ClientToServer.obj
 0001:000a5250       ?RequestFleetMovement@ClientToServer@@QAEXEHVFixed@@0@Z 004a6250 f   ClientToServer.obj
 0001:000a5320       ?RequestSetTeamName@ClientToServer@@QAEXEPAD_N@Z 004a6320 f   ClientToServer.obj
 0001:000a53d0       ?RequestCeaseFire@ClientToServer@@QAEXEE@Z 004a63d0 f   ClientToServer.obj
 0001:000a5470       ?RequestShareRadar@ClientToServer@@QAEXEE@Z 004a6470 f   ClientToServer.obj
 0001:000a5510       ?SendChatMessage@ClientToServer@@QAEXEEPBDH_N@Z 004a6510 f   ClientToServer.obj
 0001:000a55e0       ?RequestWhiteBoard@ClientToServer@@QAEXEEHVFixed@@000@Z 004a65e0 f   ClientToServer.obj
 0001:000a5710       ?SendTeamScore@ClientToServer@@QAEXEH@Z 004a6710 f   ClientToServer.obj
 0001:000a57c0       ?BeginVote@ClientToServer@@QAEXEEE@Z 004a67c0 f   ClientToServer.obj
 0001:000a5870       ?CastVote@ClientToServer@@QAEXEEE@Z 004a6870 f   ClientToServer.obj
 0001:000a5920       ?SendSyncronisation@ClientToServer@@QAEXHE@Z 004a6920 f   ClientToServer.obj
 0001:000a59c0       ?SetSyncState@ClientToServer@@QAEXH_N@Z 004a69c0 f   ClientToServer.obj
 0001:000a5a30       ?IsSynchronised@ClientToServer@@QAE_NH@Z 004a6a30 f   ClientToServer.obj
 0001:000a5a80       ?SetClientDemo@ClientToServer@@QAEXH@Z 004a6a80 f   ClientToServer.obj
 0001:000a5ab0       ?IsClientDemo@ClientToServer@@QAE_NH@Z 004a6ab0 f   ClientToServer.obj
 0001:000a5b10       ?AmIDemoClient@ClientToServer@@QAE_NXZ 004a6b10 f   ClientToServer.obj
 0001:000a5b70       ?GetDemoLimitations@ClientToServer@@QAEXAAH0AA_N@Z 004a6b70 f   ClientToServer.obj
 0001:000a5c20       ?GetPurchasePrice@ClientToServer@@QAEXPAD@Z 004a6c20 f   ClientToServer.obj
 0001:000a5ca0       ?GetPurchaseUrl@ClientToServer@@QAEXPAD@Z 004a6ca0 f   ClientToServer.obj
 0001:000a5d30       ?ProcessServerUpdates@ClientToServer@@QAEXPAVDirectory@@@Z 004a6d30 f   ClientToServer.obj
 0001:000a70b0       ?Resynchronise@ClientToServer@@QAEXXZ 004a80b0 f   ClientToServer.obj
 0001:000a70e0       ?StartIdentifying@ClientToServer@@QAEXXZ 004a80e0 f   ClientToServer.obj
 0001:000a70f0       ?StopIdentifying@ClientToServer@@QAEXXZ 004a80f0 f   ClientToServer.obj
 0001:000a7100       ?GetIdentity@ClientToServer@@QAE_NPADPAH@Z 004a8100 f   ClientToServer.obj
 0001:000a7120       ?GetServerDetails@ClientToServer@@QAE_NPADPAH@Z 004a8120 f   ClientToServer.obj
 0001:000a7160       ?release@?$auto_ptr@VDirectory@@@std@@QAEPAVDirectory@@XZ 004a8160 f i ClientToServer.obj
 0001:000a7170       ??D?$auto_ptr@VDirectory@@@std@@QBEAAVDirectory@@XZ 004a8170 f i ClientToServer.obj
 0001:000a7180       ??A?$LList@PAVDirectory@@@@QAEPAVDirectory@@H@Z 004a8180 f i ClientToServer.obj
 0001:000a71a0       ?PutDataAtEnd@?$LList@PAVChatMessage@@@@QAEXABQAVChatMessage@@@Z 004a81a0 f i ClientToServer.obj
 0001:000a7200       ?RemoveData@?$LList@PAVChatMessage@@@@QAEXH@Z 004a8200 f i ClientToServer.obj
 0001:000a72c0       ?EmptyAndDelete@?$LList@PAVChatMessage@@@@QAEXXZ 004a82c0 f i ClientToServer.obj
 0001:000a7380       ??0?$LListItem@PAVChatMessage@@@@QAE@XZ 004a8380 f i ClientToServer.obj
 0001:000a73a0       ??0ServerToClientLetter@@QAE@XZ 004a83a0 f i recordingparser.obj
 0001:000a73c0       ??0RecordingParser@@QAE@AAV?$basic_istream@DU?$char_traits@D@std@@@std@@ABV?$basic_string@DU?$char_traits@D@std@@V?$allocator@D@2@@2@PAVServer@@@Z 004a83c0 f   recordingparser.obj
 0001:000a7430       ??0RecordingParser@@QAE@ABV?$basic_string@DU?$char_traits@D@std@@V?$allocator@D@2@@std@@PAVServer@@@Z 004a8430 f   recordingparser.obj
 0001:000a7530       ??1RecordingParser@@QAE@XZ 004a8530 f   recordingparser.obj
 0001:000a7610       ?ReadPacket@RecordingParser@@AAE_NAAVDirectory@@AA_N@Z 004a8610 f   recordingparser.obj
 0001:000a7680       ?ReadHeaderPacket@RecordingParser@@QAE_NAAVDirectory@@@Z 004a8680 f   recordingparser.obj
 0001:000a76f0       ?AddToHistory@RecordingParser@@AAEXPAVDirectory@@@Z 004a86f0 f   recordingparser.obj
 0001:000a7740       ?ExtractGameStartFromHeader@RecordingParser@@AAEHXZ 004a8740 f   recordingparser.obj
 0001:000a7890       ?ParseToHistory@RecordingParser@@QAE_NXZ 004a8890 f   recordingparser.obj
 0001:000a7cc0       ?open@?$basic_ifstream@DU?$char_traits@D@std@@@std@@QAEXPBDHH@Z 004a8cc0 f i recordingparser.obj
 0001:000a7d20       ?is_open@?$basic_ifstream@DU?$char_traits@D@std@@@std@@QBE_NXZ 004a8d20 f i recordingparser.obj
 0001:000a7d30       ??0?$basic_ifstream@DU?$char_traits@D@std@@@std@@QAE@XZ 004a8d30 f i recordingparser.obj
 0001:000a7e00       ?seekg@?$basic_istream@DU?$char_traits@D@std@@@std@@QAEAAV12@_JH@Z 004a8e00 f i recordingparser.obj
 0001:000a7f40       ?is_open@?$basic_filebuf@DU?$char_traits@D@std@@@std@@QBE_NXZ 004a8f40 f i recordingparser.obj
 0001:000a7f50       ?PutDataAtEnd@?$LList@PAVServerToClientLetter@@@@QAEXABQAVServerToClientLetter@@@Z 004a8f50 f i recordingparser.obj
 0001:000a7fb0       ??0?$LListItem@PAVServerToClientLetter@@@@QAE@XZ 004a8fb0 f i recordingparser.obj
 0001:000a7ff0       ??1ServerToClientLetter@@QAE@XZ 004a8ff0 f i Server.obj
 0001:000a8010       ??0ServerTeam@@QAE@HH@Z    004a9010 f   Server.obj
 0001:000a8190       ??0Server@@QAE@XZ          004a9190 f   Server.obj
 0001:000a82b0       ??1Server@@QAE@XZ          004a92b0 f   Server.obj
 0001:000a83e0       ??_GServerToClientLetter@@QAEPAXI@Z 004a93e0 f i Server.obj
 0001:000a8410       ?ListenThread@Server@@KAXPAVThreadFunctions@@@Z 004a9410 f   Server.obj
 0001:000a8430       ?Initialise@Server@@QAE_NXZ 004a9430 f   Server.obj
 0001:000a8560       ?StartRecordingPlaybackServer@Server@@QAE_NABV?$basic_string@DU?$char_traits@D@std@@V?$allocator@D@2@@std@@@Z 004a9560 f   Server.obj
 0001:000a86b0       ?ExtractGameStartFromHeader@Server@@QAEHXZ 004a96b0 f   Server.obj
 0001:000a8850       ?ForceSpectatorMode@Server@@QAEXH@Z 004a9850 f   Server.obj
 0001:000a8870       ?EnableFastForward@Server@@QAEXHM@Z 004a9870 f   Server.obj
 0001:000a88a0       ?CheckDisableFastForward@Server@@QAEXXZ 004a98a0 f   Server.obj
 0001:000a88e0       ?GetRecordingAdvanceSpeedMultiplier@Server@@QAEMXZ 004a98e0 f   Server.obj
 0001:000a8910       ?SetRecordingPaused@Server@@QAEX_N@Z 004a9910 f   Server.obj
 0001:000a8930       ?SetRecordingSpeed@Server@@QAEXM@Z 004a9930 f   Server.obj
 0001:000a89a0       ?DebugDumpHistory@Server@@QAEXXZ 004a99a0 f   Server.obj
 0001:000a8a10       ?IsRunning@Server@@QAE_NXZ 004a9a10 f   Server.obj
 0001:000a8a20       ?GetLocalPort@Server@@QAEHXZ 004a9a20 f   Server.obj
 0001:000a8a30       ?Shutdown@Server@@QAEXXZ   004a9a30 f   Server.obj
 0001:000a8c80       ?GetClientId@Server@@QAEHPADH@Z 004a9c80 f   Server.obj
 0001:000a8d10       ?GetClient@Server@@QAEPAVServerToClient@@H@Z 004a9d10 f   Server.obj
 0001:000a8d60       ?RegisterNewClient@Server@@QAEHPAVDirectory@@H@Z 004a9d60 f   Server.obj
 0001:000a9020       ?NotifyNetSyncError@Server@@QAEXH@Z 004aa020 f   Server.obj
 0001:000a9160       ?NotifyNetSyncFixed@Server@@QAEXH@Z 004aa160 f   Server.obj
 0001:000a9230       ?RemoveClient@Server@@QAEXHH@Z 004aa230 f   Server.obj
 0001:000a94f0       ?RegisterNewTeam@Server@@QAEXHH@Z 004aa4f0 f   Server.obj
 0001:000a9780       ?RegisterSpectator@Server@@QAEXH@Z 004aa780 f   Server.obj
 0001:000a98d0       ?SendClientId@Server@@QAEXH@Z 004aa8d0 f   Server.obj
 0001:000a9a10       ?GetNextLetter@Server@@QAEPAVDirectory@@XZ 004aaa10 f   Server.obj
 0001:000a9ad0       ?ReceiveLetter@Server@@QAEXPAVDirectory@@PADH@Z 004aaad0 f   Server.obj
 0001:000a9b70       ?SendLetter@Server@@QAEXPAVServerToClientLetter@@@Z 004aab70 f   Server.obj
 0001:000a9ba0       ?AdvanceSender@Server@@QAEXXZ 004aaba0 f   Server.obj
 0001:000a9e10       ?CountEmptyMessages@Server@@IAEHH@Z 004aae10 f   Server.obj
 0001:000a9eb0       ?UpdateClients@Server@@QAEXXZ 004aaeb0 f   Server.obj
 0001:000aa330       ??_GServerToClient@@QAEPAXI@Z 004ab330 f i Server.obj
 0001:000aa350       ?AuthenticateClients@Server@@IAEXXZ 004ab350 f   Server.obj
 0001:000aa420       ?HandleDisconnectedClient@Server@@QAE_NPAVDirectory@@@Z 004ab420 f   Server.obj
 0001:000aa5c0       ?GetDisconnectedClient@Server@@QAEPAVServerToClient@@H@Z 004ab5c0 f   Server.obj
 0001:000aa610       ?IsDisconnectedClient@Server@@QAE_NPADH@Z 004ab610 f   Server.obj
 0001:000aa6a0       ?CanClientRejoin@Server@@QAE_NPAVDirectory@@@Z 004ab6a0 f   Server.obj
 0001:000aa770       ?HandleClientRejoin@Server@@QAEHPAVDirectory@@@Z 004ab770 f   Server.obj
 0001:000aa890       ?HandleSyncMessage@Server@@QAEXPAVDirectory@@@Z 004ab890 f   Server.obj
 0001:000aab60       ?ResynchroniseClient@Server@@QAEXH@Z 004abb60 f   Server.obj
 0001:000aaba0       ?SendModPath@Server@@QAEXXZ 004abba0 f   Server.obj
 0001:000aac80       ?CheckForExploits@Server@@QAE_NPAVDirectory@@@Z 004abc80 f   Server.obj
 0001:000aad20       ?Advance@Server@@QAEXXZ    004abd20 f   Server.obj
 0001:000ab4a0       ?Advertise@Server@@QAEXXZ  004ac4a0 f   Server.obj
 0001:000abcb0       ?GetNumTeams@Server@@QAEHH@Z 004accb0 f   Server.obj
 0001:000abcf0       ?GetNumSpectators@Server@@QAEHXZ 004accf0 f   Server.obj
 0001:000abd30       ?GetNumDemoTeams@Server@@QAEHXZ 004acd30 f   Server.obj
 0001:000abdb0       ?AuthenticateClient@Server@@QAEXH@Z 004acdb0 f   Server.obj
 0001:000ac230       ?GetIdentity@Server@@QAE_NPADPAH@Z 004ad230 f   Server.obj
 0001:000ac250       ??0?$LList@PAVServerToClientLetter@@@@QAE@XZ 004ad250 f i Server.obj
 0001:000ac280       ??1?$LList@PAVServerToClientLetter@@@@QAE@XZ 004ad280 f i Server.obj
 0001:000ac290       ?RemoveData@?$LList@PAVServerToClientLetter@@@@QAEXH@Z 004ad290 f i Server.obj
 0001:000ac320       ?Size@?$LList@PAVServerToClientLetter@@@@QBEHXZ 004ad320 f i Server.obj
 0001:000ac330       ?ValidIndex@?$LList@PAVServerToClientLetter@@@@QBE_NH@Z 004ad330 f i Server.obj
 0001:000ac350       ?Empty@?$LList@PAVServerToClientLetter@@@@QAEXXZ 004ad350 f i Server.obj
 0001:000ac3a0       ?EmptyAndDelete@?$LList@PAVServerToClientLetter@@@@QAEXXZ 004ad3a0 f i Server.obj
 0001:000ac470       ??A?$LList@PAVServerToClientLetter@@@@QAEPAVServerToClientLetter@@H@Z 004ad470 f i Server.obj
 0001:000ac490       ??0?$DArray@PAVServerToClient@@@@QAE@XZ 004ad490 f i Server.obj
 0001:000ac4b0       ??1?$DArray@PAVServerToClient@@@@QAE@XZ 004ad4b0 f i Server.obj
 0001:000ac4c0       ?PutData@?$DArray@PAVServerToClient@@@@QAEHABQAVServerToClient@@@Z 004ad4c0 f i Server.obj
 0001:000ac510       ?RemoveData@?$DArray@PAVServerToClient@@@@QAEXH@Z 004ad510 f i Server.obj
 0001:000ac570       ?NumUsed@?$DArray@PAVServerToClient@@@@QBEHXZ 004ad570 f i Server.obj
 0001:000ac5a0       ?Size@?$DArray@PAVServerToClient@@@@QBEHXZ 004ad5a0 f i Server.obj
 0001:000ac5b0       ?EmptyAndDelete@?$DArray@PAVServerToClient@@@@QAEXXZ 004ad5b0 f i Server.obj
 0001:000ac600       ??0?$DArray@PAVServerTeam@@@@QAE@XZ 004ad600 f i Server.obj
 0001:000ac620       ??1?$DArray@PAVServerTeam@@@@QAE@XZ 004ad620 f i Server.obj
 0001:000ac630       ?PutData@?$DArray@PAVServerTeam@@@@QAEHABQAVServerTeam@@@Z 004ad630 f i Server.obj
 0001:000ac680       ?RemoveData@?$DArray@PAVServerTeam@@@@QAEXH@Z 004ad680 f i Server.obj
 0001:000ac6e0       ?NumUsed@?$DArray@PAVServerTeam@@@@QBEHXZ 004ad6e0 f i Server.obj
 0001:000ac710       ?Size@?$DArray@PAVServerTeam@@@@QBEHXZ 004ad710 f i Server.obj
 0001:000ac720       ?EmptyAndDelete@?$DArray@PAVServerTeam@@@@QAEXXZ 004ad720 f i Server.obj
 0001:000ac760       ??0?$DArray@E@@QAE@XZ      004ad760 f i Server.obj
 0001:000ac780       ??1?$DArray@E@@QAE@XZ      004ad780 f i Server.obj
 0001:000ac790       ?PutData@?$DArray@E@@QAEXABEH@Z 004ad790 f i Server.obj
 0001:000ac7f0       ?ValidIndex@?$DArray@E@@QBE_NH@Z 004ad7f0 f i Server.obj
 0001:000ac820       ??A?$DArray@E@@QAEAAEH@Z   004ad820 f i Server.obj
 0001:000ac880       ?PutData@?$DArray@_N@@QAEXAB_NH@Z 004ad880 f i Server.obj
 0001:000ac8e0       ?ValidIndex@?$DArray@_N@@QBE_NH@Z 004ad8e0 f i Server.obj
 0001:000ac910       ??_G?$LListItem@PAVServerToClientLetter@@@@QAEPAXI@Z 004ad910 f i Server.obj
 0001:000ac930       ?GetItem@?$LList@PAVServerToClientLetter@@@@IBEPAV?$LListItem@PAVServerToClientLetter@@@@H@Z 004ad930 f i Server.obj
 0001:000ac9e0       ?GetData@?$LList@PAVServerToClientLetter@@@@QBEPAVServerToClientLetter@@H@Z 004ad9e0 f i Server.obj
 0001:000aca00       ??1?$LListItem@PAVServerToClientLetter@@@@QAE@XZ 004ada00 f i Server.obj
 0001:000aca10       ?Grow@?$DArray@PAVServerToClient@@@@IAEXXZ 004ada10 f i Server.obj
 0001:000aca40       ?Empty@?$DArray@PAVServerToClient@@@@QAEXXZ 004ada40 f i Server.obj
 0001:000aca70       ?Grow@?$DArray@PAVServerTeam@@@@IAEXXZ 004ada70 f i Server.obj
 0001:000acaa0       ?Empty@?$DArray@PAVServerTeam@@@@QAEXXZ 004adaa0 f i Server.obj
 0001:000acad0       ?Grow@?$DArray@E@@IAEXXZ   004adad0 f i Server.obj
 0001:000acb00       ?Empty@?$DArray@E@@QAEXXZ  004adb00 f i Server.obj
 0001:000acb30       ?Grow@?$DArray@_N@@IAEXXZ  004adb30 f i Server.obj
 0001:000acb60       ?SetSize@?$DArray@PAVServerToClient@@@@QAEXH@Z 004adb60 f i Server.obj
 0001:000acc80       ?SetSize@?$DArray@PAVServerTeam@@@@QAEXH@Z 004adc80 f i Server.obj
 0001:000acda0       ?SetSize@?$DArray@E@@QAEXH@Z 004adda0 f i Server.obj
 0001:000aced0       ?SetSize@?$DArray@_N@@QAEXH@Z 004aded0 f i Server.obj
 0001:000ad000       ??0ServerToClient@@QAE@PADHPAVNetSocketListener@@@Z 004ae000 f   ServerToClient.obj
 0001:000ad170       ??1ServerToClient@@QAE@XZ  004ae170 f   ServerToClient.obj
 0001:000ad1a0       ?GetSocket@ServerToClient@@QAEPAVNetSocketSession@@XZ 004ae1a0 f   ServerToClient.obj
 0001:000ad1b0       ?SetStepSize@?$DArray@E@@QAEXH@Z 004ae1b0 f i ServerToClient.obj
 0001:000ad1c0       ??0?$DArray@_N@@QAE@XZ     004ae1c0 f i ServerToClient.obj
 0001:000ad1e0       ??1?$DArray@_N@@QAE@XZ     004ae1e0 f i ServerToClient.obj
 0001:000ad1f0       ?SetStepSize@?$DArray@_N@@QAEXH@Z 004ae1f0 f i ServerToClient.obj
 0001:000ad200       ?Empty@?$DArray@_N@@QAEXXZ 004ae200 f i ServerToClient.obj
 0001:000ad230       ??_ERandom@@UAEPAXI@Z      004ae230 f i * CIL library *:* CIL module *
 0001:000ad230       ??_GRandom@@UAEPAXI@Z      004ae230 f i random_object.obj
 0001:000ad260       ??1Random@@UAE@XZ          004ae260 f   random_object.obj
 0001:000ad270       ??_EFastRandom@@UAEPAXI@Z  004ae270 f i * CIL library *:* CIL module *
 0001:000ad270       ??_GFastRandom@@UAEPAXI@Z  004ae270 f i random_object.obj
 0001:000ad2a0       ??1FastRandom@@UAE@XZ      004ae2a0 f i random_object.obj
 0001:000ad2b0       ?Seed@FastRandom@@UAEXK@Z  004ae2b0 f   random_object.obj
 0001:000ad2c0       ?Next@FastRandom@@UAEJXZ   004ae2c0 f   random_object.obj
 0001:000ad2e0       ??0AnimatedIcon@@QAE@XZ    004ae2e0 f   animated_icon.obj
 0001:000ad370       ?Render@AnimatedIcon@@UAE_NXZ 004ae370 f   animated_icon.obj
 0001:000ad380       ??0ActionMarker@@QAE@XZ    004ae380 f   animated_icon.obj
 0001:000ad3b0       ??1AnimatedIcon@@QAE@XZ    004ae3b0 f i animated_icon.obj
 0001:000ad3c0       ?Render@ActionMarker@@UAE_NXZ 004ae3c0 f   animated_icon.obj
 0001:000ad5d0       ??0SonarPing@@QAE@XZ       004ae5d0 f   animated_icon.obj
 0001:000ad5f0       ?Render@SonarPing@@UAE_NXZ 004ae5f0 f   animated_icon.obj
 0001:000ad7e0       ??0NukePointer@@QAE@XZ     004ae7e0 f   animated_icon.obj
 0001:000ad820       ?Merge@NukePointer@@QAEXXZ 004ae820 f   animated_icon.obj
 0001:000ad900       ?Render@NukePointer@@UAE_NXZ 004ae900 f   animated_icon.obj
 0001:000ade20       ??0?$BoundedArray@_N@@QAE@XZ 004aee20 f i animated_icon.obj
 0001:000ade30       ??1?$BoundedArray@_N@@QAE@XZ 004aee30 f i animated_icon.obj
 0001:000ade40       ?Initialise@?$BoundedArray@_N@@QAEXI@Z 004aee40 f i animated_icon.obj
 0001:000ade60       ?SetAll@?$BoundedArray@_N@@QAEXAB_N@Z 004aee60 f i animated_icon.obj
 0001:000ade90       ?Size@?$DArray@PAVAnimatedIcon@@@@QBEHXZ 004aee90 f i animated_icon.obj
 0001:000adea0       ?ValidIndex@?$DArray@PAVAnimatedIcon@@@@QBE_NH@Z 004aeea0 f i animated_icon.obj
 0001:000aded0       ??A?$DArray@PAVAnimatedIcon@@@@QAEAAPAVAnimatedIcon@@H@Z 004aeed0 f i animated_icon.obj
 0001:000adf30       ?Empty@?$BoundedArray@_N@@QAEXXZ 004aef30 f i animated_icon.obj
 0001:000adf50       ?fmod@@YAMMM@Z             004aef50 f i lobby_renderer.obj
 0001:000adf60       ??0LobbyRenderer@@QAE@XZ   004aef60 f   lobby_renderer.obj
 0001:000adfd0       ??1LobbyRenderer@@QAE@XZ   004aefd0 f   lobby_renderer.obj
 0001:000adff0       ?Initialise@LobbyRenderer@@QAEXXZ 004aeff0 f   lobby_renderer.obj
 0001:000ae010       ?InitialiseLanguage@LobbyRenderer@@QAEXXZ 004af010 f   lobby_renderer.obj
 0001:000ae080       ?Render@LobbyRenderer@@QAEXXZ 004af080 f   lobby_renderer.obj
 0001:000ae260       ?RenderTitle@LobbyRenderer@@IAEXXZ 004af260 f   lobby_renderer.obj
 0001:000ae420       ?RenderOverlay@LobbyRenderer@@IAEXXZ 004af420 f   lobby_renderer.obj
 0001:000aea00       ?RenderBorder@LobbyRenderer@@IAEXXZ 004afa00 f   lobby_renderer.obj
 0001:000aeb70       ?SetupCamera3d@LobbyRenderer@@IAEXXZ 004afb70 f   lobby_renderer.obj
 0001:000af0e0       ?RenderGlobe@LobbyRenderer@@IAEXXZ 004b00e0 f   lobby_renderer.obj
 0001:000b03a0       ?RenderVersionInfo@LobbyRenderer@@IAEXXZ 004b13a0 f   lobby_renderer.obj
 0001:000b0870       ?RenderAuthStatus@LobbyRenderer@@IAEXXZ 004b1870 f   lobby_renderer.obj
 0001:000b0a40       ?RenderMotd@LobbyRenderer@@IAEXXZ 004b1a40 f   lobby_renderer.obj
 0001:000b0ca0       ?RenderDemoLimits@LobbyRenderer@@IAEXXZ 004b1ca0 f   lobby_renderer.obj
 0001:000b1060       ?RotateAround@?$Vector3@M@@QAEXABV1@@Z 004b2060 f i lobby_renderer.obj
 0001:000b1220       ?RotateAroundY@?$Vector3@M@@QAEXM@Z 004b2220 f i lobby_renderer.obj
 0001:000b1330       ?UpVector@?$Vector3@M@@SA?BV1@XZ 004b2330 f i lobby_renderer.obj
 0001:000b1350       ?Size@?$LList@PAVIsland@@@@QBEHXZ 004b2350 f i lobby_renderer.obj
 0001:000b1360       ??A?$LList@PAVIsland@@@@QAEPAVIsland@@H@Z 004b2360 f i lobby_renderer.obj
 0001:000b1380       ?Size@?$LList@PAV?$Vector3@M@@@@QBEHXZ 004b2380 f i lobby_renderer.obj
 0001:000b1390       ??A?$LList@PAV?$Vector3@M@@@@QAEPAV?$Vector3@M@@H@Z 004b2390 f i lobby_renderer.obj
 0001:000b13b0       ?GetData@?$DArray@V?$Vector3@M@@@@QBE?AV?$Vector3@M@@H@Z 004b23b0 f i lobby_renderer.obj
 0001:000b1420       ?GetData@?$LList@PAVIsland@@@@QBEPAVIsland@@H@Z 004b2420 f i lobby_renderer.obj
 0001:000b1440       ?GetData@?$LList@PAV?$Vector3@M@@@@QBEPAV?$Vector3@M@@H@Z 004b2440 f i lobby_renderer.obj
 0001:000b1460       ?GetItem@?$LList@PAVIsland@@@@IBEPAV?$LListItem@PAVIsland@@@@H@Z 004b2460 f i lobby_renderer.obj
 0001:000b1510       ?GetItem@?$LList@PAV?$Vector3@M@@@@IBEPAV?$LListItem@PAV?$Vector3@M@@@@H@Z 004b2510 f i lobby_renderer.obj
 0001:000b15c0       ?ValidIndex@?$LList@PAVIsland@@@@QBE_NH@Z 004b25c0 f i lobby_renderer.obj
 0001:000b15e0       ?ValidIndex@?$LList@PAV?$Vector3@M@@@@QBE_NH@Z 004b25e0 f i lobby_renderer.obj
 0001:000b1600       ?pow@@YAMMM@Z              004b2600 f i map_renderer.obj
 0001:000b1620       ??9Fixed@@QBE_NABV0@@Z     004b2620 f i map_renderer.obj
 0001:000b1660       ??0MapRenderer@@QAE@XZ     004b2660 f   map_renderer.obj
 0001:000b1840       ??1MapRenderer@@QAE@XZ     004b2840 f   map_renderer.obj
 0001:000b1900       ??_GRendererDebugMenu@@QAEPAXI@Z 004b2900 f i map_renderer.obj
 0001:000b1920       ?Init@MapRenderer@@QAEXXZ  004b2920 f   map_renderer.obj
 0001:000b1aa0       ?Reset@MapRenderer@@QAEXXZ 004b2aa0 f   map_renderer.obj
 0001:000b1ae0       ??_G?$LList@PBD@@QAEPAXI@Z 004b2ae0 f i map_renderer.obj
 0001:000b1b00       ?Render@MapRenderer@@QAEXXZ 004b2b00 f   map_renderer.obj
 0001:000b23b0       ?RenderPlacementDetails@MapRenderer@@QAEXXZ 004b33b0 f   map_renderer.obj
 0001:000b2650       ?RenderExplosions@MapRenderer@@QAEXXZ 004b3650 f   map_renderer.obj
 0001:000b27c0       ?RenderAnimations@MapRenderer@@QAEXXZ 004b37c0 f   map_renderer.obj
 0001:000b2830       ??_GAnimatedIcon@@QAEPAXI@Z 004b3830 f i map_renderer.obj
 0001:000b2850       ?RenderCountryControl@MapRenderer@@QAEXXZ 004b3850 f   map_renderer.obj
 0001:000b2d90       ?RenderGunfire@MapRenderer@@QAEXXZ 004b3d90 f   map_renderer.obj
 0001:000b2f10       ?RenderWorldMessages@MapRenderer@@QAEXXZ 004b3f10 f   map_renderer.obj
 0001:000b31a0       ?RenderWorldObjectDetails@MapRenderer@@QAEXPAVWorldObject@@@Z 004b41a0 f   map_renderer.obj
 0001:000b32d0       ?RenderCityObjectDetails@MapRenderer@@QAEXPAVWorldObject@@PAM1111@Z 004b42d0 f   map_renderer.obj
 0001:000b38b0       ?RenderTooltip@MapRenderer@@QAEXPAM0000M@Z 004b48b0 f   map_renderer.obj
 0001:000b3c00       ?RenderFriendlyObjectDetails@MapRenderer@@QAEXPAVWorldObject@@PAM1111@Z 004b4c00 f   map_renderer.obj
 0001:000b4570       ?RenderFriendlyObjectMenu@MapRenderer@@QAEXPAVWorldObject@@PAM1111@Z 004b5570 f   map_renderer.obj
 0001:000b4ef0       ?GetWorldObjectStatePosition@MapRenderer@@QAEXPAVWorldObject@@HPAM111@Z 004b5ef0 f   map_renderer.obj
 0001:000b5120       ?GetStatePositionSizes@MapRenderer@@QAEXPAM00@Z 004b6120 f   map_renderer.obj
 0001:000b5160       ?RenderEnemyObjectDetails@MapRenderer@@QAEXPAVWorldObject@@PAM1111@Z 004b6160 f   map_renderer.obj
 0001:000b5770       ?RenderMouse@MapRenderer@@QAEXXZ 004b6770 f   map_renderer.obj
 0001:000b6610       ?RenderEmptySpaceDetails@MapRenderer@@QAEXMM@Z 004b7610 f   map_renderer.obj
 0001:000b6860       ?RenderActionLine@MapRenderer@@QAEXMMMMVColour@@M_N@Z 004b7860 f   map_renderer.obj
 0001:000b6c80       ?RenderWorldObjectTargets@MapRenderer@@QAEXPAVWorldObject@@_N@Z 004b7c80 f   map_renderer.obj
 0001:000b7550       ?RenderUnitHighlight@MapRenderer@@QAEXH@Z 004b8550 f   map_renderer.obj
 0001:000b77b0       ?RenderNukeUnits@MapRenderer@@QAEXXZ 004b87b0 f   map_renderer.obj
 0001:000b7b70       ?RenderCoastlines@MapRenderer@@QAEXXZ 004b8b70 f   map_renderer.obj
 0001:000b7d30       ?RenderBorders@MapRenderer@@QAEXXZ 004b8d30 f   map_renderer.obj
 0001:000b7f00       ?RenderObjects@MapRenderer@@QAEXXZ 004b8f00 f   map_renderer.obj
 0001:000b84c0       ?RenderBlips@MapRenderer@@QAEXXZ 004b94c0 f   map_renderer.obj
 0001:000b8590       ?RenderCities@MapRenderer@@QAEXXZ 004b9590 f   map_renderer.obj
 0001:000b8ca0       ?RenderPopulationDensity@MapRenderer@@QAEXXZ 004b9ca0 f   map_renderer.obj
 0001:000b8e60       ?RenderRadar@MapRenderer@@QAEX_N0@Z 004b9e60 f   map_renderer.obj
 0001:000b9140       ?RenderRadar@MapRenderer@@QAEXXZ 004ba140 f   map_renderer.obj
 0001:000b92b0       ?RenderNodes@MapRenderer@@QAEXXZ 004ba2b0 f   map_renderer.obj
 0001:000b9770       ?UpdateCameraControl@MapRenderer@@QAEXMM@Z 004ba770 f   map_renderer.obj
 0001:000b9cc0       ?GetNearestObjectToMouse@MapRenderer@@QAEHMM@Z 004bacc0 f   map_renderer.obj
 0001:000ba0a0       ?HandleSelectObject@MapRenderer@@QAEXH@Z 004bb0a0 f   map_renderer.obj
 0001:000ba210       ?HandleClickStateMenu@MapRenderer@@QAEXXZ 004bb210 f   map_renderer.obj
 0001:000ba3f0       ?HandleObjectAction@MapRenderer@@QAEXMMH@Z 004bb3f0 f   map_renderer.obj
 0001:000ba750       ?HandleSetWaypoint@MapRenderer@@QAEXMM@Z 004bb750 f   map_renderer.obj
 0001:000baa60       ?Update@MapRenderer@@QAEXXZ 004bba60 f   map_renderer.obj
 0001:000bb0c0       ?ConvertPixelsToAngle@MapRenderer@@QAEXMMPAM0_N@Z 004bc0c0 f   map_renderer.obj
 0001:000bb1f0       ?ConvertAngleToPixels@MapRenderer@@QAEXMMPAM0@Z 004bc1f0 f   map_renderer.obj
 0001:000bb2b0       ?GetWindowBounds@MapRenderer@@QAEXPAM000@Z 004bc2b0 f   map_renderer.obj
 0001:000bb350       ?IsValidTerritory@MapRenderer@@QAE_NHVFixed@@0_N@Z 004bc350 f   map_renderer.obj
 0001:000bb6e0       ?IsCoastline@MapRenderer@@QAE_NVFixed@@0@Z 004bc6e0 f   map_renderer.obj
 0001:000bb7f0       ?GetTerritory@MapRenderer@@QAEHVFixed@@0_N@Z 004bc7f0 f   map_renderer.obj
 0001:000bb890       ?GetZoomFactor@MapRenderer@@QAEMXZ 004bc890 f   map_renderer.obj
 0001:000bb8a0       ?GetDrawScale@MapRenderer@@QAEMXZ 004bc8a0 f   map_renderer.obj
 0001:000bb8b0       ?GetLongitudeMod@MapRenderer@@QAEHXZ 004bc8b0 f   map_renderer.obj
 0001:000bb8d0       ?GetTerritoryImage@MapRenderer@@QAEPAVImage@@H@Z 004bc8d0 f   map_renderer.obj
 0001:000bb8e0       ?GetCurrentSelectionId@MapRenderer@@QAEHXZ 004bc8e0 f   map_renderer.obj
 0001:000bb8f0       ?GetCurrentHighlightId@MapRenderer@@QAEHXZ 004bc8f0 f   map_renderer.obj
 0001:000bb900       ?SetCurrentSelectionId@MapRenderer@@QAEXH@Z 004bc900 f   map_renderer.obj
 0001:000bb960       ?GetTerritoryIdUnique@MapRenderer@@QAEHVFixed@@0@Z 004bc960 f   map_renderer.obj
 0001:000bbaa0       ?CenterViewport@MapRenderer@@QAEXMMHH@Z 004bcaa0 f   map_renderer.obj
 0001:000bbbc0       ?CenterViewport@MapRenderer@@QAEXHHH@Z 004bcbc0 f   map_renderer.obj
 0001:000bbc10       ?CreateAnimation@MapRenderer@@QAEHHHMM@Z 004bcc10 f   map_renderer.obj
 0001:000bbd10       ?FindScreenEdge@MapRenderer@@QAEXABV?$Vector3@M@@PAM1@Z 004bcd10 f   map_renderer.obj
 0001:000bbe80       ?UpdateMouseIdleTime@MapRenderer@@QAEXXZ 004bce80 f   map_renderer.obj
 0001:000bbf40       ?LockRadarRenderer@MapRenderer@@QAEXXZ 004bcf40 f   map_renderer.obj
 0001:000bbf50       ?UnlockRadarRenderer@MapRenderer@@QAEXXZ 004bcf50 f   map_renderer.obj
 0001:000bbf60       ?GetAutoCam@MapRenderer@@QAE_NXZ 004bcf60 f   map_renderer.obj
 0001:000bbf70       ?IsMouseInMapRenderer@MapRenderer@@QAE_NXZ 004bcf70 f   map_renderer.obj
 0001:000bbfb0       ?DragCamera@MapRenderer@@QAEXXZ 004bcfb0 f   map_renderer.obj
 0001:000bc0a0       ?IsOnScreen@MapRenderer@@QAE_NMMM@Z 004bd0a0 f   map_renderer.obj
 0001:000bc190       ?GetShowWhiteBoard@MapRenderer@@QBE_NXZ 004bd190 f   map_renderer.obj
 0001:000bc1a0       ?SetShowWhiteBoard@MapRenderer@@QAEX_N@Z 004bd1a0 f   map_renderer.obj
 0001:000bc1b0       ?GetEditWhiteBoard@MapRenderer@@QBE_NXZ 004bd1b0 f   map_renderer.obj
 0001:000bc1c0       ?SetEditWhiteBoard@MapRenderer@@QAEX_N@Z 004bd1c0 f   map_renderer.obj
 0001:000bc210       ?GetShowPlanning@MapRenderer@@QBE_NXZ 004bd210 f   map_renderer.obj
 0001:000bc220       ?SetShowPlanning@MapRenderer@@QAEX_N@Z 004bd220 f   map_renderer.obj
 0001:000bc270       ?GetShowAllWhiteBoards@MapRenderer@@QBE_NXZ 004bd270 f   map_renderer.obj
 0001:000bc280       ?SetShowAllWhiteBoards@MapRenderer@@QAEX_N@Z 004bd280 f   map_renderer.obj
 0001:000bc350       ?UpdatePlanning@MapRenderer@@QAE_NMM@Z 004bd350 f   map_renderer.obj
 0001:000bc8f0       ?RenderWhiteBoard@MapRenderer@@QAEXXZ 004bd8f0 f   map_renderer.obj
 0001:000bcac0       ?RenderSanta@MapRenderer@@QAEXXZ 004bdac0 f   map_renderer.obj
 0001:000bcad0       ??0?$Vector3@VFixed@@@@QAE@VFixed@@00@Z 004bdad0 f i map_renderer.obj
 0001:000bcb00       ?Size@?$LList@PAVWorldObjectState@@@@QBEHXZ 004bdb00 f i map_renderer.obj
 0001:000bcb10       ??A?$BoundedArray@V?$Vector3@VFixed@@@@@@QAEAAV?$Vector3@VFixed@@@@I@Z 004bdb10 f i map_renderer.obj
 0001:000bcb40       ??A?$BoundedArray@VFixed@@@@QAEAAVFixed@@I@Z 004bdb40 f i map_renderer.obj
 0001:000bcb70       ??A?$LList@PAVActionOrder@@@@QAEPAVActionOrder@@H@Z 004bdb70 f i map_renderer.obj
 0001:000bcb90       ??0?$LList@PAV?$Vector3@VFixed@@@@@@QAE@XZ 004bdb90 f i map_renderer.obj
 0001:000bcbc0       ??1?$LList@PAV?$Vector3@VFixed@@@@@@QAE@XZ 004bdbc0 f i map_renderer.obj
 0001:000bcbd0       ?PutData@?$LList@PAV?$Vector3@VFixed@@@@@@QAEXABQAV?$Vector3@VFixed@@@@@Z 004bdbd0 f i map_renderer.obj
 0001:000bcbe0       ?RemoveData@?$LList@PAV?$Vector3@VFixed@@@@@@QAEXH@Z 004bdbe0 f i map_renderer.obj
 0001:000bcca0       ?Size@?$LList@PAV?$Vector3@VFixed@@@@@@QBEHXZ 004bdca0 f i map_renderer.obj
 0001:000bccb0       ??A?$LList@PAV?$Vector3@VFixed@@@@@@QAEPAV?$Vector3@VFixed@@@@H@Z 004bdcb0 f i map_renderer.obj
 0001:000bccd0       ?Size@?$LList@PAURoute@@@@QBEHXZ 004bdcd0 f i map_renderer.obj
 0001:000bcce0       ??A?$LList@PAURoute@@@@QAEPAURoute@@H@Z 004bdce0 f i map_renderer.obj
 0001:000bcd00       ?GetData@?$LList@PAVWhiteBoardPoint@@@@QBEPAVWhiteBoardPoint@@H@Z 004bdd00 f i map_renderer.obj
 0001:000bcd20       ?Size@?$LList@PAVWhiteBoardPoint@@@@QBEHXZ 004bdd20 f i map_renderer.obj
 0001:000bcd30       ?Size@?$LList@PAVNode@@@@QBEHXZ 004bdd30 f i map_renderer.obj
 0001:000bcd40       ?ValidIndex@?$LList@PAVNode@@@@QBE_NH@Z 004bdd40 f i map_renderer.obj
 0001:000bcd60       ??A?$LList@PAVNode@@@@QAEPAVNode@@H@Z 004bdd60 f i map_renderer.obj
 0001:000bcd80       ?Size@?$DArray@PAVGunFire@@@@QBEHXZ 004bdd80 f i map_renderer.obj
 0001:000bcd90       ?ValidIndex@?$DArray@PAVGunFire@@@@QBE_NH@Z 004bdd90 f i map_renderer.obj
 0001:000bcdc0       ??A?$DArray@PAVGunFire@@@@QAEAAPAVGunFire@@H@Z 004bddc0 f i map_renderer.obj
 0001:000bce20       ??0?$DArray@PAVAnimatedIcon@@@@QAE@XZ 004bde20 f i map_renderer.obj
 0001:000bce40       ??1?$DArray@PAVAnimatedIcon@@@@QAE@XZ 004bde40 f i map_renderer.obj
 0001:000bce50       ?PutData@?$DArray@PAVAnimatedIcon@@@@QAEHABQAVAnimatedIcon@@@Z 004bde50 f i map_renderer.obj
 0001:000bcea0       ?RemoveData@?$DArray@PAVAnimatedIcon@@@@QAEXH@Z 004bdea0 f i map_renderer.obj
 0001:000bcf00       ?EmptyAndDelete@?$DArray@PAVAnimatedIcon@@@@QAEXXZ 004bdf00 f i map_renderer.obj
 0001:000bcf50       ??0?$LList@PBD@@QAE@XZ     004bdf50 f i map_renderer.obj
 0001:000bcf80       ??1?$LList@PBD@@QAE@XZ     004bdf80 f i map_renderer.obj
 0001:000bcf90       ?GetData@?$LList@PBD@@QBEPBDH@Z 004bdf90 f i map_renderer.obj
 0001:000bd040       ?Size@?$LList@PBD@@QBEHXZ  004be040 f i map_renderer.obj
 0001:000bd050       ?Empty@?$LList@PBD@@QAEXXZ 004be050 f i map_renderer.obj
 0001:000bd0a0       ?RemoveData@?$LList@PAVBlip@@@@QAEXH@Z 004be0a0 f i map_renderer.obj
 0001:000bd160       ?Size@?$LList@PAVBlip@@@@QBEHXZ 004be160 f i map_renderer.obj
 0001:000bd170       ??A?$LList@PAVBlip@@@@QAEPAVBlip@@H@Z 004be170 f i map_renderer.obj
 0001:000bd190       ??_G?$LListItem@PAV?$Vector3@VFixed@@@@@@QAEPAXI@Z 004be190 f i map_renderer.obj
 0001:000bd1b0       ??_G?$LListItem@PBD@@QAEPAXI@Z 004be1b0 f i map_renderer.obj
 0001:000bd1d0       ?GetData@?$LList@PAVActionOrder@@@@QBEPAVActionOrder@@H@Z 004be1d0 f i map_renderer.obj
 0001:000bd1f0       ?GetItem@?$LList@PAV?$Vector3@VFixed@@@@@@IBEPAV?$LListItem@PAV?$Vector3@VFixed@@@@@@H@Z 004be1f0 f i map_renderer.obj
 0001:000bd2a0       ?PutDataAtEnd@?$LList@PAV?$Vector3@VFixed@@@@@@QAEXABQAV?$Vector3@VFixed@@@@@Z 004be2a0 f i map_renderer.obj
 0001:000bd300       ?GetData@?$LList@PAV?$Vector3@VFixed@@@@@@QBEPAV?$Vector3@VFixed@@@@H@Z 004be300 f i map_renderer.obj
 0001:000bd320       ?Empty@?$LList@PAV?$Vector3@VFixed@@@@@@QAEXXZ 004be320 f i map_renderer.obj
 0001:000bd370       ??1?$LListItem@PAV?$Vector3@VFixed@@@@@@QAE@XZ 004be370 f i map_renderer.obj
 0001:000bd380       ?GetData@?$LList@PAURoute@@@@QBEPAURoute@@H@Z 004be380 f i map_renderer.obj
 0001:000bd3a0       ?GetItem@?$LList@PAVWhiteBoardPoint@@@@IBEPAV?$LListItem@PAVWhiteBoardPoint@@@@H@Z 004be3a0 f i map_renderer.obj
 0001:000bd450       ?GetData@?$LList@PAVNode@@@@QBEPAVNode@@H@Z 004be450 f i map_renderer.obj
 0001:000bd470       ?Grow@?$DArray@PAVAnimatedIcon@@@@IAEXXZ 004be470 f i map_renderer.obj
 0001:000bd4a0       ?Empty@?$DArray@PAVAnimatedIcon@@@@QAEXXZ 004be4a0 f i map_renderer.obj
 0001:000bd4d0       ?GetItem@?$LList@PBD@@IBEPAV?$LListItem@PBD@@H@Z 004be4d0 f i map_renderer.obj
 0001:000bd580       ?GetItem@?$LList@PAVBlip@@@@IBEPAV?$LListItem@PAVBlip@@@@H@Z 004be580 f i map_renderer.obj
 0001:000bd630       ?GetData@?$LList@PAVBlip@@@@QBEPAVBlip@@H@Z 004be630 f i map_renderer.obj
 0001:000bd650       ??1?$LListItem@PBD@@QAE@XZ 004be650 f i map_renderer.obj
 0001:000bd660       ?GetItem@?$LList@PAVActionOrder@@@@IBEPAV?$LListItem@PAVActionOrder@@@@H@Z 004be660 f i map_renderer.obj
 0001:000bd710       ?ValidIndex@?$LList@PAV?$Vector3@VFixed@@@@@@QBE_NH@Z 004be710 f i map_renderer.obj
 0001:000bd730       ??0?$LListItem@PAV?$Vector3@VFixed@@@@@@QAE@XZ 004be730 f i map_renderer.obj
 0001:000bd750       ?GetItem@?$LList@PAURoute@@@@IBEPAV?$LListItem@PAURoute@@@@H@Z 004be750 f i map_renderer.obj
 0001:000bd800       ?ValidIndex@?$LList@PAVWhiteBoardPoint@@@@QBE_NH@Z 004be800 f i map_renderer.obj
 0001:000bd820       ?GetItem@?$LList@PAVNode@@@@IBEPAV?$LListItem@PAVNode@@@@H@Z 004be820 f i map_renderer.obj
 0001:000bd8d0       ?SetSize@?$DArray@PAVAnimatedIcon@@@@QAEXH@Z 004be8d0 f i map_renderer.obj
 0001:000bd9f0       ?ValidIndex@?$LList@PBD@@QBE_NH@Z 004be9f0 f i map_renderer.obj
 0001:000bda10       ?ValidIndex@?$LList@PAVBlip@@@@QBE_NH@Z 004bea10 f i map_renderer.obj
 0001:000bda30       ?ValidIndex@?$LList@PAVActionOrder@@@@QBE_NH@Z 004bea30 f i map_renderer.obj
 0001:000bda50       ?ValidIndex@?$LList@PAURoute@@@@QBE_NH@Z 004bea50 f i map_renderer.obj
 0001:000bda70       ??0AirBase@@QAE@XZ         004bea70 f   airbase.obj
 0001:000bdc20       ??_EAirBase@@UAEPAXI@Z     004bec20 f i * CIL library *:* CIL module *
 0001:000bdc20       ??_GAirBase@@UAEPAXI@Z     004bec20 f i airbase.obj
 0001:000bdc50       ??1AirBase@@UAE@XZ         004bec50 f i airbase.obj
 0001:000bdc60       ?RequestAction@AirBase@@UAEXPAVActionOrder@@@Z 004bec60 f   airbase.obj
 0001:000bdce0       ?Action@AirBase@@UAEXHVFixed@@0@Z 004bece0 f   airbase.obj
 0001:000bddd0       ?RunAI@AirBase@@UAEXXZ     004bedd0 f   airbase.obj
 0001:000be8c0       ??1?$FastDArray@H@@QAE@XZ  004bf8c0 f i airbase.obj
 0001:000be8d0       ?IsActionQueueable@AirBase@@UAE_NXZ 004bf8d0 f   airbase.obj
 0001:000be8e0       ?UsingNukes@AirBase@@UAE_NXZ 004bf8e0 f   airbase.obj
 0001:000be8f0       ?NukeStrike@AirBase@@UAEXXZ 004bf8f0 f   airbase.obj
 0001:000bea60       ?Update@AirBase@@UAE_NXZ   004bfa60 f   airbase.obj
 0001:000bec90       ?CanLaunchBomber@AirBase@@UAE_NXZ 004bfc90 f   airbase.obj
 0001:000bed50       ?CanLaunchFighter@AirBase@@UAE_NXZ 004bfd50 f   airbase.obj
 0001:000bee00       ?GetAttackOdds@AirBase@@UAEHH@Z 004bfe00 f   airbase.obj
 0001:000bee90       ?IsValidCombatTarget@AirBase@@UAEHH@Z 004bfe90 f   airbase.obj
 0001:000befc0       ?IsValidMovementTarget@AirBase@@UAEHVFixed@@0@Z 004bffc0 f   airbase.obj
 0001:000bf0e0       ?Render@AirBase@@UAEXXZ    004c00e0 f   airbase.obj
 0001:000bf410       ??A?$DArray@H@@QAEAAHH@Z   004c0410 f i airbase.obj
 0001:000bf470       ?Size@?$LList@PAVEvent@@@@QBEHXZ 004c0470 f i airbase.obj
 0001:000bf480       ??A?$LList@PAVEvent@@@@QAEPAVEvent@@H@Z 004c0480 f i airbase.obj
 0001:000bf4a0       ??0?$FastDArray@H@@QAE@XZ  004c04a0 f i airbase.obj
 0001:000bf4c0       ?PutData@?$FastDArray@H@@QAEHABH@Z 004c04c0 f i airbase.obj
 0001:000bf530       ?GetData@?$LList@PAVEvent@@@@QBEPAVEvent@@H@Z 004c0530 f i airbase.obj
 0001:000bf550       ?Grow@?$FastDArray@H@@IAEXXZ 004c0550 f i airbase.obj
 0001:000bf580       ?GetItem@?$LList@PAVEvent@@@@IBEPAV?$LListItem@PAVEvent@@@@H@Z 004c0580 f i airbase.obj
 0001:000bf630       ?SetSize@?$FastDArray@H@@QAEXH@Z 004c0630 f i airbase.obj
 0001:000bf820       ?ValidIndex@?$LList@PAVEvent@@@@QBE_NH@Z 004c0820 f i airbase.obj
 0001:000bf840       ?RebuildFreeList@?$FastDArray@H@@IAEXXZ 004c0840 f i airbase.obj
 0001:000bf8d0       ?RebuildNumUsed@?$FastDArray@H@@IAEXXZ 004c08d0 f i airbase.obj
 0001:000bf900       ??0BattleShip@@QAE@XZ      004c0900 f   battleship.obj
 0001:000bfaa0       ??_EBattleShip@@UAEPAXI@Z  004c0aa0 f i * CIL library *:* CIL module *
 0001:000bfaa0       ??_GBattleShip@@UAEPAXI@Z  004c0aa0 f i battleship.obj
 0001:000bfad0       ??1BattleShip@@UAE@XZ      004c0ad0 f i battleship.obj
 0001:000bfae0       ?Action@BattleShip@@UAEXHVFixed@@0@Z 004c0ae0 f   battleship.obj
 0001:000bfbb0       ?Update@BattleShip@@UAE_NXZ 004c0bb0 f   battleship.obj
 0001:000bfda0       ?Render@BattleShip@@UAEXXZ 004c0da0 f   battleship.obj
 0001:000bfdb0       ?RunAI@BattleShip@@UAEXXZ  004c0db0 f   battleship.obj
 0001:000bfdc0       ?GetAttackState@BattleShip@@UAEHXZ 004c0dc0 f   battleship.obj
 0001:000bfdd0       ?UsingGuns@BattleShip@@UAE_NXZ 004c0dd0 f   battleship.obj
 0001:000bfde0       ?GetTarget@BattleShip@@UAEHVFixed@@@Z 004c0de0 f   battleship.obj
 0001:000c0030       ?FleetAction@BattleShip@@UAEXH@Z 004c1030 f   battleship.obj
 0001:000c00c0       ?GetAttackPriority@BattleShip@@QAEHH@Z 004c10c0 f   battleship.obj
 0001:000c0130       ??0Blip@@QAE@XZ            004c1130 f   blip.obj
 0001:000c02d0       ??_EBlip@@UAEPAXI@Z        004c12d0 f i * CIL library *:* CIL module *
 0001:000c02d0       ??_GBlip@@UAEPAXI@Z        004c12d0 f i blip.obj
 0001:000c0300       ??1Blip@@UAE@XZ            004c1300 f i blip.obj
 0001:000c0310       ?Update@Blip@@UAE_NXZ      004c1310 f   blip.obj
 0001:000c09f0       ?SetWaypoint@Blip@@UAEXVFixed@@0@Z 004c19f0 f   blip.obj
 0001:000c0b40       ?GetSize@Blip@@UAE?AVFixed@@XZ 004c1b40 f   blip.obj
 0001:000c0b80       ?Render@Blip@@UAEXXZ       004c1b80 f   blip.obj
